ARM GAS  C:\Users\minde\AppData\Local\Temp\ccuaTphH.s 			page 1


   1              		.cpu cortex-m4
   2              		.arch armv7e-m
   3              		.fpu fpv4-sp-d16
   4              		.eabi_attribute 27, 1
   5              		.eabi_attribute 28, 1
   6              		.eabi_attribute 20, 1
   7              		.eabi_attribute 21, 1
   8              		.eabi_attribute 23, 3
   9              		.eabi_attribute 24, 1
  10              		.eabi_attribute 25, 1
  11              		.eabi_attribute 26, 1
  12              		.eabi_attribute 30, 1
  13              		.eabi_attribute 34, 1
  14              		.eabi_attribute 18, 4
  15              		.file	"Appl_Task.c"
  16              		.text
  17              	.Ltext0:
  18              		.cfi_sections	.debug_frame
  19              		.section	.rodata.APPL_Task_Init.str1.4,"aMS",%progbits,1
  20              		.align	2
  21              	.LC0:
  22 0000 55534220 		.ascii	"USB Init\012\015\000"
  22      496E6974 
  22      0A0D00
  23 000b 00       		.align	2
  24              	.LC1:
  25 000c 44617461 		.ascii	"Data Init\012\015\000"
  25      20496E69 
  25      740A0D00 
  26              		.align	2
  27              	.LC2:
  28 0018 4C544520 		.ascii	"LTE Init\012\015\000"
  28      496E6974 
  28      0A0D00
  29              		.section	.text.APPL_Task_Init,"ax",%progbits
  30              		.align	1
  31              		.global	APPL_Task_Init
  32              		.syntax unified
  33              		.thumb
  34              		.thumb_func
  36              	APPL_Task_Init:
  37              	.LFB291:
  38              		.file 1 "../01_Applcation/Appl_Task/Appl_Task.c"
   1:../01_Applcation/Appl_Task/Appl_Task.c **** /*
   2:../01_Applcation/Appl_Task/Appl_Task.c ****  * Appl_Task.c
   3:../01_Applcation/Appl_Task/Appl_Task.c ****  *
   4:../01_Applcation/Appl_Task/Appl_Task.c ****  * Created: 05/06/2022 1:46:27
   5:../01_Applcation/Appl_Task/Appl_Task.c ****  *  Author: Eakawit_kor
   6:../01_Applcation/Appl_Task/Appl_Task.c ****  */
   7:../01_Applcation/Appl_Task/Appl_Task.c **** 
   8:../01_Applcation/Appl_Task/Appl_Task.c **** #include <stdio.h>
   9:../01_Applcation/Appl_Task/Appl_Task.c **** #include <stdarg.h>
  10:../01_Applcation/Appl_Task/Appl_Task.c **** #include <stdlib.h>
  11:../01_Applcation/Appl_Task/Appl_Task.c **** #include <stdint.h>
  12:../01_Applcation/Appl_Task/Appl_Task.c **** #include <stdbool.h>
  13:../01_Applcation/Appl_Task/Appl_Task.c **** #include <string.h>
  14:../01_Applcation/Appl_Task/Appl_Task.c **** #include "main.h"
ARM GAS  C:\Users\minde\AppData\Local\Temp\ccuaTphH.s 			page 2


  15:../01_Applcation/Appl_Task/Appl_Task.c **** #include "usart.h"
  16:../01_Applcation/Appl_Task/Appl_Task.c **** #include "gpio.h"
  17:../01_Applcation/Appl_Task/Appl_Task.c **** #include "i2c.h"
  18:../01_Applcation/Appl_Task/Appl_Task.c **** 
  19:../01_Applcation/Appl_Task/Appl_Task.c **** #include "EKM_CMD.h"
  20:../01_Applcation/Appl_Task/Appl_Task.c **** #include "EKM_Buffer.h"
  21:../01_Applcation/Appl_Task/Appl_Task.c **** #include "Appl_Task.h"
  22:../01_Applcation/Appl_Task/Appl_Task.c **** #include "Appl_USBService.h"
  23:../01_Applcation/Appl_Task/Appl_Task.c **** #include "Appl_Data.h"
  24:../01_Applcation/Appl_Task/Appl_Task.c **** #include "APPL_DMA_LTE.h"
  25:../01_Applcation/Appl_Task/Appl_Task.c **** 
  26:../01_Applcation/Appl_Task/Appl_Task.c **** /*******************************************************************************
  27:../01_Applcation/Appl_Task/Appl_Task.c ****  *
  28:../01_Applcation/Appl_Task/Appl_Task.c ****  * DEFINE
  29:../01_Applcation/Appl_Task/Appl_Task.c ****  *
  30:../01_Applcation/Appl_Task/Appl_Task.c ****  ******************************************************************************/
  31:../01_Applcation/Appl_Task/Appl_Task.c **** 
  32:../01_Applcation/Appl_Task/Appl_Task.c **** //*****************************************************************************
  33:../01_Applcation/Appl_Task/Appl_Task.c **** // Prototypes for the APIs.
  34:../01_Applcation/Appl_Task/Appl_Task.c **** //*****************************************************************************
  35:../01_Applcation/Appl_Task/Appl_Task.c **** void APPL_Task_Init(void);
  36:../01_Applcation/Appl_Task/Appl_Task.c **** void APPL_Task_10ms(void);
  37:../01_Applcation/Appl_Task/Appl_Task.c **** void APPL_Task_100ms(void);
  38:../01_Applcation/Appl_Task/Appl_Task.c **** void APPL_Task_1s(void);
  39:../01_Applcation/Appl_Task/Appl_Task.c **** /*******************************************************************************
  40:../01_Applcation/Appl_Task/Appl_Task.c ****  *
  41:../01_Applcation/Appl_Task/Appl_Task.c ****  * PRIVATE VARIABLE
  42:../01_Applcation/Appl_Task/Appl_Task.c ****  *
  43:../01_Applcation/Appl_Task/Appl_Task.c ****  ******************************************************************************/
  44:../01_Applcation/Appl_Task/Appl_Task.c **** uint8_t time_10ms = 0;
  45:../01_Applcation/Appl_Task/Appl_Task.c **** uint8_t time_100ms = 0;
  46:../01_Applcation/Appl_Task/Appl_Task.c **** uint8_t time_1s = 0;
  47:../01_Applcation/Appl_Task/Appl_Task.c **** 
  48:../01_Applcation/Appl_Task/Appl_Task.c **** 
  49:../01_Applcation/Appl_Task/Appl_Task.c **** /*******************************************************************************
  50:../01_Applcation/Appl_Task/Appl_Task.c ****  * Function: APPL_Task_Init
  51:../01_Applcation/Appl_Task/Appl_Task.c ****  *
  52:../01_Applcation/Appl_Task/Appl_Task.c ****  * Parameters:      -
  53:../01_Applcation/Appl_Task/Appl_Task.c ****  * Returned value:  -
  54:../01_Applcation/Appl_Task/Appl_Task.c ****  *
  55:../01_Applcation/Appl_Task/Appl_Task.c ****  * Description:
  56:../01_Applcation/Appl_Task/Appl_Task.c ****  *
  57:../01_Applcation/Appl_Task/Appl_Task.c ****  * Calling:
  58:../01_Applcation/Appl_Task/Appl_Task.c ****  ******************************************************************************/
  59:../01_Applcation/Appl_Task/Appl_Task.c **** void APPL_Task_Init(void)
  60:../01_Applcation/Appl_Task/Appl_Task.c **** {
  39              		.loc 1 60 1 view -0
  40              		.cfi_startproc
  41              		@ args = 0, pretend = 0, frame = 0
  42              		@ frame_needed = 0, uses_anonymous_args = 0
  43 0000 08B5     		push	{r3, lr}
  44              	.LCFI0:
  45              		.cfi_def_cfa_offset 8
  46              		.cfi_offset 3, -8
  47              		.cfi_offset 14, -4
  61:../01_Applcation/Appl_Task/Appl_Task.c ****     APPL_USB_Init();
  48              		.loc 1 61 5 view .LVU1
ARM GAS  C:\Users\minde\AppData\Local\Temp\ccuaTphH.s 			page 3


  49 0002 FFF7FEFF 		bl	APPL_USB_Init
  50              	.LVL0:
  62:../01_Applcation/Appl_Task/Appl_Task.c ****     APPL_USB_printf("USB Init\n\r");
  51              		.loc 1 62 5 view .LVU2
  52 0006 0A48     		ldr	r0, .L3
  53 0008 FFF7FEFF 		bl	APPL_USB_printf
  54              	.LVL1:
  63:../01_Applcation/Appl_Task/Appl_Task.c ****     APPL_Data_Init();
  55              		.loc 1 63 5 view .LVU3
  56 000c FFF7FEFF 		bl	APPL_Data_Init
  57              	.LVL2:
  64:../01_Applcation/Appl_Task/Appl_Task.c ****     APPL_USB_printf("Data Init\n\r");
  58              		.loc 1 64 5 view .LVU4
  59 0010 0848     		ldr	r0, .L3+4
  60 0012 FFF7FEFF 		bl	APPL_USB_printf
  61              	.LVL3:
  65:../01_Applcation/Appl_Task/Appl_Task.c ****     APPL_DMA_LTE_Init();
  62              		.loc 1 65 5 view .LVU5
  63 0016 FFF7FEFF 		bl	APPL_DMA_LTE_Init
  64              	.LVL4:
  66:../01_Applcation/Appl_Task/Appl_Task.c ****     HAL_GPIO_WritePin(USART1_EN_GPIO_Port,USART1_EN_Pin,GPIO_PIN_SET);
  65              		.loc 1 66 5 view .LVU6
  66 001a 0122     		movs	r2, #1
  67 001c 4FF48071 		mov	r1, #256
  68 0020 4FF09040 		mov	r0, #1207959552
  69 0024 FFF7FEFF 		bl	HAL_GPIO_WritePin
  70              	.LVL5:
  67:../01_Applcation/Appl_Task/Appl_Task.c ****     APPL_USB_printf("LTE Init\n\r");
  71              		.loc 1 67 5 view .LVU7
  72 0028 0348     		ldr	r0, .L3+8
  73 002a FFF7FEFF 		bl	APPL_USB_printf
  74              	.LVL6:
  68:../01_Applcation/Appl_Task/Appl_Task.c **** }
  75              		.loc 1 68 1 is_stmt 0 view .LVU8
  76 002e 08BD     		pop	{r3, pc}
  77              	.L4:
  78              		.align	2
  79              	.L3:
  80 0030 00000000 		.word	.LC0
  81 0034 0C000000 		.word	.LC1
  82 0038 18000000 		.word	.LC2
  83              		.cfi_endproc
  84              	.LFE291:
  86              		.section	.text.APPL_Task_1s,"ax",%progbits
  87              		.align	1
  88              		.global	APPL_Task_1s
  89              		.syntax unified
  90              		.thumb
  91              		.thumb_func
  93              	APPL_Task_1s:
  94              	.LFB294:
  69:../01_Applcation/Appl_Task/Appl_Task.c **** 
  70:../01_Applcation/Appl_Task/Appl_Task.c **** /*******************************************************************************
  71:../01_Applcation/Appl_Task/Appl_Task.c ****  * Function: APPL_Task_10ms
  72:../01_Applcation/Appl_Task/Appl_Task.c ****  *
  73:../01_Applcation/Appl_Task/Appl_Task.c ****  * Parameters:      -
  74:../01_Applcation/Appl_Task/Appl_Task.c ****  * Returned value:  -
ARM GAS  C:\Users\minde\AppData\Local\Temp\ccuaTphH.s 			page 4


  75:../01_Applcation/Appl_Task/Appl_Task.c ****  *
  76:../01_Applcation/Appl_Task/Appl_Task.c ****  * Description:
  77:../01_Applcation/Appl_Task/Appl_Task.c ****  *
  78:../01_Applcation/Appl_Task/Appl_Task.c ****  * Calling:
  79:../01_Applcation/Appl_Task/Appl_Task.c ****  ******************************************************************************/
  80:../01_Applcation/Appl_Task/Appl_Task.c **** void APPL_Task_10ms(void)
  81:../01_Applcation/Appl_Task/Appl_Task.c **** {
  82:../01_Applcation/Appl_Task/Appl_Task.c ****     time_10ms++;
  83:../01_Applcation/Appl_Task/Appl_Task.c ****     APPL_USB_LineProcess();
  84:../01_Applcation/Appl_Task/Appl_Task.c ****     switch (time_10ms)
  85:../01_Applcation/Appl_Task/Appl_Task.c ****     {
  86:../01_Applcation/Appl_Task/Appl_Task.c ****     case 1:
  87:../01_Applcation/Appl_Task/Appl_Task.c ****     {
  88:../01_Applcation/Appl_Task/Appl_Task.c ****         /* code */
  89:../01_Applcation/Appl_Task/Appl_Task.c ****         HAL_GPIO_TogglePin(LED_STATUS_GPIO_Port,LED_STATUS_Pin);
  90:../01_Applcation/Appl_Task/Appl_Task.c ****         break;
  91:../01_Applcation/Appl_Task/Appl_Task.c ****     }
  92:../01_Applcation/Appl_Task/Appl_Task.c ****     case 2:
  93:../01_Applcation/Appl_Task/Appl_Task.c ****     {
  94:../01_Applcation/Appl_Task/Appl_Task.c ****         /* code */
  95:../01_Applcation/Appl_Task/Appl_Task.c ****         APPL_Data_MODBUS_Task();
  96:../01_Applcation/Appl_Task/Appl_Task.c ****         break;
  97:../01_Applcation/Appl_Task/Appl_Task.c ****     }
  98:../01_Applcation/Appl_Task/Appl_Task.c ****     case 3:
  99:../01_Applcation/Appl_Task/Appl_Task.c ****     {
 100:../01_Applcation/Appl_Task/Appl_Task.c ****         /* code */
 101:../01_Applcation/Appl_Task/Appl_Task.c ****         break;
 102:../01_Applcation/Appl_Task/Appl_Task.c ****     }
 103:../01_Applcation/Appl_Task/Appl_Task.c ****     case 4:
 104:../01_Applcation/Appl_Task/Appl_Task.c ****     {
 105:../01_Applcation/Appl_Task/Appl_Task.c ****         /* code */
 106:../01_Applcation/Appl_Task/Appl_Task.c ****         break;
 107:../01_Applcation/Appl_Task/Appl_Task.c ****     }
 108:../01_Applcation/Appl_Task/Appl_Task.c ****     case 5:
 109:../01_Applcation/Appl_Task/Appl_Task.c ****     {
 110:../01_Applcation/Appl_Task/Appl_Task.c ****         /* code */
 111:../01_Applcation/Appl_Task/Appl_Task.c ****         break;
 112:../01_Applcation/Appl_Task/Appl_Task.c ****     }
 113:../01_Applcation/Appl_Task/Appl_Task.c ****     case 6:
 114:../01_Applcation/Appl_Task/Appl_Task.c ****     {
 115:../01_Applcation/Appl_Task/Appl_Task.c ****         /* code */
 116:../01_Applcation/Appl_Task/Appl_Task.c ****         break;
 117:../01_Applcation/Appl_Task/Appl_Task.c ****     }
 118:../01_Applcation/Appl_Task/Appl_Task.c ****     case 7:
 119:../01_Applcation/Appl_Task/Appl_Task.c ****     {
 120:../01_Applcation/Appl_Task/Appl_Task.c ****         /* code */
 121:../01_Applcation/Appl_Task/Appl_Task.c ****         break;
 122:../01_Applcation/Appl_Task/Appl_Task.c ****     }
 123:../01_Applcation/Appl_Task/Appl_Task.c ****     case 8:
 124:../01_Applcation/Appl_Task/Appl_Task.c ****     {
 125:../01_Applcation/Appl_Task/Appl_Task.c ****         /* code */
 126:../01_Applcation/Appl_Task/Appl_Task.c ****         break;
 127:../01_Applcation/Appl_Task/Appl_Task.c ****     }
 128:../01_Applcation/Appl_Task/Appl_Task.c ****     case 9:
 129:../01_Applcation/Appl_Task/Appl_Task.c ****     {
 130:../01_Applcation/Appl_Task/Appl_Task.c ****         /* code */
 131:../01_Applcation/Appl_Task/Appl_Task.c ****         break;
ARM GAS  C:\Users\minde\AppData\Local\Temp\ccuaTphH.s 			page 5


 132:../01_Applcation/Appl_Task/Appl_Task.c ****     }
 133:../01_Applcation/Appl_Task/Appl_Task.c ****     case 10:
 134:../01_Applcation/Appl_Task/Appl_Task.c ****     {
 135:../01_Applcation/Appl_Task/Appl_Task.c ****         /* code */
 136:../01_Applcation/Appl_Task/Appl_Task.c ****         APPL_DMA_LTE_LineProcess();
 137:../01_Applcation/Appl_Task/Appl_Task.c ****         
 138:../01_Applcation/Appl_Task/Appl_Task.c ****         time_10ms = 0;
 139:../01_Applcation/Appl_Task/Appl_Task.c ****         APPL_Task_100ms();
 140:../01_Applcation/Appl_Task/Appl_Task.c ****         
 141:../01_Applcation/Appl_Task/Appl_Task.c ****         break;
 142:../01_Applcation/Appl_Task/Appl_Task.c ****     }
 143:../01_Applcation/Appl_Task/Appl_Task.c ****     }
 144:../01_Applcation/Appl_Task/Appl_Task.c **** }
 145:../01_Applcation/Appl_Task/Appl_Task.c **** 
 146:../01_Applcation/Appl_Task/Appl_Task.c **** /*******************************************************************************
 147:../01_Applcation/Appl_Task/Appl_Task.c ****  * Function: APPL_Task_10ms
 148:../01_Applcation/Appl_Task/Appl_Task.c ****  *
 149:../01_Applcation/Appl_Task/Appl_Task.c ****  * Parameters:      -
 150:../01_Applcation/Appl_Task/Appl_Task.c ****  * Returned value:  -
 151:../01_Applcation/Appl_Task/Appl_Task.c ****  *
 152:../01_Applcation/Appl_Task/Appl_Task.c ****  * Description:
 153:../01_Applcation/Appl_Task/Appl_Task.c ****  *
 154:../01_Applcation/Appl_Task/Appl_Task.c ****  * Calling:
 155:../01_Applcation/Appl_Task/Appl_Task.c ****  ******************************************************************************/
 156:../01_Applcation/Appl_Task/Appl_Task.c **** void APPL_Task_100ms(void)
 157:../01_Applcation/Appl_Task/Appl_Task.c **** {
 158:../01_Applcation/Appl_Task/Appl_Task.c ****     time_100ms++;
 159:../01_Applcation/Appl_Task/Appl_Task.c ****     switch (time_100ms)
 160:../01_Applcation/Appl_Task/Appl_Task.c ****     {
 161:../01_Applcation/Appl_Task/Appl_Task.c ****     case 1:
 162:../01_Applcation/Appl_Task/Appl_Task.c ****     {
 163:../01_Applcation/Appl_Task/Appl_Task.c ****         /* code */
 164:../01_Applcation/Appl_Task/Appl_Task.c ****         APPL_DMA_LTE_SIM7000G_Init();
 165:../01_Applcation/Appl_Task/Appl_Task.c ****         break;
 166:../01_Applcation/Appl_Task/Appl_Task.c ****     }
 167:../01_Applcation/Appl_Task/Appl_Task.c ****     case 2:
 168:../01_Applcation/Appl_Task/Appl_Task.c ****     {
 169:../01_Applcation/Appl_Task/Appl_Task.c ****         /* code */
 170:../01_Applcation/Appl_Task/Appl_Task.c ****         break;
 171:../01_Applcation/Appl_Task/Appl_Task.c ****     }
 172:../01_Applcation/Appl_Task/Appl_Task.c ****     case 3:
 173:../01_Applcation/Appl_Task/Appl_Task.c ****     {
 174:../01_Applcation/Appl_Task/Appl_Task.c ****         /* code */
 175:../01_Applcation/Appl_Task/Appl_Task.c ****         break;
 176:../01_Applcation/Appl_Task/Appl_Task.c ****     }
 177:../01_Applcation/Appl_Task/Appl_Task.c ****     case 4:
 178:../01_Applcation/Appl_Task/Appl_Task.c ****     {
 179:../01_Applcation/Appl_Task/Appl_Task.c ****         /* code */
 180:../01_Applcation/Appl_Task/Appl_Task.c ****         break;
 181:../01_Applcation/Appl_Task/Appl_Task.c ****     }
 182:../01_Applcation/Appl_Task/Appl_Task.c ****     case 5:
 183:../01_Applcation/Appl_Task/Appl_Task.c ****     {
 184:../01_Applcation/Appl_Task/Appl_Task.c ****         /* code */
 185:../01_Applcation/Appl_Task/Appl_Task.c ****         break;
 186:../01_Applcation/Appl_Task/Appl_Task.c ****     }
 187:../01_Applcation/Appl_Task/Appl_Task.c ****     case 6:
 188:../01_Applcation/Appl_Task/Appl_Task.c ****     {
ARM GAS  C:\Users\minde\AppData\Local\Temp\ccuaTphH.s 			page 6


 189:../01_Applcation/Appl_Task/Appl_Task.c ****         /* code */
 190:../01_Applcation/Appl_Task/Appl_Task.c ****         break;
 191:../01_Applcation/Appl_Task/Appl_Task.c ****     }
 192:../01_Applcation/Appl_Task/Appl_Task.c ****     case 7:
 193:../01_Applcation/Appl_Task/Appl_Task.c ****     {
 194:../01_Applcation/Appl_Task/Appl_Task.c ****         /* code */
 195:../01_Applcation/Appl_Task/Appl_Task.c ****         break;
 196:../01_Applcation/Appl_Task/Appl_Task.c ****     }
 197:../01_Applcation/Appl_Task/Appl_Task.c ****     case 8:
 198:../01_Applcation/Appl_Task/Appl_Task.c ****     {
 199:../01_Applcation/Appl_Task/Appl_Task.c ****         /* code */
 200:../01_Applcation/Appl_Task/Appl_Task.c ****         break;
 201:../01_Applcation/Appl_Task/Appl_Task.c ****     }
 202:../01_Applcation/Appl_Task/Appl_Task.c ****     case 9:
 203:../01_Applcation/Appl_Task/Appl_Task.c ****     {
 204:../01_Applcation/Appl_Task/Appl_Task.c ****         /* code */
 205:../01_Applcation/Appl_Task/Appl_Task.c ****         break;
 206:../01_Applcation/Appl_Task/Appl_Task.c ****     }
 207:../01_Applcation/Appl_Task/Appl_Task.c ****     case 10:
 208:../01_Applcation/Appl_Task/Appl_Task.c ****     {
 209:../01_Applcation/Appl_Task/Appl_Task.c ****         /* code */
 210:../01_Applcation/Appl_Task/Appl_Task.c ****         time_100ms=0;
 211:../01_Applcation/Appl_Task/Appl_Task.c ****         APPL_Task_1s();
 212:../01_Applcation/Appl_Task/Appl_Task.c ****         break;
 213:../01_Applcation/Appl_Task/Appl_Task.c ****     }
 214:../01_Applcation/Appl_Task/Appl_Task.c ****     }
 215:../01_Applcation/Appl_Task/Appl_Task.c **** }
 216:../01_Applcation/Appl_Task/Appl_Task.c **** 
 217:../01_Applcation/Appl_Task/Appl_Task.c **** /*******************************************************************************
 218:../01_Applcation/Appl_Task/Appl_Task.c ****  * Function: APPL_Task_1s
 219:../01_Applcation/Appl_Task/Appl_Task.c ****  *
 220:../01_Applcation/Appl_Task/Appl_Task.c ****  * Parameters:      -
 221:../01_Applcation/Appl_Task/Appl_Task.c ****  * Returned value:  -
 222:../01_Applcation/Appl_Task/Appl_Task.c ****  *
 223:../01_Applcation/Appl_Task/Appl_Task.c ****  * Description:
 224:../01_Applcation/Appl_Task/Appl_Task.c ****  *
 225:../01_Applcation/Appl_Task/Appl_Task.c ****  * Calling:
 226:../01_Applcation/Appl_Task/Appl_Task.c ****  ******************************************************************************/
 227:../01_Applcation/Appl_Task/Appl_Task.c **** void APPL_Task_1s(void)
 228:../01_Applcation/Appl_Task/Appl_Task.c **** {
  95              		.loc 1 228 1 is_stmt 1 view -0
  96              		.cfi_startproc
  97              		@ args = 0, pretend = 0, frame = 0
  98              		@ frame_needed = 0, uses_anonymous_args = 0
  99 0000 08B5     		push	{r3, lr}
 100              	.LCFI1:
 101              		.cfi_def_cfa_offset 8
 102              		.cfi_offset 3, -8
 103              		.cfi_offset 14, -4
 229:../01_Applcation/Appl_Task/Appl_Task.c ****     time_1s++;
 104              		.loc 1 229 5 view .LVU10
 105              		.loc 1 229 12 is_stmt 0 view .LVU11
 106 0002 074A     		ldr	r2, .L9
 107 0004 1378     		ldrb	r3, [r2]	@ zero_extendqisi2
 108 0006 0133     		adds	r3, r3, #1
 109 0008 DBB2     		uxtb	r3, r3
 110 000a 1370     		strb	r3, [r2]
ARM GAS  C:\Users\minde\AppData\Local\Temp\ccuaTphH.s 			page 7


 230:../01_Applcation/Appl_Task/Appl_Task.c ****     switch (time_1s)
 111              		.loc 1 230 5 is_stmt 1 view .LVU12
 112 000c 3C2B     		cmp	r3, #60
 113 000e 00D0     		beq	.L8
 114              	.L5:
 231:../01_Applcation/Appl_Task/Appl_Task.c ****     {
 232:../01_Applcation/Appl_Task/Appl_Task.c ****     case 1:
 233:../01_Applcation/Appl_Task/Appl_Task.c ****     {
 234:../01_Applcation/Appl_Task/Appl_Task.c ****         /* code */
 235:../01_Applcation/Appl_Task/Appl_Task.c ****         break;
 236:../01_Applcation/Appl_Task/Appl_Task.c ****     }
 237:../01_Applcation/Appl_Task/Appl_Task.c ****     case 2:
 238:../01_Applcation/Appl_Task/Appl_Task.c ****     {
 239:../01_Applcation/Appl_Task/Appl_Task.c ****         /* code */
 240:../01_Applcation/Appl_Task/Appl_Task.c ****         break;
 241:../01_Applcation/Appl_Task/Appl_Task.c ****     }
 242:../01_Applcation/Appl_Task/Appl_Task.c ****     case 3:
 243:../01_Applcation/Appl_Task/Appl_Task.c ****     {
 244:../01_Applcation/Appl_Task/Appl_Task.c ****         /* code */
 245:../01_Applcation/Appl_Task/Appl_Task.c ****         break;
 246:../01_Applcation/Appl_Task/Appl_Task.c ****     }
 247:../01_Applcation/Appl_Task/Appl_Task.c ****     case 4:
 248:../01_Applcation/Appl_Task/Appl_Task.c ****     {
 249:../01_Applcation/Appl_Task/Appl_Task.c ****         /* code */
 250:../01_Applcation/Appl_Task/Appl_Task.c ****         break;
 251:../01_Applcation/Appl_Task/Appl_Task.c ****     }
 252:../01_Applcation/Appl_Task/Appl_Task.c ****     case 5:
 253:../01_Applcation/Appl_Task/Appl_Task.c ****     {
 254:../01_Applcation/Appl_Task/Appl_Task.c ****         /* code */
 255:../01_Applcation/Appl_Task/Appl_Task.c ****         break;
 256:../01_Applcation/Appl_Task/Appl_Task.c ****     }
 257:../01_Applcation/Appl_Task/Appl_Task.c ****     case 6:
 258:../01_Applcation/Appl_Task/Appl_Task.c ****     {
 259:../01_Applcation/Appl_Task/Appl_Task.c ****         /* code */
 260:../01_Applcation/Appl_Task/Appl_Task.c ****         break;
 261:../01_Applcation/Appl_Task/Appl_Task.c ****     }
 262:../01_Applcation/Appl_Task/Appl_Task.c ****     case 7:
 263:../01_Applcation/Appl_Task/Appl_Task.c ****     {
 264:../01_Applcation/Appl_Task/Appl_Task.c ****         /* code */
 265:../01_Applcation/Appl_Task/Appl_Task.c ****         break;
 266:../01_Applcation/Appl_Task/Appl_Task.c ****     }
 267:../01_Applcation/Appl_Task/Appl_Task.c ****     case 8:
 268:../01_Applcation/Appl_Task/Appl_Task.c ****     {
 269:../01_Applcation/Appl_Task/Appl_Task.c ****         /* code */
 270:../01_Applcation/Appl_Task/Appl_Task.c ****         break;
 271:../01_Applcation/Appl_Task/Appl_Task.c ****     }
 272:../01_Applcation/Appl_Task/Appl_Task.c ****     case 9:
 273:../01_Applcation/Appl_Task/Appl_Task.c ****     {
 274:../01_Applcation/Appl_Task/Appl_Task.c ****         /* code */
 275:../01_Applcation/Appl_Task/Appl_Task.c ****         break;
 276:../01_Applcation/Appl_Task/Appl_Task.c ****     }
 277:../01_Applcation/Appl_Task/Appl_Task.c ****     case 60:
 278:../01_Applcation/Appl_Task/Appl_Task.c ****     {
 279:../01_Applcation/Appl_Task/Appl_Task.c ****         /* code */
 280:../01_Applcation/Appl_Task/Appl_Task.c ****         APPL_Data_RS485_Send();
 281:../01_Applcation/Appl_Task/Appl_Task.c ****         time_1s = 0;
 282:../01_Applcation/Appl_Task/Appl_Task.c ****         break;
ARM GAS  C:\Users\minde\AppData\Local\Temp\ccuaTphH.s 			page 8


 283:../01_Applcation/Appl_Task/Appl_Task.c ****     }
 284:../01_Applcation/Appl_Task/Appl_Task.c ****     }
 285:../01_Applcation/Appl_Task/Appl_Task.c **** }
 115              		.loc 1 285 1 is_stmt 0 view .LVU13
 116 0010 08BD     		pop	{r3, pc}
 117              	.L8:
 280:../01_Applcation/Appl_Task/Appl_Task.c ****         time_1s = 0;
 118              		.loc 1 280 9 is_stmt 1 view .LVU14
 119 0012 FFF7FEFF 		bl	APPL_Data_RS485_Send
 120              	.LVL7:
 281:../01_Applcation/Appl_Task/Appl_Task.c ****         break;
 121              		.loc 1 281 9 view .LVU15
 281:../01_Applcation/Appl_Task/Appl_Task.c ****         break;
 122              		.loc 1 281 17 is_stmt 0 view .LVU16
 123 0016 024B     		ldr	r3, .L9
 124 0018 0022     		movs	r2, #0
 125 001a 1A70     		strb	r2, [r3]
 282:../01_Applcation/Appl_Task/Appl_Task.c ****     }
 126              		.loc 1 282 9 is_stmt 1 view .LVU17
 127              		.loc 1 285 1 is_stmt 0 view .LVU18
 128 001c F8E7     		b	.L5
 129              	.L10:
 130 001e 00BF     		.align	2
 131              	.L9:
 132 0020 00000000 		.word	.LANCHOR0
 133              		.cfi_endproc
 134              	.LFE294:
 136              		.section	.text.APPL_Task_100ms,"ax",%progbits
 137              		.align	1
 138              		.global	APPL_Task_100ms
 139              		.syntax unified
 140              		.thumb
 141              		.thumb_func
 143              	APPL_Task_100ms:
 144              	.LFB293:
 157:../01_Applcation/Appl_Task/Appl_Task.c ****     time_100ms++;
 145              		.loc 1 157 1 is_stmt 1 view -0
 146              		.cfi_startproc
 147              		@ args = 0, pretend = 0, frame = 0
 148              		@ frame_needed = 0, uses_anonymous_args = 0
 149 0000 08B5     		push	{r3, lr}
 150              	.LCFI2:
 151              		.cfi_def_cfa_offset 8
 152              		.cfi_offset 3, -8
 153              		.cfi_offset 14, -4
 158:../01_Applcation/Appl_Task/Appl_Task.c ****     switch (time_100ms)
 154              		.loc 1 158 5 view .LVU20
 158:../01_Applcation/Appl_Task/Appl_Task.c ****     switch (time_100ms)
 155              		.loc 1 158 15 is_stmt 0 view .LVU21
 156 0002 094A     		ldr	r2, .L16
 157 0004 1378     		ldrb	r3, [r2]	@ zero_extendqisi2
 158 0006 0133     		adds	r3, r3, #1
 159 0008 DBB2     		uxtb	r3, r3
 160 000a 1370     		strb	r3, [r2]
 159:../01_Applcation/Appl_Task/Appl_Task.c ****     {
 161              		.loc 1 159 5 is_stmt 1 view .LVU22
 162 000c 012B     		cmp	r3, #1
ARM GAS  C:\Users\minde\AppData\Local\Temp\ccuaTphH.s 			page 9


 163 000e 02D0     		beq	.L12
 164 0010 0A2B     		cmp	r3, #10
 165 0012 03D0     		beq	.L13
 166              	.L11:
 215:../01_Applcation/Appl_Task/Appl_Task.c **** 
 167              		.loc 1 215 1 is_stmt 0 view .LVU23
 168 0014 08BD     		pop	{r3, pc}
 169              	.L12:
 164:../01_Applcation/Appl_Task/Appl_Task.c ****         break;
 170              		.loc 1 164 9 is_stmt 1 view .LVU24
 171 0016 FFF7FEFF 		bl	APPL_DMA_LTE_SIM7000G_Init
 172              	.LVL8:
 165:../01_Applcation/Appl_Task/Appl_Task.c ****     }
 173              		.loc 1 165 9 view .LVU25
 174 001a FBE7     		b	.L11
 175              	.L13:
 210:../01_Applcation/Appl_Task/Appl_Task.c ****         APPL_Task_1s();
 176              		.loc 1 210 9 view .LVU26
 210:../01_Applcation/Appl_Task/Appl_Task.c ****         APPL_Task_1s();
 177              		.loc 1 210 19 is_stmt 0 view .LVU27
 178 001c 024B     		ldr	r3, .L16
 179 001e 0022     		movs	r2, #0
 180 0020 1A70     		strb	r2, [r3]
 211:../01_Applcation/Appl_Task/Appl_Task.c ****         break;
 181              		.loc 1 211 9 is_stmt 1 view .LVU28
 182 0022 FFF7FEFF 		bl	APPL_Task_1s
 183              	.LVL9:
 212:../01_Applcation/Appl_Task/Appl_Task.c ****     }
 184              		.loc 1 212 9 view .LVU29
 215:../01_Applcation/Appl_Task/Appl_Task.c **** 
 185              		.loc 1 215 1 is_stmt 0 view .LVU30
 186 0026 F5E7     		b	.L11
 187              	.L17:
 188              		.align	2
 189              	.L16:
 190 0028 00000000 		.word	.LANCHOR1
 191              		.cfi_endproc
 192              	.LFE293:
 194              		.section	.text.APPL_Task_10ms,"ax",%progbits
 195              		.align	1
 196              		.global	APPL_Task_10ms
 197              		.syntax unified
 198              		.thumb
 199              		.thumb_func
 201              	APPL_Task_10ms:
 202              	.LFB292:
  81:../01_Applcation/Appl_Task/Appl_Task.c ****     time_10ms++;
 203              		.loc 1 81 1 is_stmt 1 view -0
 204              		.cfi_startproc
 205              		@ args = 0, pretend = 0, frame = 0
 206              		@ frame_needed = 0, uses_anonymous_args = 0
 207 0000 10B5     		push	{r4, lr}
 208              	.LCFI3:
 209              		.cfi_def_cfa_offset 8
 210              		.cfi_offset 4, -8
 211              		.cfi_offset 14, -4
  82:../01_Applcation/Appl_Task/Appl_Task.c ****     APPL_USB_LineProcess();
ARM GAS  C:\Users\minde\AppData\Local\Temp\ccuaTphH.s 			page 10


 212              		.loc 1 82 5 view .LVU32
  82:../01_Applcation/Appl_Task/Appl_Task.c ****     APPL_USB_LineProcess();
 213              		.loc 1 82 14 is_stmt 0 view .LVU33
 214 0002 0F4C     		ldr	r4, .L24
 215 0004 2378     		ldrb	r3, [r4]	@ zero_extendqisi2
 216 0006 0133     		adds	r3, r3, #1
 217 0008 2370     		strb	r3, [r4]
  83:../01_Applcation/Appl_Task/Appl_Task.c ****     switch (time_10ms)
 218              		.loc 1 83 5 is_stmt 1 view .LVU34
 219 000a FFF7FEFF 		bl	APPL_USB_LineProcess
 220              	.LVL10:
  84:../01_Applcation/Appl_Task/Appl_Task.c ****     {
 221              		.loc 1 84 5 view .LVU35
 222 000e 2378     		ldrb	r3, [r4]	@ zero_extendqisi2
 223 0010 022B     		cmp	r3, #2
 224 0012 09D0     		beq	.L19
 225 0014 0A2B     		cmp	r3, #10
 226 0016 0AD0     		beq	.L20
 227 0018 012B     		cmp	r3, #1
 228 001a 00D0     		beq	.L23
 229              	.L18:
 144:../01_Applcation/Appl_Task/Appl_Task.c **** 
 230              		.loc 1 144 1 is_stmt 0 view .LVU36
 231 001c 10BD     		pop	{r4, pc}
 232              	.L23:
  89:../01_Applcation/Appl_Task/Appl_Task.c ****         break;
 233              		.loc 1 89 9 is_stmt 1 view .LVU37
 234 001e 0221     		movs	r1, #2
 235 0020 0848     		ldr	r0, .L24+4
 236 0022 FFF7FEFF 		bl	HAL_GPIO_TogglePin
 237              	.LVL11:
  90:../01_Applcation/Appl_Task/Appl_Task.c ****     }
 238              		.loc 1 90 9 view .LVU38
 239 0026 F9E7     		b	.L18
 240              	.L19:
  95:../01_Applcation/Appl_Task/Appl_Task.c ****         break;
 241              		.loc 1 95 9 view .LVU39
 242 0028 FFF7FEFF 		bl	APPL_Data_MODBUS_Task
 243              	.LVL12:
  96:../01_Applcation/Appl_Task/Appl_Task.c ****     }
 244              		.loc 1 96 9 view .LVU40
 245 002c F6E7     		b	.L18
 246              	.L20:
 136:../01_Applcation/Appl_Task/Appl_Task.c ****         
 247              		.loc 1 136 9 view .LVU41
 248 002e FFF7FEFF 		bl	APPL_DMA_LTE_LineProcess
 249              	.LVL13:
 138:../01_Applcation/Appl_Task/Appl_Task.c ****         APPL_Task_100ms();
 250              		.loc 1 138 9 view .LVU42
 138:../01_Applcation/Appl_Task/Appl_Task.c ****         APPL_Task_100ms();
 251              		.loc 1 138 19 is_stmt 0 view .LVU43
 252 0032 034B     		ldr	r3, .L24
 253 0034 0022     		movs	r2, #0
 254 0036 1A70     		strb	r2, [r3]
 139:../01_Applcation/Appl_Task/Appl_Task.c ****         
 255              		.loc 1 139 9 is_stmt 1 view .LVU44
 256 0038 FFF7FEFF 		bl	APPL_Task_100ms
ARM GAS  C:\Users\minde\AppData\Local\Temp\ccuaTphH.s 			page 11


 257              	.LVL14:
 141:../01_Applcation/Appl_Task/Appl_Task.c ****     }
 258              		.loc 1 141 9 view .LVU45
 144:../01_Applcation/Appl_Task/Appl_Task.c **** 
 259              		.loc 1 144 1 is_stmt 0 view .LVU46
 260 003c EEE7     		b	.L18
 261              	.L25:
 262 003e 00BF     		.align	2
 263              	.L24:
 264 0040 00000000 		.word	.LANCHOR2
 265 0044 00040048 		.word	1207960576
 266              		.cfi_endproc
 267              	.LFE292:
 269              		.global	time_1s
 270              		.global	time_100ms
 271              		.global	time_10ms
 272              		.section	.bss.time_100ms,"aw",%nobits
 273              		.set	.LANCHOR1,. + 0
 276              	time_100ms:
 277 0000 00       		.space	1
 278              		.section	.bss.time_10ms,"aw",%nobits
 279              		.set	.LANCHOR2,. + 0
 282              	time_10ms:
 283 0000 00       		.space	1
 284              		.section	.bss.time_1s,"aw",%nobits
 285              		.set	.LANCHOR0,. + 0
 288              	time_1s:
 289 0000 00       		.space	1
 290              		.text
 291              	.Letext0:
 292              		.file 2 "c:\\gnuarm\\arm-none-eabi\\include\\machine\\_default_types.h"
 293              		.file 3 "c:\\gnuarm\\arm-none-eabi\\include\\sys\\_stdint.h"
 294              		.file 4 "../03_Drivers/CMSIS/Device/ST/STM32L4xx/Include/stm32l432xx.h"
 295              		.file 5 "../01_Applcation/Appl_Data/Appl_Data.h"
 296              		.file 6 "../01_Applcation/APPL_DMA_LTE/APPL_DMA_LTE.h"
 297              		.file 7 "../01_Applcation/Appl_USBService/Appl_USBService.h"
 298              		.file 8 "../03_Drivers/STM32L4xx_HAL_Driver/Inc/stm32l4xx_hal_gpio.h"
ARM GAS  C:\Users\minde\AppData\Local\Temp\ccuaTphH.s 			page 12


DEFINED SYMBOLS
                            *ABS*:00000000 Appl_Task.c
C:\Users\minde\AppData\Local\Temp\ccuaTphH.s:20     .rodata.APPL_Task_Init.str1.4:00000000 $d
C:\Users\minde\AppData\Local\Temp\ccuaTphH.s:30     .text.APPL_Task_Init:00000000 $t
C:\Users\minde\AppData\Local\Temp\ccuaTphH.s:36     .text.APPL_Task_Init:00000000 APPL_Task_Init
C:\Users\minde\AppData\Local\Temp\ccuaTphH.s:80     .text.APPL_Task_Init:00000030 $d
C:\Users\minde\AppData\Local\Temp\ccuaTphH.s:87     .text.APPL_Task_1s:00000000 $t
C:\Users\minde\AppData\Local\Temp\ccuaTphH.s:93     .text.APPL_Task_1s:00000000 APPL_Task_1s
C:\Users\minde\AppData\Local\Temp\ccuaTphH.s:132    .text.APPL_Task_1s:00000020 $d
C:\Users\minde\AppData\Local\Temp\ccuaTphH.s:137    .text.APPL_Task_100ms:00000000 $t
C:\Users\minde\AppData\Local\Temp\ccuaTphH.s:143    .text.APPL_Task_100ms:00000000 APPL_Task_100ms
C:\Users\minde\AppData\Local\Temp\ccuaTphH.s:190    .text.APPL_Task_100ms:00000028 $d
C:\Users\minde\AppData\Local\Temp\ccuaTphH.s:195    .text.APPL_Task_10ms:00000000 $t
C:\Users\minde\AppData\Local\Temp\ccuaTphH.s:201    .text.APPL_Task_10ms:00000000 APPL_Task_10ms
C:\Users\minde\AppData\Local\Temp\ccuaTphH.s:264    .text.APPL_Task_10ms:00000040 $d
C:\Users\minde\AppData\Local\Temp\ccuaTphH.s:288    .bss.time_1s:00000000 time_1s
C:\Users\minde\AppData\Local\Temp\ccuaTphH.s:276    .bss.time_100ms:00000000 time_100ms
C:\Users\minde\AppData\Local\Temp\ccuaTphH.s:282    .bss.time_10ms:00000000 time_10ms
C:\Users\minde\AppData\Local\Temp\ccuaTphH.s:277    .bss.time_100ms:00000000 $d
C:\Users\minde\AppData\Local\Temp\ccuaTphH.s:283    .bss.time_10ms:00000000 $d
C:\Users\minde\AppData\Local\Temp\ccuaTphH.s:289    .bss.time_1s:00000000 $d

UNDEFINED SYMBOLS
APPL_USB_Init
APPL_USB_printf
APPL_Data_Init
APPL_DMA_LTE_Init
HAL_GPIO_WritePin
APPL_Data_RS485_Send
APPL_DMA_LTE_SIM7000G_Init
APPL_USB_LineProcess
HAL_GPIO_TogglePin
APPL_Data_MODBUS_Task
APPL_DMA_LTE_LineProcess
