ARM GAS  C:\Users\minde\AppData\Local\Temp\ccleu24Z.s 			page 1


   1              		.cpu cortex-m4
   2              		.arch armv7e-m
   3              		.fpu fpv4-sp-d16
   4              		.eabi_attribute 27, 1
   5              		.eabi_attribute 28, 1
   6              		.eabi_attribute 20, 1
   7              		.eabi_attribute 21, 1
   8              		.eabi_attribute 23, 3
   9              		.eabi_attribute 24, 1
  10              		.eabi_attribute 25, 1
  11              		.eabi_attribute 26, 1
  12              		.eabi_attribute 30, 1
  13              		.eabi_attribute 34, 1
  14              		.eabi_attribute 18, 4
  15              		.file	"APPL_DMA_LTE.c"
  16              		.text
  17              	.Ltext0:
  18              		.cfi_sections	.debug_frame
  19              		.section	.text.APPL_DMA_LTE_OK,"ax",%progbits
  20              		.align	1
  21              		.global	APPL_DMA_LTE_OK
  22              		.syntax unified
  23              		.thumb
  24              		.thumb_func
  26              	APPL_DMA_LTE_OK:
  27              	.LVL0:
  28              	.LFB298:
  29              		.file 1 "../01_Applcation/APPL_DMA_LTE/APPL_DMA_LTE.c"
   1:../01_Applcation/APPL_DMA_LTE/APPL_DMA_LTE.c **** /*
   2:../01_Applcation/APPL_DMA_LTE/APPL_DMA_LTE.c ****  * APPL_DMA_LTE.c
   3:../01_Applcation/APPL_DMA_LTE/APPL_DMA_LTE.c ****  *
   4:../01_Applcation/APPL_DMA_LTE/APPL_DMA_LTE.c ****  * Created: 22/4/2022 1:46:27
   5:../01_Applcation/APPL_DMA_LTE/APPL_DMA_LTE.c ****  *  Author: Eakawit_kor
   6:../01_Applcation/APPL_DMA_LTE/APPL_DMA_LTE.c ****  */
   7:../01_Applcation/APPL_DMA_LTE/APPL_DMA_LTE.c **** 
   8:../01_Applcation/APPL_DMA_LTE/APPL_DMA_LTE.c **** #include <stdio.h>
   9:../01_Applcation/APPL_DMA_LTE/APPL_DMA_LTE.c **** #include <stdarg.h>
  10:../01_Applcation/APPL_DMA_LTE/APPL_DMA_LTE.c **** #include <stdlib.h>
  11:../01_Applcation/APPL_DMA_LTE/APPL_DMA_LTE.c **** #include <stdint.h>
  12:../01_Applcation/APPL_DMA_LTE/APPL_DMA_LTE.c **** #include <stdbool.h>
  13:../01_Applcation/APPL_DMA_LTE/APPL_DMA_LTE.c **** #include <string.h>
  14:../01_Applcation/APPL_DMA_LTE/APPL_DMA_LTE.c **** #include "main.h"
  15:../01_Applcation/APPL_DMA_LTE/APPL_DMA_LTE.c **** #include "usart.h"
  16:../01_Applcation/APPL_DMA_LTE/APPL_DMA_LTE.c **** #include "EKM_CMD.h"
  17:../01_Applcation/APPL_DMA_LTE/APPL_DMA_LTE.c **** #include "EKM_Buffer.h"
  18:../01_Applcation/APPL_DMA_LTE/APPL_DMA_LTE.c **** #include "APPL_DMA_LTE.h"
  19:../01_Applcation/APPL_DMA_LTE/APPL_DMA_LTE.c **** 
  20:../01_Applcation/APPL_DMA_LTE/APPL_DMA_LTE.c **** /*******************************************************************************
  21:../01_Applcation/APPL_DMA_LTE/APPL_DMA_LTE.c ****  *
  22:../01_Applcation/APPL_DMA_LTE/APPL_DMA_LTE.c ****  * DEFINE
  23:../01_Applcation/APPL_DMA_LTE/APPL_DMA_LTE.c ****  *
  24:../01_Applcation/APPL_DMA_LTE/APPL_DMA_LTE.c ****  ******************************************************************************/
  25:../01_Applcation/APPL_DMA_LTE/APPL_DMA_LTE.c **** 
  26:../01_Applcation/APPL_DMA_LTE/APPL_DMA_LTE.c **** #define APPL_DMA_LTE_BUFFER_MAX 128
  27:../01_Applcation/APPL_DMA_LTE/APPL_DMA_LTE.c **** 
  28:../01_Applcation/APPL_DMA_LTE/APPL_DMA_LTE.c **** //! Structure for an entry in the command list table.
  29:../01_Applcation/APPL_DMA_LTE/APPL_DMA_LTE.c **** 
ARM GAS  C:\Users\minde\AppData\Local\Temp\ccleu24Z.s 			page 2


  30:../01_Applcation/APPL_DMA_LTE/APPL_DMA_LTE.c **** typedef struct APPL_DMA_IOCON
  31:../01_Applcation/APPL_DMA_LTE/APPL_DMA_LTE.c **** {
  32:../01_Applcation/APPL_DMA_LTE/APPL_DMA_LTE.c **** 	uint16_t IOT_ID;
  33:../01_Applcation/APPL_DMA_LTE/APPL_DMA_LTE.c **** 	uint16_t MQTT_PORT;
  34:../01_Applcation/APPL_DMA_LTE/APPL_DMA_LTE.c **** 	uint8_t MQTT_IP0;
  35:../01_Applcation/APPL_DMA_LTE/APPL_DMA_LTE.c **** 	uint8_t MQTT_IP1;
  36:../01_Applcation/APPL_DMA_LTE/APPL_DMA_LTE.c **** 	uint8_t MQTT_IP2;
  37:../01_Applcation/APPL_DMA_LTE/APPL_DMA_LTE.c **** 	uint8_t MQTT_IP3;
  38:../01_Applcation/APPL_DMA_LTE/APPL_DMA_LTE.c **** 	char MQTT_USER[8];
  39:../01_Applcation/APPL_DMA_LTE/APPL_DMA_LTE.c **** 	char MQTT_PASS[8];
  40:../01_Applcation/APPL_DMA_LTE/APPL_DMA_LTE.c **** 
  41:../01_Applcation/APPL_DMA_LTE/APPL_DMA_LTE.c **** 	// Temperature
  42:../01_Applcation/APPL_DMA_LTE/APPL_DMA_LTE.c **** 	union
  43:../01_Applcation/APPL_DMA_LTE/APPL_DMA_LTE.c **** 	{
  44:../01_Applcation/APPL_DMA_LTE/APPL_DMA_LTE.c **** 		uint16_t Temperature;
  45:../01_Applcation/APPL_DMA_LTE/APPL_DMA_LTE.c **** 		struct
  46:../01_Applcation/APPL_DMA_LTE/APPL_DMA_LTE.c **** 		{
  47:../01_Applcation/APPL_DMA_LTE/APPL_DMA_LTE.c **** 			uint16_t TemperH : 8;
  48:../01_Applcation/APPL_DMA_LTE/APPL_DMA_LTE.c **** 			uint16_t TemperL : 8;
  49:../01_Applcation/APPL_DMA_LTE/APPL_DMA_LTE.c **** 		};
  50:../01_Applcation/APPL_DMA_LTE/APPL_DMA_LTE.c **** 	};
  51:../01_Applcation/APPL_DMA_LTE/APPL_DMA_LTE.c **** 
  52:../01_Applcation/APPL_DMA_LTE/APPL_DMA_LTE.c **** 	// Humidi
  53:../01_Applcation/APPL_DMA_LTE/APPL_DMA_LTE.c **** 	union
  54:../01_Applcation/APPL_DMA_LTE/APPL_DMA_LTE.c **** 	{
  55:../01_Applcation/APPL_DMA_LTE/APPL_DMA_LTE.c **** 		uint16_t Humidity;
  56:../01_Applcation/APPL_DMA_LTE/APPL_DMA_LTE.c **** 		struct
  57:../01_Applcation/APPL_DMA_LTE/APPL_DMA_LTE.c **** 		{
  58:../01_Applcation/APPL_DMA_LTE/APPL_DMA_LTE.c **** 			uint16_t HumidH : 8;
  59:../01_Applcation/APPL_DMA_LTE/APPL_DMA_LTE.c **** 			uint16_t HumidL : 8;
  60:../01_Applcation/APPL_DMA_LTE/APPL_DMA_LTE.c **** 		};
  61:../01_Applcation/APPL_DMA_LTE/APPL_DMA_LTE.c **** 	};
  62:../01_Applcation/APPL_DMA_LTE/APPL_DMA_LTE.c **** 
  63:../01_Applcation/APPL_DMA_LTE/APPL_DMA_LTE.c **** 	// Humidi
  64:../01_Applcation/APPL_DMA_LTE/APPL_DMA_LTE.c **** 	uint16_t Batt;
  65:../01_Applcation/APPL_DMA_LTE/APPL_DMA_LTE.c **** 
  66:../01_Applcation/APPL_DMA_LTE/APPL_DMA_LTE.c **** 	// IO
  67:../01_Applcation/APPL_DMA_LTE/APPL_DMA_LTE.c **** 	union
  68:../01_Applcation/APPL_DMA_LTE/APPL_DMA_LTE.c **** 	{
  69:../01_Applcation/APPL_DMA_LTE/APPL_DMA_LTE.c **** 		struct
  70:../01_Applcation/APPL_DMA_LTE/APPL_DMA_LTE.c **** 		{
  71:../01_Applcation/APPL_DMA_LTE/APPL_DMA_LTE.c **** 			uint8_t IN0 : 1;
  72:../01_Applcation/APPL_DMA_LTE/APPL_DMA_LTE.c **** 			uint8_t IN1 : 1;
  73:../01_Applcation/APPL_DMA_LTE/APPL_DMA_LTE.c **** 			uint8_t IN2 : 1;
  74:../01_Applcation/APPL_DMA_LTE/APPL_DMA_LTE.c **** 			uint8_t IN3 : 1;
  75:../01_Applcation/APPL_DMA_LTE/APPL_DMA_LTE.c **** 			uint8_t OUT0 : 1;
  76:../01_Applcation/APPL_DMA_LTE/APPL_DMA_LTE.c **** 			uint8_t OUT1 : 1;
  77:../01_Applcation/APPL_DMA_LTE/APPL_DMA_LTE.c **** 			uint8_t OUT2 : 1;
  78:../01_Applcation/APPL_DMA_LTE/APPL_DMA_LTE.c **** 			uint8_t OUT3 : 1;
  79:../01_Applcation/APPL_DMA_LTE/APPL_DMA_LTE.c **** 		};
  80:../01_Applcation/APPL_DMA_LTE/APPL_DMA_LTE.c **** 
  81:../01_Applcation/APPL_DMA_LTE/APPL_DMA_LTE.c **** 		struct
  82:../01_Applcation/APPL_DMA_LTE/APPL_DMA_LTE.c **** 		{
  83:../01_Applcation/APPL_DMA_LTE/APPL_DMA_LTE.c **** 			uint8_t DIN : 4;
  84:../01_Applcation/APPL_DMA_LTE/APPL_DMA_LTE.c **** 			uint8_t DOUT : 4;
  85:../01_Applcation/APPL_DMA_LTE/APPL_DMA_LTE.c **** 		};
  86:../01_Applcation/APPL_DMA_LTE/APPL_DMA_LTE.c **** 		uint8_t DIO;
ARM GAS  C:\Users\minde\AppData\Local\Temp\ccleu24Z.s 			page 3


  87:../01_Applcation/APPL_DMA_LTE/APPL_DMA_LTE.c **** 	};
  88:../01_Applcation/APPL_DMA_LTE/APPL_DMA_LTE.c **** 
  89:../01_Applcation/APPL_DMA_LTE/APPL_DMA_LTE.c **** 	// IO
  90:../01_Applcation/APPL_DMA_LTE/APPL_DMA_LTE.c **** 	union
  91:../01_Applcation/APPL_DMA_LTE/APPL_DMA_LTE.c **** 	{
  92:../01_Applcation/APPL_DMA_LTE/APPL_DMA_LTE.c **** 		struct
  93:../01_Applcation/APPL_DMA_LTE/APPL_DMA_LTE.c **** 		{
  94:../01_Applcation/APPL_DMA_LTE/APPL_DMA_LTE.c **** 			uint8_t ALMIN0 : 1;
  95:../01_Applcation/APPL_DMA_LTE/APPL_DMA_LTE.c **** 			uint8_t ALMIN1 : 1;
  96:../01_Applcation/APPL_DMA_LTE/APPL_DMA_LTE.c **** 			uint8_t ALMIN2 : 1;
  97:../01_Applcation/APPL_DMA_LTE/APPL_DMA_LTE.c **** 			uint8_t ALMIN3 : 1;
  98:../01_Applcation/APPL_DMA_LTE/APPL_DMA_LTE.c **** 			uint8_t ALMOUT0 : 1;
  99:../01_Applcation/APPL_DMA_LTE/APPL_DMA_LTE.c **** 			uint8_t ALMOUT1 : 1;
 100:../01_Applcation/APPL_DMA_LTE/APPL_DMA_LTE.c **** 			uint8_t ALMOUT2 : 1;
 101:../01_Applcation/APPL_DMA_LTE/APPL_DMA_LTE.c **** 			uint8_t ALMOUT3 : 1;
 102:../01_Applcation/APPL_DMA_LTE/APPL_DMA_LTE.c **** 		};
 103:../01_Applcation/APPL_DMA_LTE/APPL_DMA_LTE.c **** 
 104:../01_Applcation/APPL_DMA_LTE/APPL_DMA_LTE.c **** 		struct
 105:../01_Applcation/APPL_DMA_LTE/APPL_DMA_LTE.c **** 		{
 106:../01_Applcation/APPL_DMA_LTE/APPL_DMA_LTE.c **** 			uint8_t ALMIN : 4;
 107:../01_Applcation/APPL_DMA_LTE/APPL_DMA_LTE.c **** 			uint8_t ALMOUT : 4;
 108:../01_Applcation/APPL_DMA_LTE/APPL_DMA_LTE.c **** 		};
 109:../01_Applcation/APPL_DMA_LTE/APPL_DMA_LTE.c **** 		uint8_t ALMDIO;
 110:../01_Applcation/APPL_DMA_LTE/APPL_DMA_LTE.c **** 	};
 111:../01_Applcation/APPL_DMA_LTE/APPL_DMA_LTE.c **** 
 112:../01_Applcation/APPL_DMA_LTE/APPL_DMA_LTE.c **** 	// Analog Ch0
 113:../01_Applcation/APPL_DMA_LTE/APPL_DMA_LTE.c **** 	union
 114:../01_Applcation/APPL_DMA_LTE/APPL_DMA_LTE.c **** 	{
 115:../01_Applcation/APPL_DMA_LTE/APPL_DMA_LTE.c **** 		struct
 116:../01_Applcation/APPL_DMA_LTE/APPL_DMA_LTE.c **** 		{
 117:../01_Applcation/APPL_DMA_LTE/APPL_DMA_LTE.c **** 			uint16_t ANINH0 : 8;
 118:../01_Applcation/APPL_DMA_LTE/APPL_DMA_LTE.c **** 			uint16_t ANINL0 : 8;
 119:../01_Applcation/APPL_DMA_LTE/APPL_DMA_LTE.c **** 		};
 120:../01_Applcation/APPL_DMA_LTE/APPL_DMA_LTE.c **** 		uint16_t ANIN0;
 121:../01_Applcation/APPL_DMA_LTE/APPL_DMA_LTE.c **** 	};
 122:../01_Applcation/APPL_DMA_LTE/APPL_DMA_LTE.c **** 	// Analog Ch1
 123:../01_Applcation/APPL_DMA_LTE/APPL_DMA_LTE.c **** 	union
 124:../01_Applcation/APPL_DMA_LTE/APPL_DMA_LTE.c **** 	{
 125:../01_Applcation/APPL_DMA_LTE/APPL_DMA_LTE.c **** 		struct
 126:../01_Applcation/APPL_DMA_LTE/APPL_DMA_LTE.c **** 		{
 127:../01_Applcation/APPL_DMA_LTE/APPL_DMA_LTE.c **** 			uint16_t ANINH1 : 8;
 128:../01_Applcation/APPL_DMA_LTE/APPL_DMA_LTE.c **** 			uint16_t ANINL1 : 8;
 129:../01_Applcation/APPL_DMA_LTE/APPL_DMA_LTE.c **** 		};
 130:../01_Applcation/APPL_DMA_LTE/APPL_DMA_LTE.c **** 
 131:../01_Applcation/APPL_DMA_LTE/APPL_DMA_LTE.c **** 		uint16_t ANIN1;
 132:../01_Applcation/APPL_DMA_LTE/APPL_DMA_LTE.c **** 	};
 133:../01_Applcation/APPL_DMA_LTE/APPL_DMA_LTE.c **** 
 134:../01_Applcation/APPL_DMA_LTE/APPL_DMA_LTE.c **** 	// Analog Ch2
 135:../01_Applcation/APPL_DMA_LTE/APPL_DMA_LTE.c **** 	union
 136:../01_Applcation/APPL_DMA_LTE/APPL_DMA_LTE.c **** 	{
 137:../01_Applcation/APPL_DMA_LTE/APPL_DMA_LTE.c **** 		struct
 138:../01_Applcation/APPL_DMA_LTE/APPL_DMA_LTE.c **** 		{
 139:../01_Applcation/APPL_DMA_LTE/APPL_DMA_LTE.c **** 			uint16_t ANINH2 : 8;
 140:../01_Applcation/APPL_DMA_LTE/APPL_DMA_LTE.c **** 			uint16_t ANINL2 : 8;
 141:../01_Applcation/APPL_DMA_LTE/APPL_DMA_LTE.c **** 		};
 142:../01_Applcation/APPL_DMA_LTE/APPL_DMA_LTE.c **** 		uint16_t ANIN2;
 143:../01_Applcation/APPL_DMA_LTE/APPL_DMA_LTE.c **** 	};
ARM GAS  C:\Users\minde\AppData\Local\Temp\ccleu24Z.s 			page 4


 144:../01_Applcation/APPL_DMA_LTE/APPL_DMA_LTE.c **** 
 145:../01_Applcation/APPL_DMA_LTE/APPL_DMA_LTE.c **** 	// Analog Ch3
 146:../01_Applcation/APPL_DMA_LTE/APPL_DMA_LTE.c **** 	union
 147:../01_Applcation/APPL_DMA_LTE/APPL_DMA_LTE.c **** 	{
 148:../01_Applcation/APPL_DMA_LTE/APPL_DMA_LTE.c **** 		struct
 149:../01_Applcation/APPL_DMA_LTE/APPL_DMA_LTE.c **** 		{
 150:../01_Applcation/APPL_DMA_LTE/APPL_DMA_LTE.c **** 			uint16_t ANINH3 : 8;
 151:../01_Applcation/APPL_DMA_LTE/APPL_DMA_LTE.c **** 			uint16_t ANINL3 : 8;
 152:../01_Applcation/APPL_DMA_LTE/APPL_DMA_LTE.c **** 		};
 153:../01_Applcation/APPL_DMA_LTE/APPL_DMA_LTE.c **** 		uint16_t ANIN3;
 154:../01_Applcation/APPL_DMA_LTE/APPL_DMA_LTE.c **** 	};
 155:../01_Applcation/APPL_DMA_LTE/APPL_DMA_LTE.c **** } APPL_DMA_IOCON_t;
 156:../01_Applcation/APPL_DMA_LTE/APPL_DMA_LTE.c **** 
 157:../01_Applcation/APPL_DMA_LTE/APPL_DMA_LTE.c **** //*****************************************************************************
 158:../01_Applcation/APPL_DMA_LTE/APPL_DMA_LTE.c **** 
 159:../01_Applcation/APPL_DMA_LTE/APPL_DMA_LTE.c **** // Prototypes for the APIs.
 160:../01_Applcation/APPL_DMA_LTE/APPL_DMA_LTE.c **** 
 161:../01_Applcation/APPL_DMA_LTE/APPL_DMA_LTE.c **** //*****************************************************************************
 162:../01_Applcation/APPL_DMA_LTE/APPL_DMA_LTE.c **** 
 163:../01_Applcation/APPL_DMA_LTE/APPL_DMA_LTE.c **** APPL_DMA_IOCON_t APPL_DMA_IOCON_d;
 164:../01_Applcation/APPL_DMA_LTE/APPL_DMA_LTE.c **** 
 165:../01_Applcation/APPL_DMA_LTE/APPL_DMA_LTE.c **** /*******************************************************************************
 166:../01_Applcation/APPL_DMA_LTE/APPL_DMA_LTE.c ****  *
 167:../01_Applcation/APPL_DMA_LTE/APPL_DMA_LTE.c ****  * PRIVATE VARIABLE
 168:../01_Applcation/APPL_DMA_LTE/APPL_DMA_LTE.c ****  *
 169:../01_Applcation/APPL_DMA_LTE/APPL_DMA_LTE.c ****  ******************************************************************************/
 170:../01_Applcation/APPL_DMA_LTE/APPL_DMA_LTE.c **** int APPL_DMA_LTE_SIM7000G_Init_Stage = 0;
 171:../01_Applcation/APPL_DMA_LTE/APPL_DMA_LTE.c **** uint16_t APPL_DMA_LTE_SIM7000G_ErrorCount = 0;
 172:../01_Applcation/APPL_DMA_LTE/APPL_DMA_LTE.c **** uint16_t APPL_DMA_LTE_TimemerCount = 0;
 173:../01_Applcation/APPL_DMA_LTE/APPL_DMA_LTE.c **** 
 174:../01_Applcation/APPL_DMA_LTE/APPL_DMA_LTE.c **** int APPL_DMA_LTE_MQTT_ONLINE = 0;
 175:../01_Applcation/APPL_DMA_LTE/APPL_DMA_LTE.c **** 
 176:../01_Applcation/APPL_DMA_LTE/APPL_DMA_LTE.c **** uint8_t APPL_DMA_LTE_Buffer_d[APPL_DMA_LTE_BUFFER_MAX];
 177:../01_Applcation/APPL_DMA_LTE/APPL_DMA_LTE.c **** EKM_Buffer_t APPL_DMA_LTE_Buffer;
 178:../01_Applcation/APPL_DMA_LTE/APPL_DMA_LTE.c **** 
 179:../01_Applcation/APPL_DMA_LTE/APPL_DMA_LTE.c **** void APPL_DMA_LTE_Init(void);
 180:../01_Applcation/APPL_DMA_LTE/APPL_DMA_LTE.c **** void APPL_DMA_LTE_SIM7000G_Init(void);
 181:../01_Applcation/APPL_DMA_LTE/APPL_DMA_LTE.c **** void APPL_DMA_LTE_printf(const char *format, ...);
 182:../01_Applcation/APPL_DMA_LTE/APPL_DMA_LTE.c **** void APPL_DMA_LTE_MQTT_PUBLISH(const char *MQTT_Topic, const char *format, ...);
 183:../01_Applcation/APPL_DMA_LTE/APPL_DMA_LTE.c **** void APPL_DMA_LTE_LineProcess(void);
 184:../01_Applcation/APPL_DMA_LTE/APPL_DMA_LTE.c **** void APPL_DMA_LTE_SIM7000G_Error_Handel(void);
 185:../01_Applcation/APPL_DMA_LTE/APPL_DMA_LTE.c **** 
 186:../01_Applcation/APPL_DMA_LTE/APPL_DMA_LTE.c **** EKM_CMD_tCmdLineEntry APPL_DMA_LTE_CMD_Sok;
 187:../01_Applcation/APPL_DMA_LTE/APPL_DMA_LTE.c **** EKM_CMD_tCmdLineEntry APPL_DMA_LTE_CMD_OK;
 188:../01_Applcation/APPL_DMA_LTE/APPL_DMA_LTE.c **** EKM_CMD_tCmdLineEntry APPL_DMA_LTE_CMD_Error;
 189:../01_Applcation/APPL_DMA_LTE/APPL_DMA_LTE.c **** EKM_CMD_tCmdLineEntry APPL_DMA_LTE_CMD_APP;
 190:../01_Applcation/APPL_DMA_LTE/APPL_DMA_LTE.c **** EKM_CMD_tCmdLineEntry APPL_DMA_LTE_CMD_PAPP;
 191:../01_Applcation/APPL_DMA_LTE/APPL_DMA_LTE.c **** 
 192:../01_Applcation/APPL_DMA_LTE/APPL_DMA_LTE.c **** int APPL_DMA_LTE_OK(int argc, char *argv[]);
 193:../01_Applcation/APPL_DMA_LTE/APPL_DMA_LTE.c **** int APPL_DMA_LTE_Error(int argc, char *argv[]);
 194:../01_Applcation/APPL_DMA_LTE/APPL_DMA_LTE.c **** int APPL_DMA_LTE_APP(int argc, char *argv[]);
 195:../01_Applcation/APPL_DMA_LTE/APPL_DMA_LTE.c **** 
 196:../01_Applcation/APPL_DMA_LTE/APPL_DMA_LTE.c **** 
 197:../01_Applcation/APPL_DMA_LTE/APPL_DMA_LTE.c **** /*******************************************************************************
 198:../01_Applcation/APPL_DMA_LTE/APPL_DMA_LTE.c **** * Function: APPL_DMA_IOCON_Init
 199:../01_Applcation/APPL_DMA_LTE/APPL_DMA_LTE.c **** *
 200:../01_Applcation/APPL_DMA_LTE/APPL_DMA_LTE.c **** * Parameters:      -
ARM GAS  C:\Users\minde\AppData\Local\Temp\ccleu24Z.s 			page 5


 201:../01_Applcation/APPL_DMA_LTE/APPL_DMA_LTE.c **** * Returned value:  -
 202:../01_Applcation/APPL_DMA_LTE/APPL_DMA_LTE.c **** *
 203:../01_Applcation/APPL_DMA_LTE/APPL_DMA_LTE.c **** * Description:
 204:../01_Applcation/APPL_DMA_LTE/APPL_DMA_LTE.c **** *
 205:../01_Applcation/APPL_DMA_LTE/APPL_DMA_LTE.c **** * Calling:
 206:../01_Applcation/APPL_DMA_LTE/APPL_DMA_LTE.c **** ******************************************************************************/
 207:../01_Applcation/APPL_DMA_LTE/APPL_DMA_LTE.c **** 
 208:../01_Applcation/APPL_DMA_LTE/APPL_DMA_LTE.c **** void APPL_DMA_IOCON_Init(void){
 209:../01_Applcation/APPL_DMA_LTE/APPL_DMA_LTE.c ****        // Information for Device
 210:../01_Applcation/APPL_DMA_LTE/APPL_DMA_LTE.c ****        APPL_DMA_IOCON_d.IOT_ID = 2;
 211:../01_Applcation/APPL_DMA_LTE/APPL_DMA_LTE.c ****        APPL_DMA_IOCON_d.MQTT_IP0 = 203;
 212:../01_Applcation/APPL_DMA_LTE/APPL_DMA_LTE.c ****        APPL_DMA_IOCON_d.MQTT_IP1 = 151;
 213:../01_Applcation/APPL_DMA_LTE/APPL_DMA_LTE.c ****        APPL_DMA_IOCON_d.MQTT_IP2 = 79;
 214:../01_Applcation/APPL_DMA_LTE/APPL_DMA_LTE.c ****        APPL_DMA_IOCON_d.MQTT_IP3 = 149;
 215:../01_Applcation/APPL_DMA_LTE/APPL_DMA_LTE.c ****        APPL_DMA_IOCON_d.MQTT_PORT = 1883;
 216:../01_Applcation/APPL_DMA_LTE/APPL_DMA_LTE.c ****        strcpy(APPL_DMA_IOCON_d.MQTT_USER, "1111");
 217:../01_Applcation/APPL_DMA_LTE/APPL_DMA_LTE.c ****        strcpy(APPL_DMA_IOCON_d.MQTT_PASS, "1111");
 218:../01_Applcation/APPL_DMA_LTE/APPL_DMA_LTE.c **** 
 219:../01_Applcation/APPL_DMA_LTE/APPL_DMA_LTE.c ****        // IO Init
 220:../01_Applcation/APPL_DMA_LTE/APPL_DMA_LTE.c **** 
 221:../01_Applcation/APPL_DMA_LTE/APPL_DMA_LTE.c ****        APPL_DMA_IOCON_d.DIO = 0x00;
 222:../01_Applcation/APPL_DMA_LTE/APPL_DMA_LTE.c ****        // ADC init
 223:../01_Applcation/APPL_DMA_LTE/APPL_DMA_LTE.c ****        APPL_DMA_IOCON_d.ANIN0 = 0x0000;
 224:../01_Applcation/APPL_DMA_LTE/APPL_DMA_LTE.c ****        APPL_DMA_IOCON_d.ANIN1 = 0x0000;
 225:../01_Applcation/APPL_DMA_LTE/APPL_DMA_LTE.c ****        APPL_DMA_IOCON_d.ANIN2 = 0x3000;
 226:../01_Applcation/APPL_DMA_LTE/APPL_DMA_LTE.c ****        APPL_DMA_IOCON_d.ANIN3 = 0x4fff;
 227:../01_Applcation/APPL_DMA_LTE/APPL_DMA_LTE.c **** 
 228:../01_Applcation/APPL_DMA_LTE/APPL_DMA_LTE.c ****        // Batterry
 229:../01_Applcation/APPL_DMA_LTE/APPL_DMA_LTE.c ****        APPL_DMA_IOCON_d.Batt = 0;
 230:../01_Applcation/APPL_DMA_LTE/APPL_DMA_LTE.c **** 
 231:../01_Applcation/APPL_DMA_LTE/APPL_DMA_LTE.c ****        // temp & Humid init
 232:../01_Applcation/APPL_DMA_LTE/APPL_DMA_LTE.c ****        APPL_DMA_IOCON_d.Temperature = 0;
 233:../01_Applcation/APPL_DMA_LTE/APPL_DMA_LTE.c ****        APPL_DMA_IOCON_d.Humidity = 0;
 234:../01_Applcation/APPL_DMA_LTE/APPL_DMA_LTE.c **** }
 235:../01_Applcation/APPL_DMA_LTE/APPL_DMA_LTE.c **** 
 236:../01_Applcation/APPL_DMA_LTE/APPL_DMA_LTE.c **** 
 237:../01_Applcation/APPL_DMA_LTE/APPL_DMA_LTE.c **** 
 238:../01_Applcation/APPL_DMA_LTE/APPL_DMA_LTE.c **** /*******************************************************************************
 239:../01_Applcation/APPL_DMA_LTE/APPL_DMA_LTE.c ****  * Function: APPL_DMA_LTE_Init
 240:../01_Applcation/APPL_DMA_LTE/APPL_DMA_LTE.c ****  *
 241:../01_Applcation/APPL_DMA_LTE/APPL_DMA_LTE.c ****  * Parameters:      -
 242:../01_Applcation/APPL_DMA_LTE/APPL_DMA_LTE.c ****  * Returned value:  -
 243:../01_Applcation/APPL_DMA_LTE/APPL_DMA_LTE.c ****  *
 244:../01_Applcation/APPL_DMA_LTE/APPL_DMA_LTE.c ****  * Description:
 245:../01_Applcation/APPL_DMA_LTE/APPL_DMA_LTE.c ****  *
 246:../01_Applcation/APPL_DMA_LTE/APPL_DMA_LTE.c ****  * Calling:
 247:../01_Applcation/APPL_DMA_LTE/APPL_DMA_LTE.c ****  ******************************************************************************/
 248:../01_Applcation/APPL_DMA_LTE/APPL_DMA_LTE.c **** void APPL_DMA_LTE_Init(void)
 249:../01_Applcation/APPL_DMA_LTE/APPL_DMA_LTE.c **** {
 250:../01_Applcation/APPL_DMA_LTE/APPL_DMA_LTE.c **** 	APPL_DMA_LTE_MQTT_ONLINE = 0;
 251:../01_Applcation/APPL_DMA_LTE/APPL_DMA_LTE.c **** 	APPL_DMA_LTE_SIM7000G_ErrorCount = 0;
 252:../01_Applcation/APPL_DMA_LTE/APPL_DMA_LTE.c **** 	EKM_Buffer_Setup(&APPL_DMA_LTE_Buffer, APPL_DMA_LTE_BUFFER_MAX, APPL_DMA_LTE_Buffer_d);
 253:../01_Applcation/APPL_DMA_LTE/APPL_DMA_LTE.c **** 	EKM_Buffer_Reset(&APPL_DMA_LTE_Buffer);
 254:../01_Applcation/APPL_DMA_LTE/APPL_DMA_LTE.c **** 
 255:../01_Applcation/APPL_DMA_LTE/APPL_DMA_LTE.c **** 	APPL_DMA_LTE_CMD_OK.EKM_CMD_pcCmd = "ok";
 256:../01_Applcation/APPL_DMA_LTE/APPL_DMA_LTE.c **** 	APPL_DMA_LTE_CMD_OK.EKM_CMD_pcHelp = "ok function";
 257:../01_Applcation/APPL_DMA_LTE/APPL_DMA_LTE.c **** 	APPL_DMA_LTE_CMD_OK.EKM_CMD_pfnCmd = &APPL_DMA_LTE_OK;
ARM GAS  C:\Users\minde\AppData\Local\Temp\ccleu24Z.s 			page 6


 258:../01_Applcation/APPL_DMA_LTE/APPL_DMA_LTE.c **** 	APPL_DMA_LTE_CMD_OK.next = &APPL_DMA_LTE_CMD_Sok;
 259:../01_Applcation/APPL_DMA_LTE/APPL_DMA_LTE.c **** 
 260:../01_Applcation/APPL_DMA_LTE/APPL_DMA_LTE.c **** 	APPL_DMA_LTE_CMD_Sok.EKM_CMD_pcCmd = "OK";
 261:../01_Applcation/APPL_DMA_LTE/APPL_DMA_LTE.c **** 	APPL_DMA_LTE_CMD_Sok.EKM_CMD_pcHelp = "ok function";
 262:../01_Applcation/APPL_DMA_LTE/APPL_DMA_LTE.c **** 	APPL_DMA_LTE_CMD_Sok.EKM_CMD_pfnCmd = &APPL_DMA_LTE_OK;
 263:../01_Applcation/APPL_DMA_LTE/APPL_DMA_LTE.c **** 	APPL_DMA_LTE_CMD_Sok.next = &APPL_DMA_LTE_CMD_Error;
 264:../01_Applcation/APPL_DMA_LTE/APPL_DMA_LTE.c **** 
 265:../01_Applcation/APPL_DMA_LTE/APPL_DMA_LTE.c **** 	APPL_DMA_LTE_CMD_Error.EKM_CMD_pcCmd = "error";
 266:../01_Applcation/APPL_DMA_LTE/APPL_DMA_LTE.c **** 	APPL_DMA_LTE_CMD_Error.EKM_CMD_pcHelp = "error function";
 267:../01_Applcation/APPL_DMA_LTE/APPL_DMA_LTE.c **** 	APPL_DMA_LTE_CMD_Error.EKM_CMD_pfnCmd = &APPL_DMA_LTE_Error;
 268:../01_Applcation/APPL_DMA_LTE/APPL_DMA_LTE.c **** 	APPL_DMA_LTE_CMD_Error.next = &APPL_DMA_LTE_CMD_PAPP;
 269:../01_Applcation/APPL_DMA_LTE/APPL_DMA_LTE.c **** 
 270:../01_Applcation/APPL_DMA_LTE/APPL_DMA_LTE.c **** 	APPL_DMA_LTE_CMD_PAPP.EKM_CMD_pcCmd = "+APP";
 271:../01_Applcation/APPL_DMA_LTE/APPL_DMA_LTE.c **** 	APPL_DMA_LTE_CMD_PAPP.EKM_CMD_pcHelp = "+APP Disable";
 272:../01_Applcation/APPL_DMA_LTE/APPL_DMA_LTE.c **** 	APPL_DMA_LTE_CMD_PAPP.EKM_CMD_pfnCmd = &APPL_DMA_LTE_APP;
 273:../01_Applcation/APPL_DMA_LTE/APPL_DMA_LTE.c **** 	APPL_DMA_LTE_CMD_PAPP.next = &APPL_DMA_LTE_CMD_APP;
 274:../01_Applcation/APPL_DMA_LTE/APPL_DMA_LTE.c **** 
 275:../01_Applcation/APPL_DMA_LTE/APPL_DMA_LTE.c **** 	APPL_DMA_LTE_CMD_APP.EKM_CMD_pcCmd = "APP";
 276:../01_Applcation/APPL_DMA_LTE/APPL_DMA_LTE.c **** 	APPL_DMA_LTE_CMD_APP.EKM_CMD_pcHelp = "APP Disable";
 277:../01_Applcation/APPL_DMA_LTE/APPL_DMA_LTE.c **** 	APPL_DMA_LTE_CMD_APP.EKM_CMD_pfnCmd = &APPL_DMA_LTE_APP;
 278:../01_Applcation/APPL_DMA_LTE/APPL_DMA_LTE.c **** 	APPL_DMA_LTE_CMD_APP.next = (void *)0;
 279:../01_Applcation/APPL_DMA_LTE/APPL_DMA_LTE.c **** 	/// Test run
 280:../01_Applcation/APPL_DMA_LTE/APPL_DMA_LTE.c **** 	APPL_DMA_IOCON_Init();
 281:../01_Applcation/APPL_DMA_LTE/APPL_DMA_LTE.c **** }
 282:../01_Applcation/APPL_DMA_LTE/APPL_DMA_LTE.c **** 
 283:../01_Applcation/APPL_DMA_LTE/APPL_DMA_LTE.c **** /*******************************************************************************
 284:../01_Applcation/APPL_DMA_LTE/APPL_DMA_LTE.c ****  * Function: APPL_DMA_LTE_printString
 285:../01_Applcation/APPL_DMA_LTE/APPL_DMA_LTE.c ****  *
 286:../01_Applcation/APPL_DMA_LTE/APPL_DMA_LTE.c ****  * Parameters:      -
 287:../01_Applcation/APPL_DMA_LTE/APPL_DMA_LTE.c ****  * Returned value:  -
 288:../01_Applcation/APPL_DMA_LTE/APPL_DMA_LTE.c ****  *
 289:../01_Applcation/APPL_DMA_LTE/APPL_DMA_LTE.c ****  * Description:
 290:../01_Applcation/APPL_DMA_LTE/APPL_DMA_LTE.c ****  *
 291:../01_Applcation/APPL_DMA_LTE/APPL_DMA_LTE.c ****  * Calling:
 292:../01_Applcation/APPL_DMA_LTE/APPL_DMA_LTE.c ****  ******************************************************************************/
 293:../01_Applcation/APPL_DMA_LTE/APPL_DMA_LTE.c **** /*void APPL_DMA_LTE_printString(const uint8_t myString[]) {
 294:../01_Applcation/APPL_DMA_LTE/APPL_DMA_LTE.c **** 	uint8_t i = 0;
 295:../01_Applcation/APPL_DMA_LTE/APPL_DMA_LTE.c **** 	while (myString[i]) {
 296:../01_Applcation/APPL_DMA_LTE/APPL_DMA_LTE.c **** 		while (!(REG_USART0_CSR & US_CSR_TXRDY));
 297:../01_Applcation/APPL_DMA_LTE/APPL_DMA_LTE.c **** 		while (!(REG_USART0_CSR & US_CSR_TXEMPTY));
 298:../01_Applcation/APPL_DMA_LTE/APPL_DMA_LTE.c **** 		REG_USART0_THR |=myString[i];
 299:../01_Applcation/APPL_DMA_LTE/APPL_DMA_LTE.c **** 		i++;
 300:../01_Applcation/APPL_DMA_LTE/APPL_DMA_LTE.c **** 	}
 301:../01_Applcation/APPL_DMA_LTE/APPL_DMA_LTE.c **** }
 302:../01_Applcation/APPL_DMA_LTE/APPL_DMA_LTE.c **** */
 303:../01_Applcation/APPL_DMA_LTE/APPL_DMA_LTE.c **** /*******************************************************************************
 304:../01_Applcation/APPL_DMA_LTE/APPL_DMA_LTE.c ****  * Function: APPL_DMA_LTE_printf
 305:../01_Applcation/APPL_DMA_LTE/APPL_DMA_LTE.c ****  *
 306:../01_Applcation/APPL_DMA_LTE/APPL_DMA_LTE.c ****  * Parameters:      -
 307:../01_Applcation/APPL_DMA_LTE/APPL_DMA_LTE.c ****  * Returned value:  -
 308:../01_Applcation/APPL_DMA_LTE/APPL_DMA_LTE.c ****  *
 309:../01_Applcation/APPL_DMA_LTE/APPL_DMA_LTE.c ****  * Description:
 310:../01_Applcation/APPL_DMA_LTE/APPL_DMA_LTE.c ****  *
 311:../01_Applcation/APPL_DMA_LTE/APPL_DMA_LTE.c ****  * Calling:
 312:../01_Applcation/APPL_DMA_LTE/APPL_DMA_LTE.c ****  ******************************************************************************/
 313:../01_Applcation/APPL_DMA_LTE/APPL_DMA_LTE.c **** void APPL_DMA_LTE_printf(const char *format, ...)
 314:../01_Applcation/APPL_DMA_LTE/APPL_DMA_LTE.c **** {
ARM GAS  C:\Users\minde\AppData\Local\Temp\ccleu24Z.s 			page 7


 315:../01_Applcation/APPL_DMA_LTE/APPL_DMA_LTE.c **** 	// there was an error reading.
 316:../01_Applcation/APPL_DMA_LTE/APPL_DMA_LTE.c **** 	uint8_t SerialBuffer[100];
 317:../01_Applcation/APPL_DMA_LTE/APPL_DMA_LTE.c **** 	memset(SerialBuffer, 0, 100);
 318:../01_Applcation/APPL_DMA_LTE/APPL_DMA_LTE.c **** 	va_list args;
 319:../01_Applcation/APPL_DMA_LTE/APPL_DMA_LTE.c **** 	va_start(args, format);
 320:../01_Applcation/APPL_DMA_LTE/APPL_DMA_LTE.c **** 	vsprintf((char *)SerialBuffer, format, args);
 321:../01_Applcation/APPL_DMA_LTE/APPL_DMA_LTE.c **** 	va_end(args);
 322:../01_Applcation/APPL_DMA_LTE/APPL_DMA_LTE.c **** 	HAL_UART_Transmit(&huart1, SerialBuffer, strlen((char *)SerialBuffer), 10);
 323:../01_Applcation/APPL_DMA_LTE/APPL_DMA_LTE.c **** 	// APPL_DMA_LTE_printString(SerialBuffer);
 324:../01_Applcation/APPL_DMA_LTE/APPL_DMA_LTE.c **** }
 325:../01_Applcation/APPL_DMA_LTE/APPL_DMA_LTE.c **** 
 326:../01_Applcation/APPL_DMA_LTE/APPL_DMA_LTE.c **** /*******************************************************************************
 327:../01_Applcation/APPL_DMA_LTE/APPL_DMA_LTE.c ****  * Function: APPL_LTE_MQTT_PUBLISH
 328:../01_Applcation/APPL_DMA_LTE/APPL_DMA_LTE.c ****  *
 329:../01_Applcation/APPL_DMA_LTE/APPL_DMA_LTE.c ****  * Parameters:      -
 330:../01_Applcation/APPL_DMA_LTE/APPL_DMA_LTE.c ****  * Returned value:  -
 331:../01_Applcation/APPL_DMA_LTE/APPL_DMA_LTE.c ****  *
 332:../01_Applcation/APPL_DMA_LTE/APPL_DMA_LTE.c ****  * Description:
 333:../01_Applcation/APPL_DMA_LTE/APPL_DMA_LTE.c ****  *
 334:../01_Applcation/APPL_DMA_LTE/APPL_DMA_LTE.c ****  * Calling:
 335:../01_Applcation/APPL_DMA_LTE/APPL_DMA_LTE.c ****  ******************************************************************************/
 336:../01_Applcation/APPL_DMA_LTE/APPL_DMA_LTE.c **** void APPL_LTE_MQTT_PUBLISH(const char *MQTT_Topic, const char *format, ...)
 337:../01_Applcation/APPL_DMA_LTE/APPL_DMA_LTE.c **** {
 338:../01_Applcation/APPL_DMA_LTE/APPL_DMA_LTE.c **** 	if (APPL_DMA_LTE_MQTT_ONLINE == 1)
 339:../01_Applcation/APPL_DMA_LTE/APPL_DMA_LTE.c **** 	{
 340:../01_Applcation/APPL_DMA_LTE/APPL_DMA_LTE.c **** 		// there was an error reading.
 341:../01_Applcation/APPL_DMA_LTE/APPL_DMA_LTE.c **** 		uint8_t SerialBuffer[100];
 342:../01_Applcation/APPL_DMA_LTE/APPL_DMA_LTE.c **** 		memset(SerialBuffer, 0, 100);
 343:../01_Applcation/APPL_DMA_LTE/APPL_DMA_LTE.c **** 		va_list args;
 344:../01_Applcation/APPL_DMA_LTE/APPL_DMA_LTE.c **** 		va_start(args, format);
 345:../01_Applcation/APPL_DMA_LTE/APPL_DMA_LTE.c **** 		vsprintf((char *)SerialBuffer, format, args);
 346:../01_Applcation/APPL_DMA_LTE/APPL_DMA_LTE.c **** 		va_end(args);
 347:../01_Applcation/APPL_DMA_LTE/APPL_DMA_LTE.c **** 		APPL_DMA_LTE_printf("AT+SMPUB=\"UUCON/%d/%s\",%d,0,0\r\n", APPL_DMA_IOCON_d.IOT_ID, MQTT_Topic, s
 348:../01_Applcation/APPL_DMA_LTE/APPL_DMA_LTE.c **** 		APPL_DMA_LTE_printf("%s\r\n", SerialBuffer);
 349:../01_Applcation/APPL_DMA_LTE/APPL_DMA_LTE.c **** 	}
 350:../01_Applcation/APPL_DMA_LTE/APPL_DMA_LTE.c **** }
 351:../01_Applcation/APPL_DMA_LTE/APPL_DMA_LTE.c **** 
 352:../01_Applcation/APPL_DMA_LTE/APPL_DMA_LTE.c **** /*******************************************************************************
 353:../01_Applcation/APPL_DMA_LTE/APPL_DMA_LTE.c ****  * Function: APPL_DMA_LTE_SIM7000G_Init
 354:../01_Applcation/APPL_DMA_LTE/APPL_DMA_LTE.c ****  *
 355:../01_Applcation/APPL_DMA_LTE/APPL_DMA_LTE.c ****  * Parameters:      -
 356:../01_Applcation/APPL_DMA_LTE/APPL_DMA_LTE.c ****  * Returned value:  -
 357:../01_Applcation/APPL_DMA_LTE/APPL_DMA_LTE.c ****  *
 358:../01_Applcation/APPL_DMA_LTE/APPL_DMA_LTE.c ****  * Description:
 359:../01_Applcation/APPL_DMA_LTE/APPL_DMA_LTE.c ****  *
 360:../01_Applcation/APPL_DMA_LTE/APPL_DMA_LTE.c ****  * Calling:
 361:../01_Applcation/APPL_DMA_LTE/APPL_DMA_LTE.c ****  ******************************************************************************/
 362:../01_Applcation/APPL_DMA_LTE/APPL_DMA_LTE.c **** void APPL_DMA_LTE_SIM7000G_Init(void)
 363:../01_Applcation/APPL_DMA_LTE/APPL_DMA_LTE.c **** {
 364:../01_Applcation/APPL_DMA_LTE/APPL_DMA_LTE.c **** 	// APPL_DMA_RS485_printf("Stage of LTE = %d\n\r",APPL_DMA_LTE_SIM7000G_Init_Stage);
 365:../01_Applcation/APPL_DMA_LTE/APPL_DMA_LTE.c **** 	switch (APPL_DMA_LTE_SIM7000G_Init_Stage)
 366:../01_Applcation/APPL_DMA_LTE/APPL_DMA_LTE.c **** 	{
 367:../01_Applcation/APPL_DMA_LTE/APPL_DMA_LTE.c **** 	case 0:
 368:../01_Applcation/APPL_DMA_LTE/APPL_DMA_LTE.c **** 	{
 369:../01_Applcation/APPL_DMA_LTE/APPL_DMA_LTE.c **** 		// REG_PIOA_CODR |= PIO_PER_P29; //set PA11 low (LED Off)
 370:../01_Applcation/APPL_DMA_LTE/APPL_DMA_LTE.c **** 		asm("nop");
 371:../01_Applcation/APPL_DMA_LTE/APPL_DMA_LTE.c **** 		asm("nop");
ARM GAS  C:\Users\minde\AppData\Local\Temp\ccleu24Z.s 			page 8


 372:../01_Applcation/APPL_DMA_LTE/APPL_DMA_LTE.c **** 		asm("nop");
 373:../01_Applcation/APPL_DMA_LTE/APPL_DMA_LTE.c **** 		asm("nop");
 374:../01_Applcation/APPL_DMA_LTE/APPL_DMA_LTE.c **** 		// REG_PIOA_SODR |= PIO_PER_P29; //set PA11 high (LED on)
 375:../01_Applcation/APPL_DMA_LTE/APPL_DMA_LTE.c **** 		APPL_DMA_LTE_SIM7000G_Init_Stage++;
 376:../01_Applcation/APPL_DMA_LTE/APPL_DMA_LTE.c **** 		break;
 377:../01_Applcation/APPL_DMA_LTE/APPL_DMA_LTE.c **** 	}
 378:../01_Applcation/APPL_DMA_LTE/APPL_DMA_LTE.c **** 	case 1:
 379:../01_Applcation/APPL_DMA_LTE/APPL_DMA_LTE.c **** 	{
 380:../01_Applcation/APPL_DMA_LTE/APPL_DMA_LTE.c **** 		// wait to enable 15 sec
 381:../01_Applcation/APPL_DMA_LTE/APPL_DMA_LTE.c **** 		APPL_DMA_LTE_TimemerCount++;
 382:../01_Applcation/APPL_DMA_LTE/APPL_DMA_LTE.c **** 		if (APPL_DMA_LTE_TimemerCount == 15)
 383:../01_Applcation/APPL_DMA_LTE/APPL_DMA_LTE.c **** 		{
 384:../01_Applcation/APPL_DMA_LTE/APPL_DMA_LTE.c **** 			APPL_DMA_LTE_SIM7000G_Init_Stage++;
 385:../01_Applcation/APPL_DMA_LTE/APPL_DMA_LTE.c **** 			APPL_DMA_LTE_TimemerCount = 0;
 386:../01_Applcation/APPL_DMA_LTE/APPL_DMA_LTE.c **** 		}
 387:../01_Applcation/APPL_DMA_LTE/APPL_DMA_LTE.c **** 		break;
 388:../01_Applcation/APPL_DMA_LTE/APPL_DMA_LTE.c **** 	}
 389:../01_Applcation/APPL_DMA_LTE/APPL_DMA_LTE.c **** 	case 2:
 390:../01_Applcation/APPL_DMA_LTE/APPL_DMA_LTE.c **** 	{
 391:../01_Applcation/APPL_DMA_LTE/APPL_DMA_LTE.c **** 		// wait to enable 15 sec
 392:../01_Applcation/APPL_DMA_LTE/APPL_DMA_LTE.c **** 		APPL_DMA_LTE_printf("AT\r\n");
 393:../01_Applcation/APPL_DMA_LTE/APPL_DMA_LTE.c **** 		APPL_DMA_LTE_SIM7000G_ErrorCount++;
 394:../01_Applcation/APPL_DMA_LTE/APPL_DMA_LTE.c **** 		break;
 395:../01_Applcation/APPL_DMA_LTE/APPL_DMA_LTE.c **** 	}
 396:../01_Applcation/APPL_DMA_LTE/APPL_DMA_LTE.c **** 	case 3:
 397:../01_Applcation/APPL_DMA_LTE/APPL_DMA_LTE.c **** 	{
 398:../01_Applcation/APPL_DMA_LTE/APPL_DMA_LTE.c **** 		APPL_DMA_LTE_printf("ATE0\r\n");
 399:../01_Applcation/APPL_DMA_LTE/APPL_DMA_LTE.c **** 		APPL_DMA_LTE_SIM7000G_Init_Stage++;
 400:../01_Applcation/APPL_DMA_LTE/APPL_DMA_LTE.c **** 		break;
 401:../01_Applcation/APPL_DMA_LTE/APPL_DMA_LTE.c **** 	}
 402:../01_Applcation/APPL_DMA_LTE/APPL_DMA_LTE.c **** 	case 5:
 403:../01_Applcation/APPL_DMA_LTE/APPL_DMA_LTE.c **** 	{
 404:../01_Applcation/APPL_DMA_LTE/APPL_DMA_LTE.c **** 		APPL_DMA_LTE_printf("AT+SMCONF=\"CLIENTID\",\"id\"\r\n");
 405:../01_Applcation/APPL_DMA_LTE/APPL_DMA_LTE.c **** 		APPL_DMA_LTE_SIM7000G_Init_Stage++;
 406:../01_Applcation/APPL_DMA_LTE/APPL_DMA_LTE.c **** 		break;
 407:../01_Applcation/APPL_DMA_LTE/APPL_DMA_LTE.c **** 	}
 408:../01_Applcation/APPL_DMA_LTE/APPL_DMA_LTE.c **** 	case 7:
 409:../01_Applcation/APPL_DMA_LTE/APPL_DMA_LTE.c **** 	{
 410:../01_Applcation/APPL_DMA_LTE/APPL_DMA_LTE.c **** 		APPL_DMA_LTE_printf("AT+SMCONF=\"KEEPTIME\",60\r\n");
 411:../01_Applcation/APPL_DMA_LTE/APPL_DMA_LTE.c **** 		APPL_DMA_LTE_SIM7000G_Init_Stage++;
 412:../01_Applcation/APPL_DMA_LTE/APPL_DMA_LTE.c **** 		break;
 413:../01_Applcation/APPL_DMA_LTE/APPL_DMA_LTE.c **** 	}
 414:../01_Applcation/APPL_DMA_LTE/APPL_DMA_LTE.c **** 	case 9:
 415:../01_Applcation/APPL_DMA_LTE/APPL_DMA_LTE.c **** 	{
 416:../01_Applcation/APPL_DMA_LTE/APPL_DMA_LTE.c **** 		APPL_DMA_LTE_printf("AT+SMCONF=\"URL\",\"%d.%d.%d.%d\",\"%d\"\r\n",
 417:../01_Applcation/APPL_DMA_LTE/APPL_DMA_LTE.c **** 							APPL_DMA_IOCON_d.MQTT_IP0,
 418:../01_Applcation/APPL_DMA_LTE/APPL_DMA_LTE.c **** 							APPL_DMA_IOCON_d.MQTT_IP1,
 419:../01_Applcation/APPL_DMA_LTE/APPL_DMA_LTE.c **** 							APPL_DMA_IOCON_d.MQTT_IP2,
 420:../01_Applcation/APPL_DMA_LTE/APPL_DMA_LTE.c **** 							APPL_DMA_IOCON_d.MQTT_IP3,
 421:../01_Applcation/APPL_DMA_LTE/APPL_DMA_LTE.c **** 							APPL_DMA_IOCON_d.MQTT_PORT);
 422:../01_Applcation/APPL_DMA_LTE/APPL_DMA_LTE.c **** 		APPL_DMA_LTE_SIM7000G_Init_Stage++;
 423:../01_Applcation/APPL_DMA_LTE/APPL_DMA_LTE.c **** 		break;
 424:../01_Applcation/APPL_DMA_LTE/APPL_DMA_LTE.c **** 	}
 425:../01_Applcation/APPL_DMA_LTE/APPL_DMA_LTE.c **** 	case 11:
 426:../01_Applcation/APPL_DMA_LTE/APPL_DMA_LTE.c **** 	{
 427:../01_Applcation/APPL_DMA_LTE/APPL_DMA_LTE.c **** 		APPL_DMA_LTE_printf("AT+SMCONF=\"USERNAME\",\"%s\"\r\n", APPL_DMA_IOCON_d.MQTT_USER);
 428:../01_Applcation/APPL_DMA_LTE/APPL_DMA_LTE.c **** 		APPL_DMA_LTE_SIM7000G_Init_Stage++;
ARM GAS  C:\Users\minde\AppData\Local\Temp\ccleu24Z.s 			page 9


 429:../01_Applcation/APPL_DMA_LTE/APPL_DMA_LTE.c **** 		break;
 430:../01_Applcation/APPL_DMA_LTE/APPL_DMA_LTE.c **** 	}
 431:../01_Applcation/APPL_DMA_LTE/APPL_DMA_LTE.c **** 	case 13:
 432:../01_Applcation/APPL_DMA_LTE/APPL_DMA_LTE.c **** 	{
 433:../01_Applcation/APPL_DMA_LTE/APPL_DMA_LTE.c **** 		APPL_DMA_LTE_printf("AT+SMCONF=\"PASSWORD\",\"%s\"\r\n", APPL_DMA_IOCON_d.MQTT_PASS);
 434:../01_Applcation/APPL_DMA_LTE/APPL_DMA_LTE.c **** 		APPL_DMA_LTE_SIM7000G_Init_Stage++;
 435:../01_Applcation/APPL_DMA_LTE/APPL_DMA_LTE.c **** 		break;
 436:../01_Applcation/APPL_DMA_LTE/APPL_DMA_LTE.c **** 	}
 437:../01_Applcation/APPL_DMA_LTE/APPL_DMA_LTE.c **** 	case 15:
 438:../01_Applcation/APPL_DMA_LTE/APPL_DMA_LTE.c **** 	{
 439:../01_Applcation/APPL_DMA_LTE/APPL_DMA_LTE.c **** 		APPL_DMA_LTE_printf("AT+SMCONF=\"CLEANSS\",1\r\n");
 440:../01_Applcation/APPL_DMA_LTE/APPL_DMA_LTE.c **** 		APPL_DMA_LTE_SIM7000G_Init_Stage++;
 441:../01_Applcation/APPL_DMA_LTE/APPL_DMA_LTE.c **** 		break;
 442:../01_Applcation/APPL_DMA_LTE/APPL_DMA_LTE.c **** 	}
 443:../01_Applcation/APPL_DMA_LTE/APPL_DMA_LTE.c **** 	case 17:
 444:../01_Applcation/APPL_DMA_LTE/APPL_DMA_LTE.c **** 	{
 445:../01_Applcation/APPL_DMA_LTE/APPL_DMA_LTE.c **** 		APPL_DMA_LTE_printf("AT+SMCONF=\"QOS\",0\r\n");
 446:../01_Applcation/APPL_DMA_LTE/APPL_DMA_LTE.c **** 		APPL_DMA_LTE_SIM7000G_Init_Stage++;
 447:../01_Applcation/APPL_DMA_LTE/APPL_DMA_LTE.c **** 		break;
 448:../01_Applcation/APPL_DMA_LTE/APPL_DMA_LTE.c **** 	}
 449:../01_Applcation/APPL_DMA_LTE/APPL_DMA_LTE.c **** 	case 19:
 450:../01_Applcation/APPL_DMA_LTE/APPL_DMA_LTE.c **** 	{
 451:../01_Applcation/APPL_DMA_LTE/APPL_DMA_LTE.c **** 		APPL_DMA_LTE_printf("AT+SMCONF=\"RETAIN\",0\r\n");
 452:../01_Applcation/APPL_DMA_LTE/APPL_DMA_LTE.c **** 		APPL_DMA_LTE_SIM7000G_Init_Stage++;
 453:../01_Applcation/APPL_DMA_LTE/APPL_DMA_LTE.c **** 		break;
 454:../01_Applcation/APPL_DMA_LTE/APPL_DMA_LTE.c **** 	}
 455:../01_Applcation/APPL_DMA_LTE/APPL_DMA_LTE.c **** 	case 21:
 456:../01_Applcation/APPL_DMA_LTE/APPL_DMA_LTE.c **** 	{
 457:../01_Applcation/APPL_DMA_LTE/APPL_DMA_LTE.c **** 		APPL_DMA_LTE_printf("AT+CMNB=3\r\n");
 458:../01_Applcation/APPL_DMA_LTE/APPL_DMA_LTE.c **** 		APPL_DMA_LTE_SIM7000G_Init_Stage++;
 459:../01_Applcation/APPL_DMA_LTE/APPL_DMA_LTE.c **** 		break;
 460:../01_Applcation/APPL_DMA_LTE/APPL_DMA_LTE.c **** 	}
 461:../01_Applcation/APPL_DMA_LTE/APPL_DMA_LTE.c **** 	case 23:
 462:../01_Applcation/APPL_DMA_LTE/APPL_DMA_LTE.c **** 	{
 463:../01_Applcation/APPL_DMA_LTE/APPL_DMA_LTE.c **** 		APPL_DMA_LTE_printf("AT+CNACT=1,\"cmnet\"\r\n");
 464:../01_Applcation/APPL_DMA_LTE/APPL_DMA_LTE.c **** 		APPL_DMA_LTE_SIM7000G_Init_Stage++;
 465:../01_Applcation/APPL_DMA_LTE/APPL_DMA_LTE.c **** 		break;
 466:../01_Applcation/APPL_DMA_LTE/APPL_DMA_LTE.c **** 	}
 467:../01_Applcation/APPL_DMA_LTE/APPL_DMA_LTE.c **** 	case 25:
 468:../01_Applcation/APPL_DMA_LTE/APPL_DMA_LTE.c **** 	{
 469:../01_Applcation/APPL_DMA_LTE/APPL_DMA_LTE.c **** 		// APPL_DMA_LTE_MQTT_ONLINE = 1;
 470:../01_Applcation/APPL_DMA_LTE/APPL_DMA_LTE.c **** 		APPL_DMA_LTE_SIM7000G_ErrorCount = 0;
 471:../01_Applcation/APPL_DMA_LTE/APPL_DMA_LTE.c **** 		APPL_DMA_LTE_SIM7000G_Init_Stage++;
 472:../01_Applcation/APPL_DMA_LTE/APPL_DMA_LTE.c **** 		break;
 473:../01_Applcation/APPL_DMA_LTE/APPL_DMA_LTE.c **** 	}
 474:../01_Applcation/APPL_DMA_LTE/APPL_DMA_LTE.c **** 	case 27:
 475:../01_Applcation/APPL_DMA_LTE/APPL_DMA_LTE.c **** 	{
 476:../01_Applcation/APPL_DMA_LTE/APPL_DMA_LTE.c **** 		// Wait for LTE EN
 477:../01_Applcation/APPL_DMA_LTE/APPL_DMA_LTE.c **** 		break;
 478:../01_Applcation/APPL_DMA_LTE/APPL_DMA_LTE.c **** 	}
 479:../01_Applcation/APPL_DMA_LTE/APPL_DMA_LTE.c **** 	default:
 480:../01_Applcation/APPL_DMA_LTE/APPL_DMA_LTE.c **** 	{
 481:../01_Applcation/APPL_DMA_LTE/APPL_DMA_LTE.c **** 		APPL_DMA_LTE_SIM7000G_ErrorCount++;
 482:../01_Applcation/APPL_DMA_LTE/APPL_DMA_LTE.c **** 		break;
 483:../01_Applcation/APPL_DMA_LTE/APPL_DMA_LTE.c **** 	}
 484:../01_Applcation/APPL_DMA_LTE/APPL_DMA_LTE.c **** 	}
 485:../01_Applcation/APPL_DMA_LTE/APPL_DMA_LTE.c **** 	APPL_DMA_LTE_SIM7000G_Error_Handel();
ARM GAS  C:\Users\minde\AppData\Local\Temp\ccleu24Z.s 			page 10


 486:../01_Applcation/APPL_DMA_LTE/APPL_DMA_LTE.c **** }
 487:../01_Applcation/APPL_DMA_LTE/APPL_DMA_LTE.c **** 
 488:../01_Applcation/APPL_DMA_LTE/APPL_DMA_LTE.c **** /*******************************************************************************
 489:../01_Applcation/APPL_DMA_LTE/APPL_DMA_LTE.c ****  * Function: APPL_DMA_LTE_SIM7000G_Error_Handel
 490:../01_Applcation/APPL_DMA_LTE/APPL_DMA_LTE.c ****  *
 491:../01_Applcation/APPL_DMA_LTE/APPL_DMA_LTE.c ****  * Parameters:      -
 492:../01_Applcation/APPL_DMA_LTE/APPL_DMA_LTE.c ****  * Returned value:  -
 493:../01_Applcation/APPL_DMA_LTE/APPL_DMA_LTE.c ****  *
 494:../01_Applcation/APPL_DMA_LTE/APPL_DMA_LTE.c ****  * Description:
 495:../01_Applcation/APPL_DMA_LTE/APPL_DMA_LTE.c ****  *
 496:../01_Applcation/APPL_DMA_LTE/APPL_DMA_LTE.c ****  * Calling:
 497:../01_Applcation/APPL_DMA_LTE/APPL_DMA_LTE.c ****  ******************************************************************************/
 498:../01_Applcation/APPL_DMA_LTE/APPL_DMA_LTE.c **** void APPL_DMA_LTE_SIM7000G_Error_Handel(void)
 499:../01_Applcation/APPL_DMA_LTE/APPL_DMA_LTE.c **** {
 500:../01_Applcation/APPL_DMA_LTE/APPL_DMA_LTE.c **** 	if (APPL_DMA_LTE_SIM7000G_ErrorCount >= 30)
 501:../01_Applcation/APPL_DMA_LTE/APPL_DMA_LTE.c **** 	{
 502:../01_Applcation/APPL_DMA_LTE/APPL_DMA_LTE.c **** 		// APPL_DMA_LTE_printf("Error Handel event \n\r");
 503:../01_Applcation/APPL_DMA_LTE/APPL_DMA_LTE.c **** 		APPL_DMA_LTE_SIM7000G_Init_Stage = 0;
 504:../01_Applcation/APPL_DMA_LTE/APPL_DMA_LTE.c **** 		APPL_DMA_LTE_SIM7000G_ErrorCount = 0;
 505:../01_Applcation/APPL_DMA_LTE/APPL_DMA_LTE.c **** 	}
 506:../01_Applcation/APPL_DMA_LTE/APPL_DMA_LTE.c **** }
 507:../01_Applcation/APPL_DMA_LTE/APPL_DMA_LTE.c **** 
 508:../01_Applcation/APPL_DMA_LTE/APPL_DMA_LTE.c **** /*******************************************************************************
 509:../01_Applcation/APPL_DMA_LTE/APPL_DMA_LTE.c ****  * Function: APPL_DMA_LTE_LineProcess
 510:../01_Applcation/APPL_DMA_LTE/APPL_DMA_LTE.c ****  *
 511:../01_Applcation/APPL_DMA_LTE/APPL_DMA_LTE.c ****  * Parameters:      -
 512:../01_Applcation/APPL_DMA_LTE/APPL_DMA_LTE.c ****  * Returned value:  -
 513:../01_Applcation/APPL_DMA_LTE/APPL_DMA_LTE.c ****  *
 514:../01_Applcation/APPL_DMA_LTE/APPL_DMA_LTE.c ****  * Description:
 515:../01_Applcation/APPL_DMA_LTE/APPL_DMA_LTE.c ****  *
 516:../01_Applcation/APPL_DMA_LTE/APPL_DMA_LTE.c ****  * Calling:
 517:../01_Applcation/APPL_DMA_LTE/APPL_DMA_LTE.c ****  ******************************************************************************/
 518:../01_Applcation/APPL_DMA_LTE/APPL_DMA_LTE.c **** void APPL_DMA_LTE_LineProcess(void)
 519:../01_Applcation/APPL_DMA_LTE/APPL_DMA_LTE.c **** {
 520:../01_Applcation/APPL_DMA_LTE/APPL_DMA_LTE.c **** 	// APPL_DMA_LTE_printf("Command = %s", APPL_DMA_RS48_Rx.buffer);
 521:../01_Applcation/APPL_DMA_LTE/APPL_DMA_LTE.c **** 	if (EKM_CMD_RXPeek(APPL_DMA_LTE_Buffer.buffer, 0x0A, APPL_DMA_LTE_Buffer.write) > 0)
 522:../01_Applcation/APPL_DMA_LTE/APPL_DMA_LTE.c **** 	{
 523:../01_Applcation/APPL_DMA_LTE/APPL_DMA_LTE.c **** 		// APPL_DMA_RS485_printf("Command = %s", APPL_DMA_LTE_Buffer.buffer);
 524:../01_Applcation/APPL_DMA_LTE/APPL_DMA_LTE.c **** 		if (EKM_CMD_LineProcess((char *)APPL_DMA_LTE_Buffer.buffer, &APPL_DMA_LTE_CMD_OK, ' ') == EKM_CMD
 525:../01_Applcation/APPL_DMA_LTE/APPL_DMA_LTE.c **** 			// APPL_DMA_LTE_printf("Command not found");
 526:../01_Applcation/APPL_DMA_LTE/APPL_DMA_LTE.c **** 			EKM_Buffer_Reset(&APPL_DMA_LTE_Buffer);
 527:../01_Applcation/APPL_DMA_LTE/APPL_DMA_LTE.c **** 	}
 528:../01_Applcation/APPL_DMA_LTE/APPL_DMA_LTE.c **** }
 529:../01_Applcation/APPL_DMA_LTE/APPL_DMA_LTE.c **** 
 530:../01_Applcation/APPL_DMA_LTE/APPL_DMA_LTE.c **** /*******************************************************************************
 531:../01_Applcation/APPL_DMA_LTE/APPL_DMA_LTE.c ****  * Function: APPL_DMA_LTE_OK
 532:../01_Applcation/APPL_DMA_LTE/APPL_DMA_LTE.c ****  *
 533:../01_Applcation/APPL_DMA_LTE/APPL_DMA_LTE.c ****  * Parameters:      -
 534:../01_Applcation/APPL_DMA_LTE/APPL_DMA_LTE.c ****  * Returned value:  -
 535:../01_Applcation/APPL_DMA_LTE/APPL_DMA_LTE.c ****  *
 536:../01_Applcation/APPL_DMA_LTE/APPL_DMA_LTE.c ****  * Description:
 537:../01_Applcation/APPL_DMA_LTE/APPL_DMA_LTE.c ****  *
 538:../01_Applcation/APPL_DMA_LTE/APPL_DMA_LTE.c ****  * Calling:
 539:../01_Applcation/APPL_DMA_LTE/APPL_DMA_LTE.c ****  ******************************************************************************/
 540:../01_Applcation/APPL_DMA_LTE/APPL_DMA_LTE.c **** int APPL_DMA_LTE_OK(int argc, char *argv[])
 541:../01_Applcation/APPL_DMA_LTE/APPL_DMA_LTE.c **** {
  30              		.loc 1 541 1 view -0
ARM GAS  C:\Users\minde\AppData\Local\Temp\ccleu24Z.s 			page 11


  31              		.cfi_startproc
  32              		@ args = 0, pretend = 0, frame = 0
  33              		@ frame_needed = 0, uses_anonymous_args = 0
  34              		@ link register save eliminated.
 542:../01_Applcation/APPL_DMA_LTE/APPL_DMA_LTE.c **** 	APPL_DMA_LTE_SIM7000G_ErrorCount = 0;
  35              		.loc 1 542 2 view .LVU1
  36              		.loc 1 542 35 is_stmt 0 view .LVU2
  37 0000 054B     		ldr	r3, .L3
  38 0002 0022     		movs	r2, #0
  39 0004 1A80     		strh	r2, [r3]	@ movhi
 543:../01_Applcation/APPL_DMA_LTE/APPL_DMA_LTE.c **** 	if (APPL_DMA_LTE_SIM7000G_Init_Stage < 27)
  40              		.loc 1 543 2 is_stmt 1 view .LVU3
  41              		.loc 1 543 39 is_stmt 0 view .LVU4
  42 0006 054B     		ldr	r3, .L3+4
  43 0008 1B68     		ldr	r3, [r3]
  44              		.loc 1 543 5 view .LVU5
  45 000a 1A2B     		cmp	r3, #26
  46 000c 02DC     		bgt	.L2
 544:../01_Applcation/APPL_DMA_LTE/APPL_DMA_LTE.c **** 	{
 545:../01_Applcation/APPL_DMA_LTE/APPL_DMA_LTE.c **** 		APPL_DMA_LTE_SIM7000G_Init_Stage++;
  47              		.loc 1 545 3 is_stmt 1 view .LVU6
  48              		.loc 1 545 35 is_stmt 0 view .LVU7
  49 000e 0133     		adds	r3, r3, #1
  50 0010 024A     		ldr	r2, .L3+4
  51 0012 1360     		str	r3, [r2]
  52              	.L2:
 546:../01_Applcation/APPL_DMA_LTE/APPL_DMA_LTE.c **** 	}
 547:../01_Applcation/APPL_DMA_LTE/APPL_DMA_LTE.c **** 	return 0;
  53              		.loc 1 547 2 is_stmt 1 view .LVU8
 548:../01_Applcation/APPL_DMA_LTE/APPL_DMA_LTE.c **** }
  54              		.loc 1 548 1 is_stmt 0 view .LVU9
  55 0014 0020     		movs	r0, #0
  56              	.LVL1:
  57              		.loc 1 548 1 view .LVU10
  58 0016 7047     		bx	lr
  59              	.L4:
  60              		.align	2
  61              	.L3:
  62 0018 00000000 		.word	.LANCHOR0
  63 001c 00000000 		.word	.LANCHOR1
  64              		.cfi_endproc
  65              	.LFE298:
  67              		.section	.text.APPL_DMA_LTE_Error,"ax",%progbits
  68              		.align	1
  69              		.global	APPL_DMA_LTE_Error
  70              		.syntax unified
  71              		.thumb
  72              		.thumb_func
  74              	APPL_DMA_LTE_Error:
  75              	.LVL2:
  76              	.LFB299:
 549:../01_Applcation/APPL_DMA_LTE/APPL_DMA_LTE.c **** 
 550:../01_Applcation/APPL_DMA_LTE/APPL_DMA_LTE.c **** /*******************************************************************************
 551:../01_Applcation/APPL_DMA_LTE/APPL_DMA_LTE.c ****  * Function: APPL_DMA_LTE_Error
 552:../01_Applcation/APPL_DMA_LTE/APPL_DMA_LTE.c ****  *
 553:../01_Applcation/APPL_DMA_LTE/APPL_DMA_LTE.c ****  * Parameters:      -
 554:../01_Applcation/APPL_DMA_LTE/APPL_DMA_LTE.c ****  * Returned value:  -
ARM GAS  C:\Users\minde\AppData\Local\Temp\ccleu24Z.s 			page 12


 555:../01_Applcation/APPL_DMA_LTE/APPL_DMA_LTE.c ****  *
 556:../01_Applcation/APPL_DMA_LTE/APPL_DMA_LTE.c ****  * Description:
 557:../01_Applcation/APPL_DMA_LTE/APPL_DMA_LTE.c ****  *
 558:../01_Applcation/APPL_DMA_LTE/APPL_DMA_LTE.c ****  * Calling:
 559:../01_Applcation/APPL_DMA_LTE/APPL_DMA_LTE.c ****  ******************************************************************************/
 560:../01_Applcation/APPL_DMA_LTE/APPL_DMA_LTE.c **** int APPL_DMA_LTE_Error(int argc, char *argv[])
 561:../01_Applcation/APPL_DMA_LTE/APPL_DMA_LTE.c **** {
  77              		.loc 1 561 1 is_stmt 1 view -0
  78              		.cfi_startproc
  79              		@ args = 0, pretend = 0, frame = 0
  80              		@ frame_needed = 0, uses_anonymous_args = 0
  81              		@ link register save eliminated.
 562:../01_Applcation/APPL_DMA_LTE/APPL_DMA_LTE.c **** 	if (APPL_DMA_LTE_MQTT_ONLINE == 1)
  82              		.loc 1 562 2 view .LVU12
  83              		.loc 1 562 31 is_stmt 0 view .LVU13
  84 0000 054B     		ldr	r3, .L8
  85 0002 1B68     		ldr	r3, [r3]
  86              		.loc 1 562 5 view .LVU14
  87 0004 012B     		cmp	r3, #1
  88 0006 01D0     		beq	.L7
  89              	.L6:
 563:../01_Applcation/APPL_DMA_LTE/APPL_DMA_LTE.c **** 	{
 564:../01_Applcation/APPL_DMA_LTE/APPL_DMA_LTE.c **** 		APPL_DMA_LTE_SIM7000G_ErrorCount++;
 565:../01_Applcation/APPL_DMA_LTE/APPL_DMA_LTE.c **** 	}
 566:../01_Applcation/APPL_DMA_LTE/APPL_DMA_LTE.c **** 	return 0;
  90              		.loc 1 566 2 is_stmt 1 view .LVU15
 567:../01_Applcation/APPL_DMA_LTE/APPL_DMA_LTE.c **** }
  91              		.loc 1 567 1 is_stmt 0 view .LVU16
  92 0008 0020     		movs	r0, #0
  93              	.LVL3:
  94              		.loc 1 567 1 view .LVU17
  95 000a 7047     		bx	lr
  96              	.LVL4:
  97              	.L7:
 564:../01_Applcation/APPL_DMA_LTE/APPL_DMA_LTE.c **** 	}
  98              		.loc 1 564 3 is_stmt 1 view .LVU18
 564:../01_Applcation/APPL_DMA_LTE/APPL_DMA_LTE.c **** 	}
  99              		.loc 1 564 35 is_stmt 0 view .LVU19
 100 000c 034A     		ldr	r2, .L8+4
 101 000e 1388     		ldrh	r3, [r2]
 102 0010 0133     		adds	r3, r3, #1
 103 0012 1380     		strh	r3, [r2]	@ movhi
 104 0014 F8E7     		b	.L6
 105              	.L9:
 106 0016 00BF     		.align	2
 107              	.L8:
 108 0018 00000000 		.word	.LANCHOR2
 109 001c 00000000 		.word	.LANCHOR0
 110              		.cfi_endproc
 111              	.LFE299:
 113              		.section	.rodata.APPL_DMA_LTE_APP.str1.4,"aMS",%progbits,1
 114              		.align	2
 115              	.LC0:
 116 0000 44454143 		.ascii	"DEACTIVE\000"
 116      54495645 
 116      00
 117 0009 000000   		.align	2
ARM GAS  C:\Users\minde\AppData\Local\Temp\ccleu24Z.s 			page 13


 118              	.LC1:
 119 000c 41435449 		.ascii	"ACTIVE\000"
 119      564500
 120              		.section	.text.APPL_DMA_LTE_APP,"ax",%progbits
 121              		.align	1
 122              		.global	APPL_DMA_LTE_APP
 123              		.syntax unified
 124              		.thumb
 125              		.thumb_func
 127              	APPL_DMA_LTE_APP:
 128              	.LVL5:
 129              	.LFB300:
 568:../01_Applcation/APPL_DMA_LTE/APPL_DMA_LTE.c **** 
 569:../01_Applcation/APPL_DMA_LTE/APPL_DMA_LTE.c **** /*******************************************************************************
 570:../01_Applcation/APPL_DMA_LTE/APPL_DMA_LTE.c ****  * Function: APPL_DMA_LTE_APP
 571:../01_Applcation/APPL_DMA_LTE/APPL_DMA_LTE.c ****  *
 572:../01_Applcation/APPL_DMA_LTE/APPL_DMA_LTE.c ****  * Parameters:      -
 573:../01_Applcation/APPL_DMA_LTE/APPL_DMA_LTE.c ****  * Returned value:  -
 574:../01_Applcation/APPL_DMA_LTE/APPL_DMA_LTE.c ****  *
 575:../01_Applcation/APPL_DMA_LTE/APPL_DMA_LTE.c ****  * Description: APP PDP: DEACTIVE
 576:../01_Applcation/APPL_DMA_LTE/APPL_DMA_LTE.c ****  *
 577:../01_Applcation/APPL_DMA_LTE/APPL_DMA_LTE.c ****  * Calling:
 578:../01_Applcation/APPL_DMA_LTE/APPL_DMA_LTE.c ****  ******************************************************************************/
 579:../01_Applcation/APPL_DMA_LTE/APPL_DMA_LTE.c **** int APPL_DMA_LTE_APP(int argc, char *argv[])
 580:../01_Applcation/APPL_DMA_LTE/APPL_DMA_LTE.c **** {
 130              		.loc 1 580 1 is_stmt 1 view -0
 131              		.cfi_startproc
 132              		@ args = 0, pretend = 0, frame = 0
 133              		@ frame_needed = 0, uses_anonymous_args = 0
 581:../01_Applcation/APPL_DMA_LTE/APPL_DMA_LTE.c **** 	if (argc > 2)
 134              		.loc 1 581 2 view .LVU21
 135              		.loc 1 581 5 is_stmt 0 view .LVU22
 136 0000 0228     		cmp	r0, #2
 137 0002 19DD     		ble	.L14
 580:../01_Applcation/APPL_DMA_LTE/APPL_DMA_LTE.c **** 	if (argc > 2)
 138              		.loc 1 580 1 view .LVU23
 139 0004 10B5     		push	{r4, lr}
 140              	.LCFI0:
 141              		.cfi_def_cfa_offset 8
 142              		.cfi_offset 4, -8
 143              		.cfi_offset 14, -4
 582:../01_Applcation/APPL_DMA_LTE/APPL_DMA_LTE.c **** 	{
 583:../01_Applcation/APPL_DMA_LTE/APPL_DMA_LTE.c **** 		if (strstr(argv[2], "DEACTIVE") != NULL)
 144              		.loc 1 583 3 is_stmt 1 view .LVU24
 145              		.loc 1 583 7 is_stmt 0 view .LVU25
 146 0006 8C68     		ldr	r4, [r1, #8]
 147 0008 0C49     		ldr	r1, .L17
 148              	.LVL6:
 149              		.loc 1 583 7 view .LVU26
 150 000a 2046     		mov	r0, r4
 151              	.LVL7:
 152              		.loc 1 583 7 view .LVU27
 153 000c FFF7FEFF 		bl	strstr
 154              	.LVL8:
 155              		.loc 1 583 6 view .LVU28
 156 0010 20B1     		cbz	r0, .L12
 584:../01_Applcation/APPL_DMA_LTE/APPL_DMA_LTE.c **** 		{
ARM GAS  C:\Users\minde\AppData\Local\Temp\ccleu24Z.s 			page 14


 585:../01_Applcation/APPL_DMA_LTE/APPL_DMA_LTE.c **** 			APPL_DMA_LTE_SIM7000G_Init_Stage = 24;
 157              		.loc 1 585 4 is_stmt 1 view .LVU29
 158              		.loc 1 585 37 is_stmt 0 view .LVU30
 159 0012 0B4B     		ldr	r3, .L17+4
 160 0014 1822     		movs	r2, #24
 161 0016 1A60     		str	r2, [r3]
 162              	.L11:
 586:../01_Applcation/APPL_DMA_LTE/APPL_DMA_LTE.c **** 		}
 587:../01_Applcation/APPL_DMA_LTE/APPL_DMA_LTE.c **** 		else if (strstr(argv[2], "ACTIVE") != NULL)
 588:../01_Applcation/APPL_DMA_LTE/APPL_DMA_LTE.c **** 		{
 589:../01_Applcation/APPL_DMA_LTE/APPL_DMA_LTE.c **** 			APPL_DMA_LTE_MQTT_ONLINE = 1;
 590:../01_Applcation/APPL_DMA_LTE/APPL_DMA_LTE.c **** 			APPL_DMA_LTE_SIM7000G_Init_Stage++;
 591:../01_Applcation/APPL_DMA_LTE/APPL_DMA_LTE.c **** 		}
 592:../01_Applcation/APPL_DMA_LTE/APPL_DMA_LTE.c **** 	}
 593:../01_Applcation/APPL_DMA_LTE/APPL_DMA_LTE.c **** 	return 0;
 163              		.loc 1 593 2 is_stmt 1 view .LVU31
 594:../01_Applcation/APPL_DMA_LTE/APPL_DMA_LTE.c **** }...
 164              		.loc 1 594 1 is_stmt 0 view .LVU32
 165 0018 0020     		movs	r0, #0
 166 001a 10BD     		pop	{r4, pc}
 167              	.L12:
 587:../01_Applcation/APPL_DMA_LTE/APPL_DMA_LTE.c **** 		else if (strstr(argv[2], "ACTIVE") != NULL)
 168              		.loc 1 587 8 is_stmt 1 view .LVU33
 587:../01_Applcation/APPL_DMA_LTE/APPL_DMA_LTE.c **** 		else if (strstr(argv[2], "ACTIVE") != NULL)
 169              		.loc 1 587 12 is_stmt 0 view .LVU34
 170 001c 0949     		ldr	r1, .L17+8
 171 001e 2046     		mov	r0, r4
 172 0020 FFF7FEFF 		bl	strstr
 173              	.LVL9:
 587:../01_Applcation/APPL_DMA_LTE/APPL_DMA_LTE.c **** 		else if (strstr(argv[2], "ACTIVE") != NULL)
 174              		.loc 1 587 11 view .LVU35
 175 0024 0028     		cmp	r0, #0
 176 0026 F7D0     		beq	.L11
 589:../01_Applcation/APPL_DMA_LTE/APPL_DMA_LTE.c **** 			APPL_DMA_LTE_MQTT_ONLINE = 1;
 177              		.loc 1 589 4 is_stmt 1 view .LVU36
 589:../01_Applcation/APPL_DMA_LTE/APPL_DMA_LTE.c **** 			APPL_DMA_LTE_MQTT_ONLINE = 1;
 178              		.loc 1 589 29 is_stmt 0 view .LVU37
 179 0028 074B     		ldr	r3, .L17+12
 180 002a 0122     		movs	r2, #1
 181 002c 1A60     		str	r2, [r3]
 590:../01_Applcation/APPL_DMA_LTE/APPL_DMA_LTE.c **** 			APPL_DMA_LTE_SIM7000G_Init_Stage++;
 182              		.loc 1 590 4 is_stmt 1 view .LVU38
 590:../01_Applcation/APPL_DMA_LTE/APPL_DMA_LTE.c **** 			APPL_DMA_LTE_SIM7000G_Init_Stage++;
 183              		.loc 1 590 36 is_stmt 0 view .LVU39
 184 002e 044A     		ldr	r2, .L17+4
 185 0030 1368     		ldr	r3, [r2]
 186 0032 0133     		adds	r3, r3, #1
 187 0034 1360     		str	r3, [r2]
 188 0036 EFE7     		b	.L11
 189              	.LVL10:
 190              	.L14:
 191              	.LCFI1:
 192              		.cfi_def_cfa_offset 0
 193              		.cfi_restore 4
 194              		.cfi_restore 14
 593:../01_Applcation/APPL_DMA_LTE/APPL_DMA_LTE.c **** 	return 0;
 195              		.loc 1 593 2 is_stmt 1 view .LVU40
ARM GAS  C:\Users\minde\AppData\Local\Temp\ccleu24Z.s 			page 15


 196              		.loc 1 594 1 is_stmt 0 view .LVU41
 197 0038 0020     		movs	r0, #0
 198              	.LVL11:
 199              		.loc 1 594 1 view .LVU42
 200 003a 7047     		bx	lr
 201              	.L18:
 202              		.align	2
 203              	.L17:
 204 003c 00000000 		.word	.LC0
 205 0040 00000000 		.word	.LANCHOR1
 206 0044 0C000000 		.word	.LC1
 207 0048 00000000 		.word	.LANCHOR2
 208              		.cfi_endproc
 209              	.LFE300:
 211              		.section	.rodata.APPL_DMA_IOCON_Init.str1.4,"aMS",%progbits,1
 212              		.align	2
 213              	.LC2:
 214 0000 31313131 		.ascii	"1111\000"
 214      00
 215              		.section	.text.APPL_DMA_IOCON_Init,"ax",%progbits
 216              		.align	1
 217              		.global	APPL_DMA_IOCON_Init
 218              		.syntax unified
 219              		.thumb
 220              		.thumb_func
 222              	APPL_DMA_IOCON_Init:
 223              	.LFB291:
 208:../01_Applcation/APPL_DMA_LTE/APPL_DMA_LTE.c **** void APPL_DMA_IOCON_Init(void){
 224              		.loc 1 208 31 is_stmt 1 view -0
 225              		.cfi_startproc
 226              		@ args = 0, pretend = 0, frame = 0
 227              		@ frame_needed = 0, uses_anonymous_args = 0
 228              		@ link register save eliminated.
 210:../01_Applcation/APPL_DMA_LTE/APPL_DMA_LTE.c ****        APPL_DMA_IOCON_d.IOT_ID = 2;
 229              		.loc 1 210 8 view .LVU44
 210:../01_Applcation/APPL_DMA_LTE/APPL_DMA_LTE.c ****        APPL_DMA_IOCON_d.IOT_ID = 2;
 230              		.loc 1 210 32 is_stmt 0 view .LVU45
 231 0000 114B     		ldr	r3, .L20
 232 0002 0222     		movs	r2, #2
 233 0004 1A80     		strh	r2, [r3]	@ movhi
 211:../01_Applcation/APPL_DMA_LTE/APPL_DMA_LTE.c ****        APPL_DMA_IOCON_d.MQTT_IP0 = 203;
 234              		.loc 1 211 8 is_stmt 1 view .LVU46
 211:../01_Applcation/APPL_DMA_LTE/APPL_DMA_LTE.c ****        APPL_DMA_IOCON_d.MQTT_IP0 = 203;
 235              		.loc 1 211 34 is_stmt 0 view .LVU47
 236 0006 CB22     		movs	r2, #203
 237 0008 1A71     		strb	r2, [r3, #4]
 212:../01_Applcation/APPL_DMA_LTE/APPL_DMA_LTE.c ****        APPL_DMA_IOCON_d.MQTT_IP1 = 151;
 238              		.loc 1 212 8 is_stmt 1 view .LVU48
 212:../01_Applcation/APPL_DMA_LTE/APPL_DMA_LTE.c ****        APPL_DMA_IOCON_d.MQTT_IP1 = 151;
 239              		.loc 1 212 34 is_stmt 0 view .LVU49
 240 000a 9722     		movs	r2, #151
 241 000c 5A71     		strb	r2, [r3, #5]
 213:../01_Applcation/APPL_DMA_LTE/APPL_DMA_LTE.c ****        APPL_DMA_IOCON_d.MQTT_IP2 = 79;
 242              		.loc 1 213 8 is_stmt 1 view .LVU50
 213:../01_Applcation/APPL_DMA_LTE/APPL_DMA_LTE.c ****        APPL_DMA_IOCON_d.MQTT_IP2 = 79;
 243              		.loc 1 213 34 is_stmt 0 view .LVU51
 244 000e 4F22     		movs	r2, #79
ARM GAS  C:\Users\minde\AppData\Local\Temp\ccleu24Z.s 			page 16


 245 0010 9A71     		strb	r2, [r3, #6]
 214:../01_Applcation/APPL_DMA_LTE/APPL_DMA_LTE.c ****        APPL_DMA_IOCON_d.MQTT_IP3 = 149;
 246              		.loc 1 214 8 is_stmt 1 view .LVU52
 214:../01_Applcation/APPL_DMA_LTE/APPL_DMA_LTE.c ****        APPL_DMA_IOCON_d.MQTT_IP3 = 149;
 247              		.loc 1 214 34 is_stmt 0 view .LVU53
 248 0012 9522     		movs	r2, #149
 249 0014 DA71     		strb	r2, [r3, #7]
 215:../01_Applcation/APPL_DMA_LTE/APPL_DMA_LTE.c ****        APPL_DMA_IOCON_d.MQTT_PORT = 1883;
 250              		.loc 1 215 8 is_stmt 1 view .LVU54
 215:../01_Applcation/APPL_DMA_LTE/APPL_DMA_LTE.c ****        APPL_DMA_IOCON_d.MQTT_PORT = 1883;
 251              		.loc 1 215 35 is_stmt 0 view .LVU55
 252 0016 40F25B72 		movw	r2, #1883
 253 001a 5A80     		strh	r2, [r3, #2]	@ movhi
 216:../01_Applcation/APPL_DMA_LTE/APPL_DMA_LTE.c ****        strcpy(APPL_DMA_IOCON_d.MQTT_USER, "1111");
 254              		.loc 1 216 8 is_stmt 1 view .LVU56
 255 001c 0B4A     		ldr	r2, .L20+4
 256 001e 92E80300 		ldm	r2, {r0, r1}
 257 0022 9860     		str	r0, [r3, #8]
 258 0024 1973     		strb	r1, [r3, #12]
 217:../01_Applcation/APPL_DMA_LTE/APPL_DMA_LTE.c ****        strcpy(APPL_DMA_IOCON_d.MQTT_PASS, "1111");
 259              		.loc 1 217 8 view .LVU57
 260 0026 1861     		str	r0, [r3, #16]
 261 0028 1975     		strb	r1, [r3, #20]
 221:../01_Applcation/APPL_DMA_LTE/APPL_DMA_LTE.c ****        APPL_DMA_IOCON_d.DIO = 0x00;
 262              		.loc 1 221 8 view .LVU58
 221:../01_Applcation/APPL_DMA_LTE/APPL_DMA_LTE.c ****        APPL_DMA_IOCON_d.DIO = 0x00;
 263              		.loc 1 221 29 is_stmt 0 view .LVU59
 264 002a 0022     		movs	r2, #0
 265 002c 9A77     		strb	r2, [r3, #30]
 223:../01_Applcation/APPL_DMA_LTE/APPL_DMA_LTE.c ****        APPL_DMA_IOCON_d.ANIN0 = 0x0000;
 266              		.loc 1 223 8 is_stmt 1 view .LVU60
 223:../01_Applcation/APPL_DMA_LTE/APPL_DMA_LTE.c ****        APPL_DMA_IOCON_d.ANIN0 = 0x0000;
 267              		.loc 1 223 31 is_stmt 0 view .LVU61
 268 002e 1A84     		strh	r2, [r3, #32]	@ movhi
 224:../01_Applcation/APPL_DMA_LTE/APPL_DMA_LTE.c ****        APPL_DMA_IOCON_d.ANIN1 = 0x0000;
 269              		.loc 1 224 8 is_stmt 1 view .LVU62
 224:../01_Applcation/APPL_DMA_LTE/APPL_DMA_LTE.c ****        APPL_DMA_IOCON_d.ANIN1 = 0x0000;
 270              		.loc 1 224 31 is_stmt 0 view .LVU63
 271 0030 5A84     		strh	r2, [r3, #34]	@ movhi
 225:../01_Applcation/APPL_DMA_LTE/APPL_DMA_LTE.c ****        APPL_DMA_IOCON_d.ANIN2 = 0x3000;
 272              		.loc 1 225 8 is_stmt 1 view .LVU64
 225:../01_Applcation/APPL_DMA_LTE/APPL_DMA_LTE.c ****        APPL_DMA_IOCON_d.ANIN2 = 0x3000;
 273              		.loc 1 225 31 is_stmt 0 view .LVU65
 274 0032 4FF44051 		mov	r1, #12288
 275 0036 9984     		strh	r1, [r3, #36]	@ movhi
 226:../01_Applcation/APPL_DMA_LTE/APPL_DMA_LTE.c ****        APPL_DMA_IOCON_d.ANIN3 = 0x4fff;
 276              		.loc 1 226 8 is_stmt 1 view .LVU66
 226:../01_Applcation/APPL_DMA_LTE/APPL_DMA_LTE.c ****        APPL_DMA_IOCON_d.ANIN3 = 0x4fff;
 277              		.loc 1 226 31 is_stmt 0 view .LVU67
 278 0038 44F6FF71 		movw	r1, #20479
 279 003c D984     		strh	r1, [r3, #38]	@ movhi
 229:../01_Applcation/APPL_DMA_LTE/APPL_DMA_LTE.c ****        APPL_DMA_IOCON_d.Batt = 0;
 280              		.loc 1 229 8 is_stmt 1 view .LVU68
 229:../01_Applcation/APPL_DMA_LTE/APPL_DMA_LTE.c ****        APPL_DMA_IOCON_d.Batt = 0;
 281              		.loc 1 229 30 is_stmt 0 view .LVU69
 282 003e 9A83     		strh	r2, [r3, #28]	@ movhi
 232:../01_Applcation/APPL_DMA_LTE/APPL_DMA_LTE.c ****        APPL_DMA_IOCON_d.Temperature = 0;
ARM GAS  C:\Users\minde\AppData\Local\Temp\ccleu24Z.s 			page 17


 283              		.loc 1 232 8 is_stmt 1 view .LVU70
 232:../01_Applcation/APPL_DMA_LTE/APPL_DMA_LTE.c ****        APPL_DMA_IOCON_d.Temperature = 0;
 284              		.loc 1 232 37 is_stmt 0 view .LVU71
 285 0040 1A83     		strh	r2, [r3, #24]	@ movhi
 233:../01_Applcation/APPL_DMA_LTE/APPL_DMA_LTE.c ****        APPL_DMA_IOCON_d.Humidity = 0;
 286              		.loc 1 233 8 is_stmt 1 view .LVU72
 233:../01_Applcation/APPL_DMA_LTE/APPL_DMA_LTE.c ****        APPL_DMA_IOCON_d.Humidity = 0;
 287              		.loc 1 233 34 is_stmt 0 view .LVU73
 288 0042 5A83     		strh	r2, [r3, #26]	@ movhi
 234:../01_Applcation/APPL_DMA_LTE/APPL_DMA_LTE.c **** }
 289              		.loc 1 234 1 view .LVU74
 290 0044 7047     		bx	lr
 291              	.L21:
 292 0046 00BF     		.align	2
 293              	.L20:
 294 0048 00000000 		.word	.LANCHOR3
 295 004c 00000000 		.word	.LC2
 296              		.cfi_endproc
 297              	.LFE291:
 299              		.section	.rodata.APPL_DMA_LTE_Init.str1.4,"aMS",%progbits,1
 300              		.align	2
 301              	.LC3:
 302 0000 6F6B00   		.ascii	"ok\000"
 303 0003 00       		.align	2
 304              	.LC4:
 305 0004 6F6B2066 		.ascii	"ok function\000"
 305      756E6374 
 305      696F6E00 
 306              		.align	2
 307              	.LC5:
 308 0010 4F4B00   		.ascii	"OK\000"
 309 0013 00       		.align	2
 310              	.LC6:
 311 0014 6572726F 		.ascii	"error\000"
 311      7200
 312 001a 0000     		.align	2
 313              	.LC7:
 314 001c 6572726F 		.ascii	"error function\000"
 314      72206675 
 314      6E637469 
 314      6F6E00
 315 002b 00       		.align	2
 316              	.LC8:
 317 002c 2B415050 		.ascii	"+APP\000"
 317      00
 318 0031 000000   		.align	2
 319              	.LC9:
 320 0034 2B415050 		.ascii	"+APP Disable\000"
 320      20446973 
 320      61626C65 
 320      00
 321 0041 000000   		.align	2
 322              	.LC10:
 323 0044 41505000 		.ascii	"APP\000"
 324              		.align	2
 325              	.LC11:
 326 0048 41505020 		.ascii	"APP Disable\000"
ARM GAS  C:\Users\minde\AppData\Local\Temp\ccleu24Z.s 			page 18


 326      44697361 
 326      626C6500 
 327              		.section	.text.APPL_DMA_LTE_Init,"ax",%progbits
 328              		.align	1
 329              		.global	APPL_DMA_LTE_Init
 330              		.syntax unified
 331              		.thumb
 332              		.thumb_func
 334              	APPL_DMA_LTE_Init:
 335              	.LFB292:
 249:../01_Applcation/APPL_DMA_LTE/APPL_DMA_LTE.c **** {
 336              		.loc 1 249 1 is_stmt 1 view -0
 337              		.cfi_startproc
 338              		@ args = 0, pretend = 0, frame = 0
 339              		@ frame_needed = 0, uses_anonymous_args = 0
 340 0000 38B5     		push	{r3, r4, r5, lr}
 341              	.LCFI2:
 342              		.cfi_def_cfa_offset 16
 343              		.cfi_offset 3, -16
 344              		.cfi_offset 4, -12
 345              		.cfi_offset 5, -8
 346              		.cfi_offset 14, -4
 250:../01_Applcation/APPL_DMA_LTE/APPL_DMA_LTE.c **** 	APPL_DMA_LTE_MQTT_ONLINE = 0;
 347              		.loc 1 250 2 view .LVU76
 250:../01_Applcation/APPL_DMA_LTE/APPL_DMA_LTE.c **** 	APPL_DMA_LTE_MQTT_ONLINE = 0;
 348              		.loc 1 250 27 is_stmt 0 view .LVU77
 349 0002 0024     		movs	r4, #0
 350 0004 1A4B     		ldr	r3, .L24
 351 0006 1C60     		str	r4, [r3]
 251:../01_Applcation/APPL_DMA_LTE/APPL_DMA_LTE.c **** 	APPL_DMA_LTE_SIM7000G_ErrorCount = 0;
 352              		.loc 1 251 2 is_stmt 1 view .LVU78
 251:../01_Applcation/APPL_DMA_LTE/APPL_DMA_LTE.c **** 	APPL_DMA_LTE_SIM7000G_ErrorCount = 0;
 353              		.loc 1 251 35 is_stmt 0 view .LVU79
 354 0008 1A4B     		ldr	r3, .L24+4
 355 000a 1C80     		strh	r4, [r3]	@ movhi
 252:../01_Applcation/APPL_DMA_LTE/APPL_DMA_LTE.c **** 	EKM_Buffer_Setup(&APPL_DMA_LTE_Buffer, APPL_DMA_LTE_BUFFER_MAX, APPL_DMA_LTE_Buffer_d);
 356              		.loc 1 252 2 is_stmt 1 view .LVU80
 357 000c 1A4D     		ldr	r5, .L24+8
 358 000e 1B4A     		ldr	r2, .L24+12
 359 0010 8021     		movs	r1, #128
 360 0012 2846     		mov	r0, r5
 361 0014 FFF7FEFF 		bl	EKM_Buffer_Setup
 362              	.LVL12:
 253:../01_Applcation/APPL_DMA_LTE/APPL_DMA_LTE.c **** 	EKM_Buffer_Reset(&APPL_DMA_LTE_Buffer);
 363              		.loc 1 253 2 view .LVU81
 364 0018 2846     		mov	r0, r5
 365 001a FFF7FEFF 		bl	EKM_Buffer_Reset
 366              	.LVL13:
 255:../01_Applcation/APPL_DMA_LTE/APPL_DMA_LTE.c **** 	APPL_DMA_LTE_CMD_OK.EKM_CMD_pcCmd = "ok";
 367              		.loc 1 255 2 view .LVU82
 255:../01_Applcation/APPL_DMA_LTE/APPL_DMA_LTE.c **** 	APPL_DMA_LTE_CMD_OK.EKM_CMD_pcCmd = "ok";
 368              		.loc 1 255 36 is_stmt 0 view .LVU83
 369 001e 184B     		ldr	r3, .L24+16
 370 0020 184A     		ldr	r2, .L24+20
 371 0022 1A60     		str	r2, [r3]
 256:../01_Applcation/APPL_DMA_LTE/APPL_DMA_LTE.c **** 	APPL_DMA_LTE_CMD_OK.EKM_CMD_pcHelp = "ok function";
 372              		.loc 1 256 2 is_stmt 1 view .LVU84
ARM GAS  C:\Users\minde\AppData\Local\Temp\ccleu24Z.s 			page 19


 256:../01_Applcation/APPL_DMA_LTE/APPL_DMA_LTE.c **** 	APPL_DMA_LTE_CMD_OK.EKM_CMD_pcHelp = "ok function";
 373              		.loc 1 256 37 is_stmt 0 view .LVU85
 374 0024 1848     		ldr	r0, .L24+24
 375 0026 9860     		str	r0, [r3, #8]
 257:../01_Applcation/APPL_DMA_LTE/APPL_DMA_LTE.c **** 	APPL_DMA_LTE_CMD_OK.EKM_CMD_pfnCmd = &APPL_DMA_LTE_OK;
 376              		.loc 1 257 2 is_stmt 1 view .LVU86
 257:../01_Applcation/APPL_DMA_LTE/APPL_DMA_LTE.c **** 	APPL_DMA_LTE_CMD_OK.EKM_CMD_pfnCmd = &APPL_DMA_LTE_OK;
 377              		.loc 1 257 37 is_stmt 0 view .LVU87
 378 0028 1849     		ldr	r1, .L24+28
 379 002a 5960     		str	r1, [r3, #4]
 258:../01_Applcation/APPL_DMA_LTE/APPL_DMA_LTE.c **** 	APPL_DMA_LTE_CMD_OK.next = &APPL_DMA_LTE_CMD_Sok;
 380              		.loc 1 258 2 is_stmt 1 view .LVU88
 258:../01_Applcation/APPL_DMA_LTE/APPL_DMA_LTE.c **** 	APPL_DMA_LTE_CMD_OK.next = &APPL_DMA_LTE_CMD_Sok;
 381              		.loc 1 258 27 is_stmt 0 view .LVU89
 382 002c 184A     		ldr	r2, .L24+32
 383 002e DA60     		str	r2, [r3, #12]
 260:../01_Applcation/APPL_DMA_LTE/APPL_DMA_LTE.c **** 	APPL_DMA_LTE_CMD_Sok.EKM_CMD_pcCmd = "OK";
 384              		.loc 1 260 2 is_stmt 1 view .LVU90
 260:../01_Applcation/APPL_DMA_LTE/APPL_DMA_LTE.c **** 	APPL_DMA_LTE_CMD_Sok.EKM_CMD_pcCmd = "OK";
 385              		.loc 1 260 37 is_stmt 0 view .LVU91
 386 0030 184B     		ldr	r3, .L24+36
 387 0032 1360     		str	r3, [r2]
 261:../01_Applcation/APPL_DMA_LTE/APPL_DMA_LTE.c **** 	APPL_DMA_LTE_CMD_Sok.EKM_CMD_pcHelp = "ok function";
 388              		.loc 1 261 2 is_stmt 1 view .LVU92
 261:../01_Applcation/APPL_DMA_LTE/APPL_DMA_LTE.c **** 	APPL_DMA_LTE_CMD_Sok.EKM_CMD_pcHelp = "ok function";
 389              		.loc 1 261 38 is_stmt 0 view .LVU93
 390 0034 9060     		str	r0, [r2, #8]
 262:../01_Applcation/APPL_DMA_LTE/APPL_DMA_LTE.c **** 	APPL_DMA_LTE_CMD_Sok.EKM_CMD_pfnCmd = &APPL_DMA_LTE_OK;
 391              		.loc 1 262 2 is_stmt 1 view .LVU94
 262:../01_Applcation/APPL_DMA_LTE/APPL_DMA_LTE.c **** 	APPL_DMA_LTE_CMD_Sok.EKM_CMD_pfnCmd = &APPL_DMA_LTE_OK;
 392              		.loc 1 262 38 is_stmt 0 view .LVU95
 393 0036 5160     		str	r1, [r2, #4]
 263:../01_Applcation/APPL_DMA_LTE/APPL_DMA_LTE.c **** 	APPL_DMA_LTE_CMD_Sok.next = &APPL_DMA_LTE_CMD_Error;
 394              		.loc 1 263 2 is_stmt 1 view .LVU96
 263:../01_Applcation/APPL_DMA_LTE/APPL_DMA_LTE.c **** 	APPL_DMA_LTE_CMD_Sok.next = &APPL_DMA_LTE_CMD_Error;
 395              		.loc 1 263 28 is_stmt 0 view .LVU97
 396 0038 174B     		ldr	r3, .L24+40
 397 003a D360     		str	r3, [r2, #12]
 265:../01_Applcation/APPL_DMA_LTE/APPL_DMA_LTE.c **** 	APPL_DMA_LTE_CMD_Error.EKM_CMD_pcCmd = "error";
 398              		.loc 1 265 2 is_stmt 1 view .LVU98
 265:../01_Applcation/APPL_DMA_LTE/APPL_DMA_LTE.c **** 	APPL_DMA_LTE_CMD_Error.EKM_CMD_pcCmd = "error";
 399              		.loc 1 265 39 is_stmt 0 view .LVU99
 400 003c 174A     		ldr	r2, .L24+44
 401 003e 1A60     		str	r2, [r3]
 266:../01_Applcation/APPL_DMA_LTE/APPL_DMA_LTE.c **** 	APPL_DMA_LTE_CMD_Error.EKM_CMD_pcHelp = "error function";
 402              		.loc 1 266 2 is_stmt 1 view .LVU100
 266:../01_Applcation/APPL_DMA_LTE/APPL_DMA_LTE.c **** 	APPL_DMA_LTE_CMD_Error.EKM_CMD_pcHelp = "error function";
 403              		.loc 1 266 40 is_stmt 0 view .LVU101
 404 0040 174A     		ldr	r2, .L24+48
 405 0042 9A60     		str	r2, [r3, #8]
 267:../01_Applcation/APPL_DMA_LTE/APPL_DMA_LTE.c **** 	APPL_DMA_LTE_CMD_Error.EKM_CMD_pfnCmd = &APPL_DMA_LTE_Error;
 406              		.loc 1 267 2 is_stmt 1 view .LVU102
 267:../01_Applcation/APPL_DMA_LTE/APPL_DMA_LTE.c **** 	APPL_DMA_LTE_CMD_Error.EKM_CMD_pfnCmd = &APPL_DMA_LTE_Error;
 407              		.loc 1 267 40 is_stmt 0 view .LVU103
 408 0044 174A     		ldr	r2, .L24+52
 409 0046 5A60     		str	r2, [r3, #4]
 268:../01_Applcation/APPL_DMA_LTE/APPL_DMA_LTE.c **** 	APPL_DMA_LTE_CMD_Error.next = &APPL_DMA_LTE_CMD_PAPP;
ARM GAS  C:\Users\minde\AppData\Local\Temp\ccleu24Z.s 			page 20


 410              		.loc 1 268 2 is_stmt 1 view .LVU104
 268:../01_Applcation/APPL_DMA_LTE/APPL_DMA_LTE.c **** 	APPL_DMA_LTE_CMD_Error.next = &APPL_DMA_LTE_CMD_PAPP;
 411              		.loc 1 268 30 is_stmt 0 view .LVU105
 412 0048 174A     		ldr	r2, .L24+56
 413 004a DA60     		str	r2, [r3, #12]
 270:../01_Applcation/APPL_DMA_LTE/APPL_DMA_LTE.c **** 	APPL_DMA_LTE_CMD_PAPP.EKM_CMD_pcCmd = "+APP";
 414              		.loc 1 270 2 is_stmt 1 view .LVU106
 270:../01_Applcation/APPL_DMA_LTE/APPL_DMA_LTE.c **** 	APPL_DMA_LTE_CMD_PAPP.EKM_CMD_pcCmd = "+APP";
 415              		.loc 1 270 38 is_stmt 0 view .LVU107
 416 004c 174B     		ldr	r3, .L24+60
 417 004e 1360     		str	r3, [r2]
 271:../01_Applcation/APPL_DMA_LTE/APPL_DMA_LTE.c **** 	APPL_DMA_LTE_CMD_PAPP.EKM_CMD_pcHelp = "+APP Disable";
 418              		.loc 1 271 2 is_stmt 1 view .LVU108
 271:../01_Applcation/APPL_DMA_LTE/APPL_DMA_LTE.c **** 	APPL_DMA_LTE_CMD_PAPP.EKM_CMD_pcHelp = "+APP Disable";
 419              		.loc 1 271 39 is_stmt 0 view .LVU109
 420 0050 174B     		ldr	r3, .L24+64
 421 0052 9360     		str	r3, [r2, #8]
 272:../01_Applcation/APPL_DMA_LTE/APPL_DMA_LTE.c **** 	APPL_DMA_LTE_CMD_PAPP.EKM_CMD_pfnCmd = &APPL_DMA_LTE_APP;
 422              		.loc 1 272 2 is_stmt 1 view .LVU110
 272:../01_Applcation/APPL_DMA_LTE/APPL_DMA_LTE.c **** 	APPL_DMA_LTE_CMD_PAPP.EKM_CMD_pfnCmd = &APPL_DMA_LTE_APP;
 423              		.loc 1 272 39 is_stmt 0 view .LVU111
 424 0054 1749     		ldr	r1, .L24+68
 425 0056 5160     		str	r1, [r2, #4]
 273:../01_Applcation/APPL_DMA_LTE/APPL_DMA_LTE.c **** 	APPL_DMA_LTE_CMD_PAPP.next = &APPL_DMA_LTE_CMD_APP;
 426              		.loc 1 273 2 is_stmt 1 view .LVU112
 273:../01_Applcation/APPL_DMA_LTE/APPL_DMA_LTE.c **** 	APPL_DMA_LTE_CMD_PAPP.next = &APPL_DMA_LTE_CMD_APP;
 427              		.loc 1 273 29 is_stmt 0 view .LVU113
 428 0058 174B     		ldr	r3, .L24+72
 429 005a D360     		str	r3, [r2, #12]
 275:../01_Applcation/APPL_DMA_LTE/APPL_DMA_LTE.c **** 	APPL_DMA_LTE_CMD_APP.EKM_CMD_pcCmd = "APP";
 430              		.loc 1 275 2 is_stmt 1 view .LVU114
 275:../01_Applcation/APPL_DMA_LTE/APPL_DMA_LTE.c **** 	APPL_DMA_LTE_CMD_APP.EKM_CMD_pcCmd = "APP";
 431              		.loc 1 275 37 is_stmt 0 view .LVU115
 432 005c 174A     		ldr	r2, .L24+76
 433 005e 1A60     		str	r2, [r3]
 276:../01_Applcation/APPL_DMA_LTE/APPL_DMA_LTE.c **** 	APPL_DMA_LTE_CMD_APP.EKM_CMD_pcHelp = "APP Disable";
 434              		.loc 1 276 2 is_stmt 1 view .LVU116
 276:../01_Applcation/APPL_DMA_LTE/APPL_DMA_LTE.c **** 	APPL_DMA_LTE_CMD_APP.EKM_CMD_pcHelp = "APP Disable";
 435              		.loc 1 276 38 is_stmt 0 view .LVU117
 436 0060 174A     		ldr	r2, .L24+80
 437 0062 9A60     		str	r2, [r3, #8]
 277:../01_Applcation/APPL_DMA_LTE/APPL_DMA_LTE.c **** 	APPL_DMA_LTE_CMD_APP.EKM_CMD_pfnCmd = &APPL_DMA_LTE_APP;
 438              		.loc 1 277 2 is_stmt 1 view .LVU118
 277:../01_Applcation/APPL_DMA_LTE/APPL_DMA_LTE.c **** 	APPL_DMA_LTE_CMD_APP.EKM_CMD_pfnCmd = &APPL_DMA_LTE_APP;
 439              		.loc 1 277 38 is_stmt 0 view .LVU119
 440 0064 5960     		str	r1, [r3, #4]
 278:../01_Applcation/APPL_DMA_LTE/APPL_DMA_LTE.c **** 	APPL_DMA_LTE_CMD_APP.next = (void *)0;
 441              		.loc 1 278 2 is_stmt 1 view .LVU120
 278:../01_Applcation/APPL_DMA_LTE/APPL_DMA_LTE.c **** 	APPL_DMA_LTE_CMD_APP.next = (void *)0;
 442              		.loc 1 278 28 is_stmt 0 view .LVU121
 443 0066 DC60     		str	r4, [r3, #12]
 280:../01_Applcation/APPL_DMA_LTE/APPL_DMA_LTE.c **** 	APPL_DMA_IOCON_Init();
 444              		.loc 1 280 2 is_stmt 1 view .LVU122
 445 0068 FFF7FEFF 		bl	APPL_DMA_IOCON_Init
 446              	.LVL14:
 281:../01_Applcation/APPL_DMA_LTE/APPL_DMA_LTE.c **** }
 447              		.loc 1 281 1 is_stmt 0 view .LVU123
ARM GAS  C:\Users\minde\AppData\Local\Temp\ccleu24Z.s 			page 21


 448 006c 38BD     		pop	{r3, r4, r5, pc}
 449              	.L25:
 450 006e 00BF     		.align	2
 451              	.L24:
 452 0070 00000000 		.word	.LANCHOR2
 453 0074 00000000 		.word	.LANCHOR0
 454 0078 00000000 		.word	.LANCHOR5
 455 007c 00000000 		.word	.LANCHOR4
 456 0080 00000000 		.word	.LANCHOR6
 457 0084 00000000 		.word	.LC3
 458 0088 04000000 		.word	.LC4
 459 008c 00000000 		.word	APPL_DMA_LTE_OK
 460 0090 00000000 		.word	.LANCHOR7
 461 0094 10000000 		.word	.LC5
 462 0098 00000000 		.word	.LANCHOR8
 463 009c 14000000 		.word	.LC6
 464 00a0 1C000000 		.word	.LC7
 465 00a4 00000000 		.word	APPL_DMA_LTE_Error
 466 00a8 00000000 		.word	.LANCHOR9
 467 00ac 2C000000 		.word	.LC8
 468 00b0 34000000 		.word	.LC9
 469 00b4 00000000 		.word	APPL_DMA_LTE_APP
 470 00b8 00000000 		.word	.LANCHOR10
 471 00bc 44000000 		.word	.LC10
 472 00c0 48000000 		.word	.LC11
 473              		.cfi_endproc
 474              	.LFE292:
 476              		.section	.text.APPL_DMA_LTE_printf,"ax",%progbits
 477              		.align	1
 478              		.global	APPL_DMA_LTE_printf
 479              		.syntax unified
 480              		.thumb
 481              		.thumb_func
 483              	APPL_DMA_LTE_printf:
 484              	.LVL15:
 485              	.LFB293:
 314:../01_Applcation/APPL_DMA_LTE/APPL_DMA_LTE.c **** {
 486              		.loc 1 314 1 is_stmt 1 view -0
 487              		.cfi_startproc
 488              		@ args = 4, pretend = 16, frame = 104
 489              		@ frame_needed = 0, uses_anonymous_args = 1
 314:../01_Applcation/APPL_DMA_LTE/APPL_DMA_LTE.c **** {
 490              		.loc 1 314 1 is_stmt 0 view .LVU125
 491 0000 0FB4     		push	{r0, r1, r2, r3}
 492              	.LCFI3:
 493              		.cfi_def_cfa_offset 16
 494              		.cfi_offset 0, -16
 495              		.cfi_offset 1, -12
 496              		.cfi_offset 2, -8
 497              		.cfi_offset 3, -4
 498 0002 30B5     		push	{r4, r5, lr}
 499              	.LCFI4:
 500              		.cfi_def_cfa_offset 28
 501              		.cfi_offset 4, -28
 502              		.cfi_offset 5, -24
 503              		.cfi_offset 14, -20
 504 0004 9BB0     		sub	sp, sp, #108
ARM GAS  C:\Users\minde\AppData\Local\Temp\ccleu24Z.s 			page 22


 505              	.LCFI5:
 506              		.cfi_def_cfa_offset 136
 507 0006 1EAC     		add	r4, sp, #120
 508 0008 54F8045B 		ldr	r5, [r4], #4
 316:../01_Applcation/APPL_DMA_LTE/APPL_DMA_LTE.c **** 	uint8_t SerialBuffer[100];
 509              		.loc 1 316 2 is_stmt 1 view .LVU126
 317:../01_Applcation/APPL_DMA_LTE/APPL_DMA_LTE.c **** 	memset(SerialBuffer, 0, 100);
 510              		.loc 1 317 2 view .LVU127
 511 000c 6422     		movs	r2, #100
 512 000e 0021     		movs	r1, #0
 513 0010 01A8     		add	r0, sp, #4
 514 0012 FFF7FEFF 		bl	memset
 515              	.LVL16:
 318:../01_Applcation/APPL_DMA_LTE/APPL_DMA_LTE.c **** 	va_list args;
 516              		.loc 1 318 2 view .LVU128
 319:../01_Applcation/APPL_DMA_LTE/APPL_DMA_LTE.c **** 	va_start(args, format);
 517              		.loc 1 319 2 view .LVU129
 518 0016 0094     		str	r4, [sp]
 320:../01_Applcation/APPL_DMA_LTE/APPL_DMA_LTE.c **** 	vsprintf((char *)SerialBuffer, format, args);
 519              		.loc 1 320 2 view .LVU130
 520 0018 2246     		mov	r2, r4
 521 001a 2946     		mov	r1, r5
 522 001c 01A8     		add	r0, sp, #4
 523 001e FFF7FEFF 		bl	vsprintf
 524              	.LVL17:
 321:../01_Applcation/APPL_DMA_LTE/APPL_DMA_LTE.c **** 	va_end(args);
 525              		.loc 1 321 2 view .LVU131
 322:../01_Applcation/APPL_DMA_LTE/APPL_DMA_LTE.c **** 	HAL_UART_Transmit(&huart1, SerialBuffer, strlen((char *)SerialBuffer), 10);
 526              		.loc 1 322 2 view .LVU132
 322:../01_Applcation/APPL_DMA_LTE/APPL_DMA_LTE.c **** 	HAL_UART_Transmit(&huart1, SerialBuffer, strlen((char *)SerialBuffer), 10);
 527              		.loc 1 322 43 is_stmt 0 view .LVU133
 528 0022 01A8     		add	r0, sp, #4
 529 0024 FFF7FEFF 		bl	strlen
 530              	.LVL18:
 322:../01_Applcation/APPL_DMA_LTE/APPL_DMA_LTE.c **** 	HAL_UART_Transmit(&huart1, SerialBuffer, strlen((char *)SerialBuffer), 10);
 531              		.loc 1 322 2 view .LVU134
 532 0028 0A23     		movs	r3, #10
 533 002a 82B2     		uxth	r2, r0
 534 002c 01A9     		add	r1, sp, #4
 535 002e 0448     		ldr	r0, .L28
 536 0030 FFF7FEFF 		bl	HAL_UART_Transmit
 537              	.LVL19:
 324:../01_Applcation/APPL_DMA_LTE/APPL_DMA_LTE.c **** }
 538              		.loc 1 324 1 view .LVU135
 539 0034 1BB0     		add	sp, sp, #108
 540              	.LCFI6:
 541              		.cfi_def_cfa_offset 28
 542              		@ sp needed
 543 0036 BDE83040 		pop	{r4, r5, lr}
 544              	.LCFI7:
 545              		.cfi_restore 14
 546              		.cfi_restore 5
 547              		.cfi_restore 4
 548              		.cfi_def_cfa_offset 16
 549 003a 04B0     		add	sp, sp, #16
 550              	.LCFI8:
 551              		.cfi_restore 3
ARM GAS  C:\Users\minde\AppData\Local\Temp\ccleu24Z.s 			page 23


 552              		.cfi_restore 2
 553              		.cfi_restore 1
 554              		.cfi_restore 0
 555              		.cfi_def_cfa_offset 0
 556 003c 7047     		bx	lr
 557              	.L29:
 558 003e 00BF     		.align	2
 559              	.L28:
 560 0040 00000000 		.word	huart1
 561              		.cfi_endproc
 562              	.LFE293:
 564              		.section	.rodata.APPL_LTE_MQTT_PUBLISH.str1.4,"aMS",%progbits,1
 565              		.align	2
 566              	.LC12:
 567 0000 41542B53 		.ascii	"AT+SMPUB=\"UUCON/%d/%s\",%d,0,0\015\012\000"
 567      4D505542 
 567      3D225555 
 567      434F4E2F 
 567      25642F25 
 568              		.align	2
 569              	.LC13:
 570 0020 25730D0A 		.ascii	"%s\015\012\000"
 570      00
 571              		.section	.text.APPL_LTE_MQTT_PUBLISH,"ax",%progbits
 572              		.align	1
 573              		.global	APPL_LTE_MQTT_PUBLISH
 574              		.syntax unified
 575              		.thumb
 576              		.thumb_func
 578              	APPL_LTE_MQTT_PUBLISH:
 579              	.LVL20:
 580              	.LFB294:
 337:../01_Applcation/APPL_DMA_LTE/APPL_DMA_LTE.c **** {
 581              		.loc 1 337 1 is_stmt 1 view -0
 582              		.cfi_startproc
 583              		@ args = 4, pretend = 12, frame = 104
 584              		@ frame_needed = 0, uses_anonymous_args = 1
 337:../01_Applcation/APPL_DMA_LTE/APPL_DMA_LTE.c **** {
 585              		.loc 1 337 1 is_stmt 0 view .LVU137
 586 0000 0EB4     		push	{r1, r2, r3}
 587              	.LCFI9:
 588              		.cfi_def_cfa_offset 12
 589              		.cfi_offset 1, -12
 590              		.cfi_offset 2, -8
 591              		.cfi_offset 3, -4
 592 0002 30B5     		push	{r4, r5, lr}
 593              	.LCFI10:
 594              		.cfi_def_cfa_offset 24
 595              		.cfi_offset 4, -24
 596              		.cfi_offset 5, -20
 597              		.cfi_offset 14, -16
 598 0004 9AB0     		sub	sp, sp, #104
 599              	.LCFI11:
 600              		.cfi_def_cfa_offset 128
 338:../01_Applcation/APPL_DMA_LTE/APPL_DMA_LTE.c **** 	if (APPL_DMA_LTE_MQTT_ONLINE == 1)
 601              		.loc 1 338 2 is_stmt 1 view .LVU138
 338:../01_Applcation/APPL_DMA_LTE/APPL_DMA_LTE.c **** 	if (APPL_DMA_LTE_MQTT_ONLINE == 1)
ARM GAS  C:\Users\minde\AppData\Local\Temp\ccleu24Z.s 			page 24


 602              		.loc 1 338 31 is_stmt 0 view .LVU139
 603 0006 124B     		ldr	r3, .L34
 604 0008 1B68     		ldr	r3, [r3]
 338:../01_Applcation/APPL_DMA_LTE/APPL_DMA_LTE.c **** 	if (APPL_DMA_LTE_MQTT_ONLINE == 1)
 605              		.loc 1 338 5 view .LVU140
 606 000a 012B     		cmp	r3, #1
 607 000c 04D0     		beq	.L33
 608              	.LVL21:
 609              	.L30:
 350:../01_Applcation/APPL_DMA_LTE/APPL_DMA_LTE.c **** }
 610              		.loc 1 350 1 view .LVU141
 611 000e 1AB0     		add	sp, sp, #104
 612              	.LCFI12:
 613              		.cfi_remember_state
 614              		.cfi_def_cfa_offset 24
 615              		@ sp needed
 616 0010 BDE83040 		pop	{r4, r5, lr}
 617              	.LCFI13:
 618              		.cfi_restore 14
 619              		.cfi_restore 5
 620              		.cfi_restore 4
 621              		.cfi_def_cfa_offset 12
 622 0014 03B0     		add	sp, sp, #12
 623              	.LCFI14:
 624              		.cfi_restore 3
 625              		.cfi_restore 2
 626              		.cfi_restore 1
 627              		.cfi_def_cfa_offset 0
 628 0016 7047     		bx	lr
 629              	.LVL22:
 630              	.L33:
 631              	.LCFI15:
 632              		.cfi_restore_state
 350:../01_Applcation/APPL_DMA_LTE/APPL_DMA_LTE.c **** }
 633              		.loc 1 350 1 view .LVU142
 634 0018 0446     		mov	r4, r0
 635              	.LBB2:
 341:../01_Applcation/APPL_DMA_LTE/APPL_DMA_LTE.c **** 		uint8_t SerialBuffer[100];
 636              		.loc 1 341 3 is_stmt 1 view .LVU143
 342:../01_Applcation/APPL_DMA_LTE/APPL_DMA_LTE.c **** 		memset(SerialBuffer, 0, 100);
 637              		.loc 1 342 3 view .LVU144
 638 001a 6422     		movs	r2, #100
 639 001c 0021     		movs	r1, #0
 640 001e 01A8     		add	r0, sp, #4
 641 0020 FFF7FEFF 		bl	memset
 642              	.LVL23:
 343:../01_Applcation/APPL_DMA_LTE/APPL_DMA_LTE.c **** 		va_list args;
 643              		.loc 1 343 3 view .LVU145
 344:../01_Applcation/APPL_DMA_LTE/APPL_DMA_LTE.c **** 		va_start(args, format);
 644              		.loc 1 344 3 view .LVU146
 645 0024 1EAA     		add	r2, sp, #120
 646 0026 0092     		str	r2, [sp]
 345:../01_Applcation/APPL_DMA_LTE/APPL_DMA_LTE.c **** 		vsprintf((char *)SerialBuffer, format, args);
 647              		.loc 1 345 3 view .LVU147
 648 0028 1D99     		ldr	r1, [sp, #116]
 649 002a 01A8     		add	r0, sp, #4
 650 002c FFF7FEFF 		bl	vsprintf
ARM GAS  C:\Users\minde\AppData\Local\Temp\ccleu24Z.s 			page 25


 651              	.LVL24:
 346:../01_Applcation/APPL_DMA_LTE/APPL_DMA_LTE.c **** 		va_end(args);
 652              		.loc 1 346 3 view .LVU148
 347:../01_Applcation/APPL_DMA_LTE/APPL_DMA_LTE.c **** 		APPL_DMA_LTE_printf("AT+SMPUB=\"UUCON/%d/%s\",%d,0,0\r\n", APPL_DMA_IOCON_d.IOT_ID, MQTT_Topic, s
 653              		.loc 1 347 3 view .LVU149
 347:../01_Applcation/APPL_DMA_LTE/APPL_DMA_LTE.c **** 		APPL_DMA_LTE_printf("AT+SMPUB=\"UUCON/%d/%s\",%d,0,0\r\n", APPL_DMA_IOCON_d.IOT_ID, MQTT_Topic, s
 654              		.loc 1 347 78 is_stmt 0 view .LVU150
 655 0030 084B     		ldr	r3, .L34+4
 656 0032 1D88     		ldrh	r5, [r3]
 347:../01_Applcation/APPL_DMA_LTE/APPL_DMA_LTE.c **** 		APPL_DMA_LTE_printf("AT+SMPUB=\"UUCON/%d/%s\",%d,0,0\r\n", APPL_DMA_IOCON_d.IOT_ID, MQTT_Topic, s
 657              		.loc 1 347 3 view .LVU151
 658 0034 01A8     		add	r0, sp, #4
 659 0036 FFF7FEFF 		bl	strlen
 660              	.LVL25:
 661 003a 0346     		mov	r3, r0
 662 003c 2246     		mov	r2, r4
 663 003e 2946     		mov	r1, r5
 664 0040 0548     		ldr	r0, .L34+8
 665 0042 FFF7FEFF 		bl	APPL_DMA_LTE_printf
 666              	.LVL26:
 348:../01_Applcation/APPL_DMA_LTE/APPL_DMA_LTE.c **** 		APPL_DMA_LTE_printf("%s\r\n", SerialBuffer);
 667              		.loc 1 348 3 is_stmt 1 view .LVU152
 668 0046 01A9     		add	r1, sp, #4
 669 0048 0448     		ldr	r0, .L34+12
 670 004a FFF7FEFF 		bl	APPL_DMA_LTE_printf
 671              	.LVL27:
 672              	.LBE2:
 350:../01_Applcation/APPL_DMA_LTE/APPL_DMA_LTE.c **** }
 673              		.loc 1 350 1 is_stmt 0 view .LVU153
 674 004e DEE7     		b	.L30
 675              	.L35:
 676              		.align	2
 677              	.L34:
 678 0050 00000000 		.word	.LANCHOR2
 679 0054 00000000 		.word	.LANCHOR3
 680 0058 00000000 		.word	.LC12
 681 005c 20000000 		.word	.LC13
 682              		.cfi_endproc
 683              	.LFE294:
 685              		.section	.text.APPL_DMA_LTE_SIM7000G_Error_Handel,"ax",%progbits
 686              		.align	1
 687              		.global	APPL_DMA_LTE_SIM7000G_Error_Handel
 688              		.syntax unified
 689              		.thumb
 690              		.thumb_func
 692              	APPL_DMA_LTE_SIM7000G_Error_Handel:
 693              	.LFB296:
 499:../01_Applcation/APPL_DMA_LTE/APPL_DMA_LTE.c **** {
 694              		.loc 1 499 1 is_stmt 1 view -0
 695              		.cfi_startproc
 696              		@ args = 0, pretend = 0, frame = 0
 697              		@ frame_needed = 0, uses_anonymous_args = 0
 698              		@ link register save eliminated.
 500:../01_Applcation/APPL_DMA_LTE/APPL_DMA_LTE.c **** 	if (APPL_DMA_LTE_SIM7000G_ErrorCount >= 30)
 699              		.loc 1 500 2 view .LVU155
 500:../01_Applcation/APPL_DMA_LTE/APPL_DMA_LTE.c **** 	if (APPL_DMA_LTE_SIM7000G_ErrorCount >= 30)
 700              		.loc 1 500 39 is_stmt 0 view .LVU156
ARM GAS  C:\Users\minde\AppData\Local\Temp\ccleu24Z.s 			page 26


 701 0000 044B     		ldr	r3, .L38
 702 0002 1B88     		ldrh	r3, [r3]
 500:../01_Applcation/APPL_DMA_LTE/APPL_DMA_LTE.c **** 	if (APPL_DMA_LTE_SIM7000G_ErrorCount >= 30)
 703              		.loc 1 500 5 view .LVU157
 704 0004 1D2B     		cmp	r3, #29
 705 0006 04D9     		bls	.L36
 503:../01_Applcation/APPL_DMA_LTE/APPL_DMA_LTE.c **** 		APPL_DMA_LTE_SIM7000G_Init_Stage = 0;
 706              		.loc 1 503 3 is_stmt 1 view .LVU158
 503:../01_Applcation/APPL_DMA_LTE/APPL_DMA_LTE.c **** 		APPL_DMA_LTE_SIM7000G_Init_Stage = 0;
 707              		.loc 1 503 36 is_stmt 0 view .LVU159
 708 0008 0023     		movs	r3, #0
 709 000a 034A     		ldr	r2, .L38+4
 710 000c 1360     		str	r3, [r2]
 504:../01_Applcation/APPL_DMA_LTE/APPL_DMA_LTE.c **** 		APPL_DMA_LTE_SIM7000G_ErrorCount = 0;
 711              		.loc 1 504 3 is_stmt 1 view .LVU160
 504:../01_Applcation/APPL_DMA_LTE/APPL_DMA_LTE.c **** 		APPL_DMA_LTE_SIM7000G_ErrorCount = 0;
 712              		.loc 1 504 36 is_stmt 0 view .LVU161
 713 000e 014A     		ldr	r2, .L38
 714 0010 1380     		strh	r3, [r2]	@ movhi
 715              	.L36:
 506:../01_Applcation/APPL_DMA_LTE/APPL_DMA_LTE.c **** }
 716              		.loc 1 506 1 view .LVU162
 717 0012 7047     		bx	lr
 718              	.L39:
 719              		.align	2
 720              	.L38:
 721 0014 00000000 		.word	.LANCHOR0
 722 0018 00000000 		.word	.LANCHOR1
 723              		.cfi_endproc
 724              	.LFE296:
 726              		.section	.rodata.APPL_DMA_LTE_SIM7000G_Init.str1.4,"aMS",%progbits,1
 727              		.align	2
 728              	.LC14:
 729 0000 41540D0A 		.ascii	"AT\015\012\000"
 729      00
 730 0005 000000   		.align	2
 731              	.LC15:
 732 0008 41544530 		.ascii	"ATE0\015\012\000"
 732      0D0A00
 733 000f 00       		.align	2
 734              	.LC16:
 735 0010 41542B53 		.ascii	"AT+SMCONF=\"CLIENTID\",\"id\"\015\012\000"
 735      4D434F4E 
 735      463D2243 
 735      4C49454E 
 735      54494422 
 736              		.align	2
 737              	.LC17:
 738 002c 41542B53 		.ascii	"AT+SMCONF=\"KEEPTIME\",60\015\012\000"
 738      4D434F4E 
 738      463D224B 
 738      45455054 
 738      494D4522 
 739 0046 0000     		.align	2
 740              	.LC18:
 741 0048 41542B53 		.ascii	"AT+SMCONF=\"URL\",\"%d.%d.%d.%d\",\"%d\"\015\012\000"
 741      4D434F4E 
ARM GAS  C:\Users\minde\AppData\Local\Temp\ccleu24Z.s 			page 27


 741      463D2255 
 741      524C222C 
 741      2225642E 
 742 006d 000000   		.align	2
 743              	.LC19:
 744 0070 41542B53 		.ascii	"AT+SMCONF=\"USERNAME\",\"%s\"\015\012\000"
 744      4D434F4E 
 744      463D2255 
 744      5345524E 
 744      414D4522 
 745              		.align	2
 746              	.LC20:
 747 008c 41542B53 		.ascii	"AT+SMCONF=\"PASSWORD\",\"%s\"\015\012\000"
 747      4D434F4E 
 747      463D2250 
 747      41535357 
 747      4F524422 
 748              		.align	2
 749              	.LC21:
 750 00a8 41542B53 		.ascii	"AT+SMCONF=\"CLEANSS\",1\015\012\000"
 750      4D434F4E 
 750      463D2243 
 750      4C45414E 
 750      5353222C 
 751              		.align	2
 752              	.LC22:
 753 00c0 41542B53 		.ascii	"AT+SMCONF=\"QOS\",0\015\012\000"
 753      4D434F4E 
 753      463D2251 
 753      4F53222C 
 753      300D0A00 
 754              		.align	2
 755              	.LC23:
 756 00d4 41542B53 		.ascii	"AT+SMCONF=\"RETAIN\",0\015\012\000"
 756      4D434F4E 
 756      463D2252 
 756      45544149 
 756      4E222C30 
 757 00eb 00       		.align	2
 758              	.LC24:
 759 00ec 41542B43 		.ascii	"AT+CMNB=3\015\012\000"
 759      4D4E423D 
 759      330D0A00 
 760              		.align	2
 761              	.LC25:
 762 00f8 41542B43 		.ascii	"AT+CNACT=1,\"cmnet\"\015\012\000"
 762      4E414354 
 762      3D312C22 
 762      636D6E65 
 762      74220D0A 
 763              		.section	.text.APPL_DMA_LTE_SIM7000G_Init,"ax",%progbits
 764              		.align	1
 765              		.global	APPL_DMA_LTE_SIM7000G_Init
 766              		.syntax unified
 767              		.thumb
 768              		.thumb_func
 770              	APPL_DMA_LTE_SIM7000G_Init:
ARM GAS  C:\Users\minde\AppData\Local\Temp\ccleu24Z.s 			page 28


 771              	.LFB295:
 363:../01_Applcation/APPL_DMA_LTE/APPL_DMA_LTE.c **** {
 772              		.loc 1 363 1 is_stmt 1 view -0
 773              		.cfi_startproc
 774              		@ args = 0, pretend = 0, frame = 0
 775              		@ frame_needed = 0, uses_anonymous_args = 0
 776 0000 00B5     		push	{lr}
 777              	.LCFI16:
 778              		.cfi_def_cfa_offset 4
 779              		.cfi_offset 14, -4
 780 0002 83B0     		sub	sp, sp, #12
 781              	.LCFI17:
 782              		.cfi_def_cfa_offset 16
 365:../01_Applcation/APPL_DMA_LTE/APPL_DMA_LTE.c **** 	switch (APPL_DMA_LTE_SIM7000G_Init_Stage)
 783              		.loc 1 365 2 view .LVU164
 784 0004 524B     		ldr	r3, .L60
 785 0006 1B68     		ldr	r3, [r3]
 786 0008 1B2B     		cmp	r3, #27
 787 000a 00F29B80 		bhi	.L41
 788 000e DFE803F0 		tbb	[pc, r3]
 789              	.L43:
 790 0012 0E       		.byte	(.L58-.L43)/2
 791 0013 1B       		.byte	(.L57-.L43)/2
 792 0014 28       		.byte	(.L56-.L43)/2
 793 0015 30       		.byte	(.L55-.L43)/2
 794 0016 99       		.byte	(.L41-.L43)/2
 795 0017 38       		.byte	(.L54-.L43)/2
 796 0018 99       		.byte	(.L41-.L43)/2
 797 0019 40       		.byte	(.L53-.L43)/2
 798 001a 99       		.byte	(.L41-.L43)/2
 799 001b 48       		.byte	(.L52-.L43)/2
 800 001c 99       		.byte	(.L41-.L43)/2
 801 001d 58       		.byte	(.L51-.L43)/2
 802 001e 99       		.byte	(.L41-.L43)/2
 803 001f 61       		.byte	(.L50-.L43)/2
 804 0020 99       		.byte	(.L41-.L43)/2
 805 0021 6A       		.byte	(.L49-.L43)/2
 806 0022 99       		.byte	(.L41-.L43)/2
 807 0023 72       		.byte	(.L48-.L43)/2
 808 0024 99       		.byte	(.L41-.L43)/2
 809 0025 7A       		.byte	(.L47-.L43)/2
 810 0026 99       		.byte	(.L41-.L43)/2
 811 0027 82       		.byte	(.L46-.L43)/2
 812 0028 99       		.byte	(.L41-.L43)/2
 813 0029 8A       		.byte	(.L45-.L43)/2
 814 002a 99       		.byte	(.L41-.L43)/2
 815 002b 92       		.byte	(.L44-.L43)/2
 816 002c 99       		.byte	(.L41-.L43)/2
 817 002d 16       		.byte	(.L42-.L43)/2
 818              		.p2align 1
 819              	.L58:
 370:../01_Applcation/APPL_DMA_LTE/APPL_DMA_LTE.c **** 		asm("nop");
 820              		.loc 1 370 3 view .LVU165
 821              		.syntax unified
 822              	@ 370 "../01_Applcation/APPL_DMA_LTE/APPL_DMA_LTE.c" 1
 823 002e 00BF     		nop
 824              	@ 0 "" 2
ARM GAS  C:\Users\minde\AppData\Local\Temp\ccleu24Z.s 			page 29


 371:../01_Applcation/APPL_DMA_LTE/APPL_DMA_LTE.c **** 		asm("nop");
 825              		.loc 1 371 3 view .LVU166
 826              	@ 371 "../01_Applcation/APPL_DMA_LTE/APPL_DMA_LTE.c" 1
 827 0030 00BF     		nop
 828              	@ 0 "" 2
 372:../01_Applcation/APPL_DMA_LTE/APPL_DMA_LTE.c **** 		asm("nop");
 829              		.loc 1 372 3 view .LVU167
 830              	@ 372 "../01_Applcation/APPL_DMA_LTE/APPL_DMA_LTE.c" 1
 831 0032 00BF     		nop
 832              	@ 0 "" 2
 373:../01_Applcation/APPL_DMA_LTE/APPL_DMA_LTE.c **** 		asm("nop");
 833              		.loc 1 373 3 view .LVU168
 834              	@ 373 "../01_Applcation/APPL_DMA_LTE/APPL_DMA_LTE.c" 1
 835 0034 00BF     		nop
 836              	@ 0 "" 2
 375:../01_Applcation/APPL_DMA_LTE/APPL_DMA_LTE.c **** 		APPL_DMA_LTE_SIM7000G_Init_Stage++;
 837              		.loc 1 375 3 view .LVU169
 375:../01_Applcation/APPL_DMA_LTE/APPL_DMA_LTE.c **** 		APPL_DMA_LTE_SIM7000G_Init_Stage++;
 838              		.loc 1 375 35 is_stmt 0 view .LVU170
 839              		.thumb
 840              		.syntax unified
 841 0036 464A     		ldr	r2, .L60
 842 0038 1368     		ldr	r3, [r2]
 843 003a 0133     		adds	r3, r3, #1
 844 003c 1360     		str	r3, [r2]
 376:../01_Applcation/APPL_DMA_LTE/APPL_DMA_LTE.c **** 		break;
 845              		.loc 1 376 3 is_stmt 1 view .LVU171
 846              	.L42:
 485:../01_Applcation/APPL_DMA_LTE/APPL_DMA_LTE.c **** 	APPL_DMA_LTE_SIM7000G_Error_Handel();
 847              		.loc 1 485 2 view .LVU172
 848 003e FFF7FEFF 		bl	APPL_DMA_LTE_SIM7000G_Error_Handel
 849              	.LVL28:
 486:../01_Applcation/APPL_DMA_LTE/APPL_DMA_LTE.c **** }
 850              		.loc 1 486 1 is_stmt 0 view .LVU173
 851 0042 03B0     		add	sp, sp, #12
 852              	.LCFI18:
 853              		.cfi_remember_state
 854              		.cfi_def_cfa_offset 4
 855              		@ sp needed
 856 0044 5DF804FB 		ldr	pc, [sp], #4
 857              	.L57:
 858              	.LCFI19:
 859              		.cfi_restore_state
 381:../01_Applcation/APPL_DMA_LTE/APPL_DMA_LTE.c **** 		APPL_DMA_LTE_TimemerCount++;
 860              		.loc 1 381 3 is_stmt 1 view .LVU174
 381:../01_Applcation/APPL_DMA_LTE/APPL_DMA_LTE.c **** 		APPL_DMA_LTE_TimemerCount++;
 861              		.loc 1 381 28 is_stmt 0 view .LVU175
 862 0048 4249     		ldr	r1, .L60+4
 863 004a 0A88     		ldrh	r2, [r1]
 864 004c 0132     		adds	r2, r2, #1
 865 004e 92B2     		uxth	r2, r2
 866 0050 0A80     		strh	r2, [r1]	@ movhi
 382:../01_Applcation/APPL_DMA_LTE/APPL_DMA_LTE.c **** 		if (APPL_DMA_LTE_TimemerCount == 15)
 867              		.loc 1 382 3 is_stmt 1 view .LVU176
 382:../01_Applcation/APPL_DMA_LTE/APPL_DMA_LTE.c **** 		if (APPL_DMA_LTE_TimemerCount == 15)
 868              		.loc 1 382 6 is_stmt 0 view .LVU177
 869 0052 0F2A     		cmp	r2, #15
ARM GAS  C:\Users\minde\AppData\Local\Temp\ccleu24Z.s 			page 30


 870 0054 F3D1     		bne	.L42
 384:../01_Applcation/APPL_DMA_LTE/APPL_DMA_LTE.c **** 			APPL_DMA_LTE_SIM7000G_Init_Stage++;
 871              		.loc 1 384 4 is_stmt 1 view .LVU178
 384:../01_Applcation/APPL_DMA_LTE/APPL_DMA_LTE.c **** 			APPL_DMA_LTE_SIM7000G_Init_Stage++;
 872              		.loc 1 384 36 is_stmt 0 view .LVU179
 873 0056 0133     		adds	r3, r3, #1
 874 0058 3D4A     		ldr	r2, .L60
 875 005a 1360     		str	r3, [r2]
 385:../01_Applcation/APPL_DMA_LTE/APPL_DMA_LTE.c **** 			APPL_DMA_LTE_TimemerCount = 0;
 876              		.loc 1 385 4 is_stmt 1 view .LVU180
 385:../01_Applcation/APPL_DMA_LTE/APPL_DMA_LTE.c **** 			APPL_DMA_LTE_TimemerCount = 0;
 877              		.loc 1 385 30 is_stmt 0 view .LVU181
 878 005c 0022     		movs	r2, #0
 879 005e 0A80     		strh	r2, [r1]	@ movhi
 880 0060 EDE7     		b	.L42
 881              	.L56:
 392:../01_Applcation/APPL_DMA_LTE/APPL_DMA_LTE.c **** 		APPL_DMA_LTE_printf("AT\r\n");
 882              		.loc 1 392 3 is_stmt 1 view .LVU182
 883 0062 3D48     		ldr	r0, .L60+8
 884 0064 FFF7FEFF 		bl	APPL_DMA_LTE_printf
 885              	.LVL29:
 393:../01_Applcation/APPL_DMA_LTE/APPL_DMA_LTE.c **** 		APPL_DMA_LTE_SIM7000G_ErrorCount++;
 886              		.loc 1 393 3 view .LVU183
 393:../01_Applcation/APPL_DMA_LTE/APPL_DMA_LTE.c **** 		APPL_DMA_LTE_SIM7000G_ErrorCount++;
 887              		.loc 1 393 35 is_stmt 0 view .LVU184
 888 0068 3C4A     		ldr	r2, .L60+12
 889 006a 1388     		ldrh	r3, [r2]
 890 006c 0133     		adds	r3, r3, #1
 891 006e 1380     		strh	r3, [r2]	@ movhi
 394:../01_Applcation/APPL_DMA_LTE/APPL_DMA_LTE.c **** 		break;
 892              		.loc 1 394 3 is_stmt 1 view .LVU185
 893 0070 E5E7     		b	.L42
 894              	.L55:
 398:../01_Applcation/APPL_DMA_LTE/APPL_DMA_LTE.c **** 		APPL_DMA_LTE_printf("ATE0\r\n");
 895              		.loc 1 398 3 view .LVU186
 896 0072 3B48     		ldr	r0, .L60+16
 897 0074 FFF7FEFF 		bl	APPL_DMA_LTE_printf
 898              	.LVL30:
 399:../01_Applcation/APPL_DMA_LTE/APPL_DMA_LTE.c **** 		APPL_DMA_LTE_SIM7000G_Init_Stage++;
 899              		.loc 1 399 3 view .LVU187
 399:../01_Applcation/APPL_DMA_LTE/APPL_DMA_LTE.c **** 		APPL_DMA_LTE_SIM7000G_Init_Stage++;
 900              		.loc 1 399 35 is_stmt 0 view .LVU188
 901 0078 354A     		ldr	r2, .L60
 902 007a 1368     		ldr	r3, [r2]
 903 007c 0133     		adds	r3, r3, #1
 904 007e 1360     		str	r3, [r2]
 400:../01_Applcation/APPL_DMA_LTE/APPL_DMA_LTE.c **** 		break;
 905              		.loc 1 400 3 is_stmt 1 view .LVU189
 906 0080 DDE7     		b	.L42
 907              	.L54:
 404:../01_Applcation/APPL_DMA_LTE/APPL_DMA_LTE.c **** 		APPL_DMA_LTE_printf("AT+SMCONF=\"CLIENTID\",\"id\"\r\n");
 908              		.loc 1 404 3 view .LVU190
 909 0082 3848     		ldr	r0, .L60+20
 910 0084 FFF7FEFF 		bl	APPL_DMA_LTE_printf
 911              	.LVL31:
 405:../01_Applcation/APPL_DMA_LTE/APPL_DMA_LTE.c **** 		APPL_DMA_LTE_SIM7000G_Init_Stage++;
 912              		.loc 1 405 3 view .LVU191
ARM GAS  C:\Users\minde\AppData\Local\Temp\ccleu24Z.s 			page 31


 405:../01_Applcation/APPL_DMA_LTE/APPL_DMA_LTE.c **** 		APPL_DMA_LTE_SIM7000G_Init_Stage++;
 913              		.loc 1 405 35 is_stmt 0 view .LVU192
 914 0088 314A     		ldr	r2, .L60
 915 008a 1368     		ldr	r3, [r2]
 916 008c 0133     		adds	r3, r3, #1
 917 008e 1360     		str	r3, [r2]
 406:../01_Applcation/APPL_DMA_LTE/APPL_DMA_LTE.c **** 		break;
 918              		.loc 1 406 3 is_stmt 1 view .LVU193
 919 0090 D5E7     		b	.L42
 920              	.L53:
 410:../01_Applcation/APPL_DMA_LTE/APPL_DMA_LTE.c **** 		APPL_DMA_LTE_printf("AT+SMCONF=\"KEEPTIME\",60\r\n");
 921              		.loc 1 410 3 view .LVU194
 922 0092 3548     		ldr	r0, .L60+24
 923 0094 FFF7FEFF 		bl	APPL_DMA_LTE_printf
 924              	.LVL32:
 411:../01_Applcation/APPL_DMA_LTE/APPL_DMA_LTE.c **** 		APPL_DMA_LTE_SIM7000G_Init_Stage++;
 925              		.loc 1 411 3 view .LVU195
 411:../01_Applcation/APPL_DMA_LTE/APPL_DMA_LTE.c **** 		APPL_DMA_LTE_SIM7000G_Init_Stage++;
 926              		.loc 1 411 35 is_stmt 0 view .LVU196
 927 0098 2D4A     		ldr	r2, .L60
 928 009a 1368     		ldr	r3, [r2]
 929 009c 0133     		adds	r3, r3, #1
 930 009e 1360     		str	r3, [r2]
 412:../01_Applcation/APPL_DMA_LTE/APPL_DMA_LTE.c **** 		break;
 931              		.loc 1 412 3 is_stmt 1 view .LVU197
 932 00a0 CDE7     		b	.L42
 933              	.L52:
 416:../01_Applcation/APPL_DMA_LTE/APPL_DMA_LTE.c **** 		APPL_DMA_LTE_printf("AT+SMCONF=\"URL\",\"%d.%d.%d.%d\",\"%d\"\r\n",
 934              		.loc 1 416 3 view .LVU198
 417:../01_Applcation/APPL_DMA_LTE/APPL_DMA_LTE.c **** 							APPL_DMA_IOCON_d.MQTT_IP0,
 935              		.loc 1 417 24 is_stmt 0 view .LVU199
 936 00a2 3249     		ldr	r1, .L60+28
 420:../01_Applcation/APPL_DMA_LTE/APPL_DMA_LTE.c **** 							APPL_DMA_IOCON_d.MQTT_IP3,
 937              		.loc 1 420 24 view .LVU200
 938 00a4 CB79     		ldrb	r3, [r1, #7]	@ zero_extendqisi2
 421:../01_Applcation/APPL_DMA_LTE/APPL_DMA_LTE.c **** 							APPL_DMA_IOCON_d.MQTT_PORT);
 939              		.loc 1 421 24 view .LVU201
 940 00a6 4A88     		ldrh	r2, [r1, #2]
 416:../01_Applcation/APPL_DMA_LTE/APPL_DMA_LTE.c **** 		APPL_DMA_LTE_printf("AT+SMCONF=\"URL\",\"%d.%d.%d.%d\",\"%d\"\r\n",
 941              		.loc 1 416 3 view .LVU202
 942 00a8 0192     		str	r2, [sp, #4]
 943 00aa 0093     		str	r3, [sp]
 944 00ac 8B79     		ldrb	r3, [r1, #6]	@ zero_extendqisi2
 945 00ae 4A79     		ldrb	r2, [r1, #5]	@ zero_extendqisi2
 946 00b0 0979     		ldrb	r1, [r1, #4]	@ zero_extendqisi2
 947 00b2 2F48     		ldr	r0, .L60+32
 948 00b4 FFF7FEFF 		bl	APPL_DMA_LTE_printf
 949              	.LVL33:
 422:../01_Applcation/APPL_DMA_LTE/APPL_DMA_LTE.c **** 		APPL_DMA_LTE_SIM7000G_Init_Stage++;
 950              		.loc 1 422 3 is_stmt 1 view .LVU203
 422:../01_Applcation/APPL_DMA_LTE/APPL_DMA_LTE.c **** 		APPL_DMA_LTE_SIM7000G_Init_Stage++;
 951              		.loc 1 422 35 is_stmt 0 view .LVU204
 952 00b8 254A     		ldr	r2, .L60
 953 00ba 1368     		ldr	r3, [r2]
 954 00bc 0133     		adds	r3, r3, #1
 955 00be 1360     		str	r3, [r2]
 423:../01_Applcation/APPL_DMA_LTE/APPL_DMA_LTE.c **** 		break;
ARM GAS  C:\Users\minde\AppData\Local\Temp\ccleu24Z.s 			page 32


 956              		.loc 1 423 3 is_stmt 1 view .LVU205
 957 00c0 BDE7     		b	.L42
 958              	.L51:
 427:../01_Applcation/APPL_DMA_LTE/APPL_DMA_LTE.c **** 		APPL_DMA_LTE_printf("AT+SMCONF=\"USERNAME\",\"%s\"\r\n", APPL_DMA_IOCON_d.MQTT_USER);
 959              		.loc 1 427 3 view .LVU206
 960 00c2 2C49     		ldr	r1, .L60+36
 961 00c4 2C48     		ldr	r0, .L60+40
 962 00c6 FFF7FEFF 		bl	APPL_DMA_LTE_printf
 963              	.LVL34:
 428:../01_Applcation/APPL_DMA_LTE/APPL_DMA_LTE.c **** 		APPL_DMA_LTE_SIM7000G_Init_Stage++;
 964              		.loc 1 428 3 view .LVU207
 428:../01_Applcation/APPL_DMA_LTE/APPL_DMA_LTE.c **** 		APPL_DMA_LTE_SIM7000G_Init_Stage++;
 965              		.loc 1 428 35 is_stmt 0 view .LVU208
 966 00ca 214A     		ldr	r2, .L60
 967 00cc 1368     		ldr	r3, [r2]
 968 00ce 0133     		adds	r3, r3, #1
 969 00d0 1360     		str	r3, [r2]
 429:../01_Applcation/APPL_DMA_LTE/APPL_DMA_LTE.c **** 		break;
 970              		.loc 1 429 3 is_stmt 1 view .LVU209
 971 00d2 B4E7     		b	.L42
 972              	.L50:
 433:../01_Applcation/APPL_DMA_LTE/APPL_DMA_LTE.c **** 		APPL_DMA_LTE_printf("AT+SMCONF=\"PASSWORD\",\"%s\"\r\n", APPL_DMA_IOCON_d.MQTT_PASS);
 973              		.loc 1 433 3 view .LVU210
 974 00d4 2949     		ldr	r1, .L60+44
 975 00d6 2A48     		ldr	r0, .L60+48
 976 00d8 FFF7FEFF 		bl	APPL_DMA_LTE_printf
 977              	.LVL35:
 434:../01_Applcation/APPL_DMA_LTE/APPL_DMA_LTE.c **** 		APPL_DMA_LTE_SIM7000G_Init_Stage++;
 978              		.loc 1 434 3 view .LVU211
 434:../01_Applcation/APPL_DMA_LTE/APPL_DMA_LTE.c **** 		APPL_DMA_LTE_SIM7000G_Init_Stage++;
 979              		.loc 1 434 35 is_stmt 0 view .LVU212
 980 00dc 1C4A     		ldr	r2, .L60
 981 00de 1368     		ldr	r3, [r2]
 982 00e0 0133     		adds	r3, r3, #1
 983 00e2 1360     		str	r3, [r2]
 435:../01_Applcation/APPL_DMA_LTE/APPL_DMA_LTE.c **** 		break;
 984              		.loc 1 435 3 is_stmt 1 view .LVU213
 985 00e4 ABE7     		b	.L42
 986              	.L49:
 439:../01_Applcation/APPL_DMA_LTE/APPL_DMA_LTE.c **** 		APPL_DMA_LTE_printf("AT+SMCONF=\"CLEANSS\",1\r\n");
 987              		.loc 1 439 3 view .LVU214
 988 00e6 2748     		ldr	r0, .L60+52
 989 00e8 FFF7FEFF 		bl	APPL_DMA_LTE_printf
 990              	.LVL36:
 440:../01_Applcation/APPL_DMA_LTE/APPL_DMA_LTE.c **** 		APPL_DMA_LTE_SIM7000G_Init_Stage++;
 991              		.loc 1 440 3 view .LVU215
 440:../01_Applcation/APPL_DMA_LTE/APPL_DMA_LTE.c **** 		APPL_DMA_LTE_SIM7000G_Init_Stage++;
 992              		.loc 1 440 35 is_stmt 0 view .LVU216
 993 00ec 184A     		ldr	r2, .L60
 994 00ee 1368     		ldr	r3, [r2]
 995 00f0 0133     		adds	r3, r3, #1
 996 00f2 1360     		str	r3, [r2]
 441:../01_Applcation/APPL_DMA_LTE/APPL_DMA_LTE.c **** 		break;
 997              		.loc 1 441 3 is_stmt 1 view .LVU217
 998 00f4 A3E7     		b	.L42
 999              	.L48:
 445:../01_Applcation/APPL_DMA_LTE/APPL_DMA_LTE.c **** 		APPL_DMA_LTE_printf("AT+SMCONF=\"QOS\",0\r\n");
ARM GAS  C:\Users\minde\AppData\Local\Temp\ccleu24Z.s 			page 33


 1000              		.loc 1 445 3 view .LVU218
 1001 00f6 2448     		ldr	r0, .L60+56
 1002 00f8 FFF7FEFF 		bl	APPL_DMA_LTE_printf
 1003              	.LVL37:
 446:../01_Applcation/APPL_DMA_LTE/APPL_DMA_LTE.c **** 		APPL_DMA_LTE_SIM7000G_Init_Stage++;
 1004              		.loc 1 446 3 view .LVU219
 446:../01_Applcation/APPL_DMA_LTE/APPL_DMA_LTE.c **** 		APPL_DMA_LTE_SIM7000G_Init_Stage++;
 1005              		.loc 1 446 35 is_stmt 0 view .LVU220
 1006 00fc 144A     		ldr	r2, .L60
 1007 00fe 1368     		ldr	r3, [r2]
 1008 0100 0133     		adds	r3, r3, #1
 1009 0102 1360     		str	r3, [r2]
 447:../01_Applcation/APPL_DMA_LTE/APPL_DMA_LTE.c **** 		break;
 1010              		.loc 1 447 3 is_stmt 1 view .LVU221
 1011 0104 9BE7     		b	.L42
 1012              	.L47:
 451:../01_Applcation/APPL_DMA_LTE/APPL_DMA_LTE.c **** 		APPL_DMA_LTE_printf("AT+SMCONF=\"RETAIN\",0\r\n");
 1013              		.loc 1 451 3 view .LVU222
 1014 0106 2148     		ldr	r0, .L60+60
 1015 0108 FFF7FEFF 		bl	APPL_DMA_LTE_printf
 1016              	.LVL38:
 452:../01_Applcation/APPL_DMA_LTE/APPL_DMA_LTE.c **** 		APPL_DMA_LTE_SIM7000G_Init_Stage++;
 1017              		.loc 1 452 3 view .LVU223
 452:../01_Applcation/APPL_DMA_LTE/APPL_DMA_LTE.c **** 		APPL_DMA_LTE_SIM7000G_Init_Stage++;
 1018              		.loc 1 452 35 is_stmt 0 view .LVU224
 1019 010c 104A     		ldr	r2, .L60
 1020 010e 1368     		ldr	r3, [r2]
 1021 0110 0133     		adds	r3, r3, #1
 1022 0112 1360     		str	r3, [r2]
 453:../01_Applcation/APPL_DMA_LTE/APPL_DMA_LTE.c **** 		break;
 1023              		.loc 1 453 3 is_stmt 1 view .LVU225
 1024 0114 93E7     		b	.L42
 1025              	.L46:
 457:../01_Applcation/APPL_DMA_LTE/APPL_DMA_LTE.c **** 		APPL_DMA_LTE_printf("AT+CMNB=3\r\n");
 1026              		.loc 1 457 3 view .LVU226
 1027 0116 1E48     		ldr	r0, .L60+64
 1028 0118 FFF7FEFF 		bl	APPL_DMA_LTE_printf
 1029              	.LVL39:
 458:../01_Applcation/APPL_DMA_LTE/APPL_DMA_LTE.c **** 		APPL_DMA_LTE_SIM7000G_Init_Stage++;
 1030              		.loc 1 458 3 view .LVU227
 458:../01_Applcation/APPL_DMA_LTE/APPL_DMA_LTE.c **** 		APPL_DMA_LTE_SIM7000G_Init_Stage++;
 1031              		.loc 1 458 35 is_stmt 0 view .LVU228
 1032 011c 0C4A     		ldr	r2, .L60
 1033 011e 1368     		ldr	r3, [r2]
 1034 0120 0133     		adds	r3, r3, #1
 1035 0122 1360     		str	r3, [r2]
 459:../01_Applcation/APPL_DMA_LTE/APPL_DMA_LTE.c **** 		break;
 1036              		.loc 1 459 3 is_stmt 1 view .LVU229
 1037 0124 8BE7     		b	.L42
 1038              	.L45:
 463:../01_Applcation/APPL_DMA_LTE/APPL_DMA_LTE.c **** 		APPL_DMA_LTE_printf("AT+CNACT=1,\"cmnet\"\r\n");
 1039              		.loc 1 463 3 view .LVU230
 1040 0126 1B48     		ldr	r0, .L60+68
 1041 0128 FFF7FEFF 		bl	APPL_DMA_LTE_printf
 1042              	.LVL40:
 464:../01_Applcation/APPL_DMA_LTE/APPL_DMA_LTE.c **** 		APPL_DMA_LTE_SIM7000G_Init_Stage++;
 1043              		.loc 1 464 3 view .LVU231
ARM GAS  C:\Users\minde\AppData\Local\Temp\ccleu24Z.s 			page 34


 464:../01_Applcation/APPL_DMA_LTE/APPL_DMA_LTE.c **** 		APPL_DMA_LTE_SIM7000G_Init_Stage++;
 1044              		.loc 1 464 35 is_stmt 0 view .LVU232
 1045 012c 084A     		ldr	r2, .L60
 1046 012e 1368     		ldr	r3, [r2]
 1047 0130 0133     		adds	r3, r3, #1
 1048 0132 1360     		str	r3, [r2]
 465:../01_Applcation/APPL_DMA_LTE/APPL_DMA_LTE.c **** 		break;
 1049              		.loc 1 465 3 is_stmt 1 view .LVU233
 1050 0134 83E7     		b	.L42
 1051              	.L44:
 470:../01_Applcation/APPL_DMA_LTE/APPL_DMA_LTE.c **** 		APPL_DMA_LTE_SIM7000G_ErrorCount = 0;
 1052              		.loc 1 470 3 view .LVU234
 470:../01_Applcation/APPL_DMA_LTE/APPL_DMA_LTE.c **** 		APPL_DMA_LTE_SIM7000G_ErrorCount = 0;
 1053              		.loc 1 470 36 is_stmt 0 view .LVU235
 1054 0136 094A     		ldr	r2, .L60+12
 1055 0138 0021     		movs	r1, #0
 1056 013a 1180     		strh	r1, [r2]	@ movhi
 471:../01_Applcation/APPL_DMA_LTE/APPL_DMA_LTE.c **** 		APPL_DMA_LTE_SIM7000G_Init_Stage++;
 1057              		.loc 1 471 3 is_stmt 1 view .LVU236
 471:../01_Applcation/APPL_DMA_LTE/APPL_DMA_LTE.c **** 		APPL_DMA_LTE_SIM7000G_Init_Stage++;
 1058              		.loc 1 471 35 is_stmt 0 view .LVU237
 1059 013c 0133     		adds	r3, r3, #1
 1060 013e 044A     		ldr	r2, .L60
 1061 0140 1360     		str	r3, [r2]
 472:../01_Applcation/APPL_DMA_LTE/APPL_DMA_LTE.c **** 		break;
 1062              		.loc 1 472 3 is_stmt 1 view .LVU238
 1063 0142 7CE7     		b	.L42
 1064              	.L41:
 481:../01_Applcation/APPL_DMA_LTE/APPL_DMA_LTE.c **** 		APPL_DMA_LTE_SIM7000G_ErrorCount++;
 1065              		.loc 1 481 3 view .LVU239
 481:../01_Applcation/APPL_DMA_LTE/APPL_DMA_LTE.c **** 		APPL_DMA_LTE_SIM7000G_ErrorCount++;
 1066              		.loc 1 481 35 is_stmt 0 view .LVU240
 1067 0144 054A     		ldr	r2, .L60+12
 1068 0146 1388     		ldrh	r3, [r2]
 1069 0148 0133     		adds	r3, r3, #1
 1070 014a 1380     		strh	r3, [r2]	@ movhi
 482:../01_Applcation/APPL_DMA_LTE/APPL_DMA_LTE.c **** 		break;
 1071              		.loc 1 482 3 is_stmt 1 view .LVU241
 1072 014c 77E7     		b	.L42
 1073              	.L61:
 1074 014e 00BF     		.align	2
 1075              	.L60:
 1076 0150 00000000 		.word	.LANCHOR1
 1077 0154 00000000 		.word	.LANCHOR11
 1078 0158 00000000 		.word	.LC14
 1079 015c 00000000 		.word	.LANCHOR0
 1080 0160 08000000 		.word	.LC15
 1081 0164 10000000 		.word	.LC16
 1082 0168 2C000000 		.word	.LC17
 1083 016c 00000000 		.word	.LANCHOR3
 1084 0170 48000000 		.word	.LC18
 1085 0174 08000000 		.word	.LANCHOR3+8
 1086 0178 70000000 		.word	.LC19
 1087 017c 10000000 		.word	.LANCHOR3+16
 1088 0180 8C000000 		.word	.LC20
 1089 0184 A8000000 		.word	.LC21
 1090 0188 C0000000 		.word	.LC22
ARM GAS  C:\Users\minde\AppData\Local\Temp\ccleu24Z.s 			page 35


 1091 018c D4000000 		.word	.LC23
 1092 0190 EC000000 		.word	.LC24
 1093 0194 F8000000 		.word	.LC25
 1094              		.cfi_endproc
 1095              	.LFE295:
 1097              		.section	.text.APPL_DMA_LTE_LineProcess,"ax",%progbits
 1098              		.align	1
 1099              		.global	APPL_DMA_LTE_LineProcess
 1100              		.syntax unified
 1101              		.thumb
 1102              		.thumb_func
 1104              	APPL_DMA_LTE_LineProcess:
 1105              	.LFB297:
 519:../01_Applcation/APPL_DMA_LTE/APPL_DMA_LTE.c **** {
 1106              		.loc 1 519 1 view -0
 1107              		.cfi_startproc
 1108              		@ args = 0, pretend = 0, frame = 0
 1109              		@ frame_needed = 0, uses_anonymous_args = 0
 1110 0000 08B5     		push	{r3, lr}
 1111              	.LCFI20:
 1112              		.cfi_def_cfa_offset 8
 1113              		.cfi_offset 3, -8
 1114              		.cfi_offset 14, -4
 521:../01_Applcation/APPL_DMA_LTE/APPL_DMA_LTE.c **** 	if (EKM_CMD_RXPeek(APPL_DMA_LTE_Buffer.buffer, 0x0A, APPL_DMA_LTE_Buffer.write) > 0)
 1115              		.loc 1 521 2 view .LVU243
 521:../01_Applcation/APPL_DMA_LTE/APPL_DMA_LTE.c **** 	if (EKM_CMD_RXPeek(APPL_DMA_LTE_Buffer.buffer, 0x0A, APPL_DMA_LTE_Buffer.write) > 0)
 1116              		.loc 1 521 40 is_stmt 0 view .LVU244
 1117 0002 0B4B     		ldr	r3, .L66
 521:../01_Applcation/APPL_DMA_LTE/APPL_DMA_LTE.c **** 	if (EKM_CMD_RXPeek(APPL_DMA_LTE_Buffer.buffer, 0x0A, APPL_DMA_LTE_Buffer.write) > 0)
 1118              		.loc 1 521 6 view .LVU245
 1119 0004 5A78     		ldrb	r2, [r3, #1]	@ zero_extendqisi2
 1120 0006 0A21     		movs	r1, #10
 1121 0008 9868     		ldr	r0, [r3, #8]
 1122 000a FFF7FEFF 		bl	EKM_CMD_RXPeek
 1123              	.LVL41:
 521:../01_Applcation/APPL_DMA_LTE/APPL_DMA_LTE.c **** 	if (EKM_CMD_RXPeek(APPL_DMA_LTE_Buffer.buffer, 0x0A, APPL_DMA_LTE_Buffer.write) > 0)
 1124              		.loc 1 521 5 view .LVU246
 1125 000e 0028     		cmp	r0, #0
 1126 0010 00DC     		bgt	.L65
 1127              	.L62:
 528:../01_Applcation/APPL_DMA_LTE/APPL_DMA_LTE.c **** }
 1128              		.loc 1 528 1 view .LVU247
 1129 0012 08BD     		pop	{r3, pc}
 1130              	.L65:
 524:../01_Applcation/APPL_DMA_LTE/APPL_DMA_LTE.c **** 		if (EKM_CMD_LineProcess((char *)APPL_DMA_LTE_Buffer.buffer, &APPL_DMA_LTE_CMD_OK, ' ') == EKM_CMD
 1131              		.loc 1 524 3 is_stmt 1 view .LVU248
 524:../01_Applcation/APPL_DMA_LTE/APPL_DMA_LTE.c **** 		if (EKM_CMD_LineProcess((char *)APPL_DMA_LTE_Buffer.buffer, &APPL_DMA_LTE_CMD_OK, ' ') == EKM_CMD
 1132              		.loc 1 524 7 is_stmt 0 view .LVU249
 1133 0014 2022     		movs	r2, #32
 1134 0016 0749     		ldr	r1, .L66+4
 1135 0018 054B     		ldr	r3, .L66
 1136 001a 9868     		ldr	r0, [r3, #8]
 1137 001c FFF7FEFF 		bl	EKM_CMD_LineProcess
 1138              	.LVL42:
 524:../01_Applcation/APPL_DMA_LTE/APPL_DMA_LTE.c **** 		if (EKM_CMD_LineProcess((char *)APPL_DMA_LTE_Buffer.buffer, &APPL_DMA_LTE_CMD_OK, ' ') == EKM_CMD
 1139              		.loc 1 524 6 view .LVU250
 1140 0020 B0F1FF3F 		cmp	r0, #-1
ARM GAS  C:\Users\minde\AppData\Local\Temp\ccleu24Z.s 			page 36


 1141 0024 F5D1     		bne	.L62
 526:../01_Applcation/APPL_DMA_LTE/APPL_DMA_LTE.c **** 			EKM_Buffer_Reset(&APPL_DMA_LTE_Buffer);
 1142              		.loc 1 526 4 is_stmt 1 view .LVU251
 1143 0026 0248     		ldr	r0, .L66
 1144 0028 FFF7FEFF 		bl	EKM_Buffer_Reset
 1145              	.LVL43:
 528:../01_Applcation/APPL_DMA_LTE/APPL_DMA_LTE.c **** }
 1146              		.loc 1 528 1 is_stmt 0 view .LVU252
 1147 002c F1E7     		b	.L62
 1148              	.L67:
 1149 002e 00BF     		.align	2
 1150              	.L66:
 1151 0030 00000000 		.word	.LANCHOR5
 1152 0034 00000000 		.word	.LANCHOR6
 1153              		.cfi_endproc
 1154              	.LFE297:
 1156              		.global	APPL_DMA_LTE_CMD_PAPP
 1157              		.global	APPL_DMA_LTE_CMD_APP
 1158              		.global	APPL_DMA_LTE_CMD_Error
 1159              		.global	APPL_DMA_LTE_CMD_OK
 1160              		.global	APPL_DMA_LTE_CMD_Sok
 1161              		.global	APPL_DMA_LTE_Buffer
 1162              		.global	APPL_DMA_LTE_Buffer_d
 1163              		.global	APPL_DMA_LTE_MQTT_ONLINE
 1164              		.global	APPL_DMA_LTE_TimemerCount
 1165              		.global	APPL_DMA_LTE_SIM7000G_ErrorCount
 1166              		.global	APPL_DMA_LTE_SIM7000G_Init_Stage
 1167              		.global	APPL_DMA_IOCON_d
 1168              		.section	.bss.APPL_DMA_IOCON_d,"aw",%nobits
 1169              		.align	2
 1170              		.set	.LANCHOR3,. + 0
 1173              	APPL_DMA_IOCON_d:
 1174 0000 00000000 		.space	40
 1174      00000000 
 1174      00000000 
 1174      00000000 
 1174      00000000 
 1175              		.section	.bss.APPL_DMA_LTE_Buffer,"aw",%nobits
 1176              		.align	2
 1177              		.set	.LANCHOR5,. + 0
 1180              	APPL_DMA_LTE_Buffer:
 1181 0000 00000000 		.space	12
 1181      00000000 
 1181      00000000 
 1182              		.section	.bss.APPL_DMA_LTE_Buffer_d,"aw",%nobits
 1183              		.align	2
 1184              		.set	.LANCHOR4,. + 0
 1187              	APPL_DMA_LTE_Buffer_d:
 1188 0000 00000000 		.space	128
 1188      00000000 
 1188      00000000 
 1188      00000000 
 1188      00000000 
 1189              		.section	.bss.APPL_DMA_LTE_CMD_APP,"aw",%nobits
 1190              		.align	2
 1191              		.set	.LANCHOR10,. + 0
 1194              	APPL_DMA_LTE_CMD_APP:
ARM GAS  C:\Users\minde\AppData\Local\Temp\ccleu24Z.s 			page 37


 1195 0000 00000000 		.space	16
 1195      00000000 
 1195      00000000 
 1195      00000000 
 1196              		.section	.bss.APPL_DMA_LTE_CMD_Error,"aw",%nobits
 1197              		.align	2
 1198              		.set	.LANCHOR8,. + 0
 1201              	APPL_DMA_LTE_CMD_Error:
 1202 0000 00000000 		.space	16
 1202      00000000 
 1202      00000000 
 1202      00000000 
 1203              		.section	.bss.APPL_DMA_LTE_CMD_OK,"aw",%nobits
 1204              		.align	2
 1205              		.set	.LANCHOR6,. + 0
 1208              	APPL_DMA_LTE_CMD_OK:
 1209 0000 00000000 		.space	16
 1209      00000000 
 1209      00000000 
 1209      00000000 
 1210              		.section	.bss.APPL_DMA_LTE_CMD_PAPP,"aw",%nobits
 1211              		.align	2
 1212              		.set	.LANCHOR9,. + 0
 1215              	APPL_DMA_LTE_CMD_PAPP:
 1216 0000 00000000 		.space	16
 1216      00000000 
 1216      00000000 
 1216      00000000 
 1217              		.section	.bss.APPL_DMA_LTE_CMD_Sok,"aw",%nobits
 1218              		.align	2
 1219              		.set	.LANCHOR7,. + 0
 1222              	APPL_DMA_LTE_CMD_Sok:
 1223 0000 00000000 		.space	16
 1223      00000000 
 1223      00000000 
 1223      00000000 
 1224              		.section	.bss.APPL_DMA_LTE_MQTT_ONLINE,"aw",%nobits
 1225              		.align	2
 1226              		.set	.LANCHOR2,. + 0
 1229              	APPL_DMA_LTE_MQTT_ONLINE:
 1230 0000 00000000 		.space	4
 1231              		.section	.bss.APPL_DMA_LTE_SIM7000G_ErrorCount,"aw",%nobits
 1232              		.align	1
 1233              		.set	.LANCHOR0,. + 0
 1236              	APPL_DMA_LTE_SIM7000G_ErrorCount:
 1237 0000 0000     		.space	2
 1238              		.section	.bss.APPL_DMA_LTE_SIM7000G_Init_Stage,"aw",%nobits
 1239              		.align	2
 1240              		.set	.LANCHOR1,. + 0
 1243              	APPL_DMA_LTE_SIM7000G_Init_Stage:
 1244 0000 00000000 		.space	4
 1245              		.section	.bss.APPL_DMA_LTE_TimemerCount,"aw",%nobits
 1246              		.align	1
 1247              		.set	.LANCHOR11,. + 0
 1250              	APPL_DMA_LTE_TimemerCount:
 1251 0000 0000     		.space	2
 1252              		.text
ARM GAS  C:\Users\minde\AppData\Local\Temp\ccleu24Z.s 			page 38


 1253              	.Letext0:
 1254              		.file 2 "c:\\gnuarm\\arm-none-eabi\\include\\machine\\_default_types.h"
 1255              		.file 3 "c:\\gnuarm\\lib\\gcc\\arm-none-eabi\\10.3.1\\include\\stdarg.h"
 1256              		.file 4 "c:\\gnuarm\\arm-none-eabi\\include\\stdio.h"
 1257              		.file 5 "c:\\gnuarm\\arm-none-eabi\\include\\sys\\_stdint.h"
 1258              		.file 6 "../03_Drivers/CMSIS/Device/ST/STM32L4xx/Include/stm32l432xx.h"
 1259              		.file 7 "../03_Drivers/STM32L4xx_HAL_Driver/Inc/stm32l4xx_hal_def.h"
 1260              		.file 8 "../03_Drivers/STM32L4xx_HAL_Driver/Inc/stm32l4xx_hal_dma.h"
 1261              		.file 9 "../03_Drivers/STM32L4xx_HAL_Driver/Inc/stm32l4xx_hal_uart.h"
 1262              		.file 10 "../02_OS/EKM_CMD/EKM_CMD.h"
 1263              		.file 11 "../02_OS/EKM_Buffer/EKM_Buffer.h"
 1264              		.file 12 "../02_OS/Core_UART/usart.h"
 1265              		.file 13 "../01_Applcation/APPL_DMA_LTE/APPL_DMA_LTE.h"
 1266              		.file 14 "c:\\gnuarm\\arm-none-eabi\\include\\string.h"
 1267              		.file 15 "<built-in>"
ARM GAS  C:\Users\minde\AppData\Local\Temp\ccleu24Z.s 			page 39


DEFINED SYMBOLS
                            *ABS*:00000000 APPL_DMA_LTE.c
C:\Users\minde\AppData\Local\Temp\ccleu24Z.s:20     .text.APPL_DMA_LTE_OK:00000000 $t
C:\Users\minde\AppData\Local\Temp\ccleu24Z.s:26     .text.APPL_DMA_LTE_OK:00000000 APPL_DMA_LTE_OK
C:\Users\minde\AppData\Local\Temp\ccleu24Z.s:62     .text.APPL_DMA_LTE_OK:00000018 $d
C:\Users\minde\AppData\Local\Temp\ccleu24Z.s:68     .text.APPL_DMA_LTE_Error:00000000 $t
C:\Users\minde\AppData\Local\Temp\ccleu24Z.s:74     .text.APPL_DMA_LTE_Error:00000000 APPL_DMA_LTE_Error
C:\Users\minde\AppData\Local\Temp\ccleu24Z.s:108    .text.APPL_DMA_LTE_Error:00000018 $d
C:\Users\minde\AppData\Local\Temp\ccleu24Z.s:114    .rodata.APPL_DMA_LTE_APP.str1.4:00000000 $d
C:\Users\minde\AppData\Local\Temp\ccleu24Z.s:121    .text.APPL_DMA_LTE_APP:00000000 $t
C:\Users\minde\AppData\Local\Temp\ccleu24Z.s:127    .text.APPL_DMA_LTE_APP:00000000 APPL_DMA_LTE_APP
C:\Users\minde\AppData\Local\Temp\ccleu24Z.s:204    .text.APPL_DMA_LTE_APP:0000003c $d
C:\Users\minde\AppData\Local\Temp\ccleu24Z.s:212    .rodata.APPL_DMA_IOCON_Init.str1.4:00000000 $d
C:\Users\minde\AppData\Local\Temp\ccleu24Z.s:216    .text.APPL_DMA_IOCON_Init:00000000 $t
C:\Users\minde\AppData\Local\Temp\ccleu24Z.s:222    .text.APPL_DMA_IOCON_Init:00000000 APPL_DMA_IOCON_Init
C:\Users\minde\AppData\Local\Temp\ccleu24Z.s:294    .text.APPL_DMA_IOCON_Init:00000048 $d
C:\Users\minde\AppData\Local\Temp\ccleu24Z.s:300    .rodata.APPL_DMA_LTE_Init.str1.4:00000000 $d
C:\Users\minde\AppData\Local\Temp\ccleu24Z.s:328    .text.APPL_DMA_LTE_Init:00000000 $t
C:\Users\minde\AppData\Local\Temp\ccleu24Z.s:334    .text.APPL_DMA_LTE_Init:00000000 APPL_DMA_LTE_Init
C:\Users\minde\AppData\Local\Temp\ccleu24Z.s:452    .text.APPL_DMA_LTE_Init:00000070 $d
C:\Users\minde\AppData\Local\Temp\ccleu24Z.s:477    .text.APPL_DMA_LTE_printf:00000000 $t
C:\Users\minde\AppData\Local\Temp\ccleu24Z.s:483    .text.APPL_DMA_LTE_printf:00000000 APPL_DMA_LTE_printf
C:\Users\minde\AppData\Local\Temp\ccleu24Z.s:560    .text.APPL_DMA_LTE_printf:00000040 $d
C:\Users\minde\AppData\Local\Temp\ccleu24Z.s:565    .rodata.APPL_LTE_MQTT_PUBLISH.str1.4:00000000 $d
C:\Users\minde\AppData\Local\Temp\ccleu24Z.s:572    .text.APPL_LTE_MQTT_PUBLISH:00000000 $t
C:\Users\minde\AppData\Local\Temp\ccleu24Z.s:578    .text.APPL_LTE_MQTT_PUBLISH:00000000 APPL_LTE_MQTT_PUBLISH
C:\Users\minde\AppData\Local\Temp\ccleu24Z.s:678    .text.APPL_LTE_MQTT_PUBLISH:00000050 $d
C:\Users\minde\AppData\Local\Temp\ccleu24Z.s:686    .text.APPL_DMA_LTE_SIM7000G_Error_Handel:00000000 $t
C:\Users\minde\AppData\Local\Temp\ccleu24Z.s:692    .text.APPL_DMA_LTE_SIM7000G_Error_Handel:00000000 APPL_DMA_LTE_SIM7000G_Error_Handel
C:\Users\minde\AppData\Local\Temp\ccleu24Z.s:721    .text.APPL_DMA_LTE_SIM7000G_Error_Handel:00000014 $d
C:\Users\minde\AppData\Local\Temp\ccleu24Z.s:727    .rodata.APPL_DMA_LTE_SIM7000G_Init.str1.4:00000000 $d
C:\Users\minde\AppData\Local\Temp\ccleu24Z.s:764    .text.APPL_DMA_LTE_SIM7000G_Init:00000000 $t
C:\Users\minde\AppData\Local\Temp\ccleu24Z.s:770    .text.APPL_DMA_LTE_SIM7000G_Init:00000000 APPL_DMA_LTE_SIM7000G_Init
C:\Users\minde\AppData\Local\Temp\ccleu24Z.s:790    .text.APPL_DMA_LTE_SIM7000G_Init:00000012 $d
C:\Users\minde\AppData\Local\Temp\ccleu24Z.s:818    .text.APPL_DMA_LTE_SIM7000G_Init:0000002e $t
C:\Users\minde\AppData\Local\Temp\ccleu24Z.s:1076   .text.APPL_DMA_LTE_SIM7000G_Init:00000150 $d
C:\Users\minde\AppData\Local\Temp\ccleu24Z.s:1098   .text.APPL_DMA_LTE_LineProcess:00000000 $t
C:\Users\minde\AppData\Local\Temp\ccleu24Z.s:1104   .text.APPL_DMA_LTE_LineProcess:00000000 APPL_DMA_LTE_LineProcess
C:\Users\minde\AppData\Local\Temp\ccleu24Z.s:1151   .text.APPL_DMA_LTE_LineProcess:00000030 $d
C:\Users\minde\AppData\Local\Temp\ccleu24Z.s:1215   .bss.APPL_DMA_LTE_CMD_PAPP:00000000 APPL_DMA_LTE_CMD_PAPP
C:\Users\minde\AppData\Local\Temp\ccleu24Z.s:1194   .bss.APPL_DMA_LTE_CMD_APP:00000000 APPL_DMA_LTE_CMD_APP
C:\Users\minde\AppData\Local\Temp\ccleu24Z.s:1201   .bss.APPL_DMA_LTE_CMD_Error:00000000 APPL_DMA_LTE_CMD_Error
C:\Users\minde\AppData\Local\Temp\ccleu24Z.s:1208   .bss.APPL_DMA_LTE_CMD_OK:00000000 APPL_DMA_LTE_CMD_OK
C:\Users\minde\AppData\Local\Temp\ccleu24Z.s:1222   .bss.APPL_DMA_LTE_CMD_Sok:00000000 APPL_DMA_LTE_CMD_Sok
C:\Users\minde\AppData\Local\Temp\ccleu24Z.s:1180   .bss.APPL_DMA_LTE_Buffer:00000000 APPL_DMA_LTE_Buffer
C:\Users\minde\AppData\Local\Temp\ccleu24Z.s:1187   .bss.APPL_DMA_LTE_Buffer_d:00000000 APPL_DMA_LTE_Buffer_d
C:\Users\minde\AppData\Local\Temp\ccleu24Z.s:1229   .bss.APPL_DMA_LTE_MQTT_ONLINE:00000000 APPL_DMA_LTE_MQTT_ONLINE
C:\Users\minde\AppData\Local\Temp\ccleu24Z.s:1250   .bss.APPL_DMA_LTE_TimemerCount:00000000 APPL_DMA_LTE_TimemerCount
C:\Users\minde\AppData\Local\Temp\ccleu24Z.s:1236   .bss.APPL_DMA_LTE_SIM7000G_ErrorCount:00000000 APPL_DMA_LTE_SIM7000G_ErrorCount
C:\Users\minde\AppData\Local\Temp\ccleu24Z.s:1243   .bss.APPL_DMA_LTE_SIM7000G_Init_Stage:00000000 APPL_DMA_LTE_SIM7000G_Init_Stage
C:\Users\minde\AppData\Local\Temp\ccleu24Z.s:1173   .bss.APPL_DMA_IOCON_d:00000000 APPL_DMA_IOCON_d
C:\Users\minde\AppData\Local\Temp\ccleu24Z.s:1169   .bss.APPL_DMA_IOCON_d:00000000 $d
C:\Users\minde\AppData\Local\Temp\ccleu24Z.s:1176   .bss.APPL_DMA_LTE_Buffer:00000000 $d
C:\Users\minde\AppData\Local\Temp\ccleu24Z.s:1183   .bss.APPL_DMA_LTE_Buffer_d:00000000 $d
C:\Users\minde\AppData\Local\Temp\ccleu24Z.s:1190   .bss.APPL_DMA_LTE_CMD_APP:00000000 $d
C:\Users\minde\AppData\Local\Temp\ccleu24Z.s:1197   .bss.APPL_DMA_LTE_CMD_Error:00000000 $d
C:\Users\minde\AppData\Local\Temp\ccleu24Z.s:1204   .bss.APPL_DMA_LTE_CMD_OK:00000000 $d
ARM GAS  C:\Users\minde\AppData\Local\Temp\ccleu24Z.s 			page 40


C:\Users\minde\AppData\Local\Temp\ccleu24Z.s:1211   .bss.APPL_DMA_LTE_CMD_PAPP:00000000 $d
C:\Users\minde\AppData\Local\Temp\ccleu24Z.s:1218   .bss.APPL_DMA_LTE_CMD_Sok:00000000 $d
C:\Users\minde\AppData\Local\Temp\ccleu24Z.s:1225   .bss.APPL_DMA_LTE_MQTT_ONLINE:00000000 $d
C:\Users\minde\AppData\Local\Temp\ccleu24Z.s:1232   .bss.APPL_DMA_LTE_SIM7000G_ErrorCount:00000000 $d
C:\Users\minde\AppData\Local\Temp\ccleu24Z.s:1239   .bss.APPL_DMA_LTE_SIM7000G_Init_Stage:00000000 $d
C:\Users\minde\AppData\Local\Temp\ccleu24Z.s:1246   .bss.APPL_DMA_LTE_TimemerCount:00000000 $d

UNDEFINED SYMBOLS
strstr
EKM_Buffer_Setup
EKM_Buffer_Reset
memset
vsprintf
strlen
HAL_UART_Transmit
huart1
EKM_CMD_RXPeek
EKM_CMD_LineProcess
