ARM GAS  C:\Users\minde\AppData\Local\Temp\ccFRyS8g.s 			page 1


   1              		.cpu cortex-m4
   2              		.arch armv7e-m
   3              		.fpu fpv4-sp-d16
   4              		.eabi_attribute 27, 1
   5              		.eabi_attribute 28, 1
   6              		.eabi_attribute 20, 1
   7              		.eabi_attribute 21, 1
   8              		.eabi_attribute 23, 3
   9              		.eabi_attribute 24, 1
  10              		.eabi_attribute 25, 1
  11              		.eabi_attribute 26, 1
  12              		.eabi_attribute 30, 1
  13              		.eabi_attribute 34, 1
  14              		.eabi_attribute 18, 4
  15              		.file	"APPL_DMA_LTE.c"
  16              		.text
  17              	.Ltext0:
  18              		.cfi_sections	.debug_frame
  19              		.section	.text.APPL_DMA_LTE_PSUTTZ,"ax",%progbits
  20              		.align	1
  21              		.global	APPL_DMA_LTE_PSUTTZ
  22              		.syntax unified
  23              		.thumb
  24              		.thumb_func
  26              	APPL_DMA_LTE_PSUTTZ:
  27              	.LVL0:
  28              	.LFB301:
  29              		.file 1 "../01_Applcation/APPL_DMA_LTE/APPL_DMA_LTE.c"
   1:../01_Applcation/APPL_DMA_LTE/APPL_DMA_LTE.c **** /*
   2:../01_Applcation/APPL_DMA_LTE/APPL_DMA_LTE.c ****  * APPL_DMA_LTE.c
   3:../01_Applcation/APPL_DMA_LTE/APPL_DMA_LTE.c ****  *
   4:../01_Applcation/APPL_DMA_LTE/APPL_DMA_LTE.c ****  * Created: 22/4/2022 1:46:27
   5:../01_Applcation/APPL_DMA_LTE/APPL_DMA_LTE.c ****  *  Author: Eakawit_kor
   6:../01_Applcation/APPL_DMA_LTE/APPL_DMA_LTE.c ****  */
   7:../01_Applcation/APPL_DMA_LTE/APPL_DMA_LTE.c **** 
   8:../01_Applcation/APPL_DMA_LTE/APPL_DMA_LTE.c **** #include <stdio.h>
   9:../01_Applcation/APPL_DMA_LTE/APPL_DMA_LTE.c **** #include <stdarg.h>
  10:../01_Applcation/APPL_DMA_LTE/APPL_DMA_LTE.c **** #include <stdlib.h>
  11:../01_Applcation/APPL_DMA_LTE/APPL_DMA_LTE.c **** #include <stdint.h>
  12:../01_Applcation/APPL_DMA_LTE/APPL_DMA_LTE.c **** #include <stdbool.h>
  13:../01_Applcation/APPL_DMA_LTE/APPL_DMA_LTE.c **** #include <string.h>
  14:../01_Applcation/APPL_DMA_LTE/APPL_DMA_LTE.c **** #include "main.h"
  15:../01_Applcation/APPL_DMA_LTE/APPL_DMA_LTE.c **** #include "usart.h"
  16:../01_Applcation/APPL_DMA_LTE/APPL_DMA_LTE.c **** #include "EKM_CMD.h"
  17:../01_Applcation/APPL_DMA_LTE/APPL_DMA_LTE.c **** #include "EKM_Buffer.h"
  18:../01_Applcation/APPL_DMA_LTE/APPL_DMA_LTE.c **** #include "APPL_DMA_LTE.h"
  19:../01_Applcation/APPL_DMA_LTE/APPL_DMA_LTE.c **** #include "Appl_Data.h"
  20:../01_Applcation/APPL_DMA_LTE/APPL_DMA_LTE.c **** #include "Appl_USBService.h"
  21:../01_Applcation/APPL_DMA_LTE/APPL_DMA_LTE.c **** 
  22:../01_Applcation/APPL_DMA_LTE/APPL_DMA_LTE.c **** /*******************************************************************************
  23:../01_Applcation/APPL_DMA_LTE/APPL_DMA_LTE.c ****  *
  24:../01_Applcation/APPL_DMA_LTE/APPL_DMA_LTE.c ****  * DEFINE
  25:../01_Applcation/APPL_DMA_LTE/APPL_DMA_LTE.c ****  *
  26:../01_Applcation/APPL_DMA_LTE/APPL_DMA_LTE.c ****  ******************************************************************************/
  27:../01_Applcation/APPL_DMA_LTE/APPL_DMA_LTE.c **** 
  28:../01_Applcation/APPL_DMA_LTE/APPL_DMA_LTE.c **** #define APPL_DMA_LTE_BUFFER_MAX 128
  29:../01_Applcation/APPL_DMA_LTE/APPL_DMA_LTE.c **** 
ARM GAS  C:\Users\minde\AppData\Local\Temp\ccFRyS8g.s 			page 2


  30:../01_Applcation/APPL_DMA_LTE/APPL_DMA_LTE.c **** //! Structure for an entry in the command list table.
  31:../01_Applcation/APPL_DMA_LTE/APPL_DMA_LTE.c **** 
  32:../01_Applcation/APPL_DMA_LTE/APPL_DMA_LTE.c **** //*****************************************************************************
  33:../01_Applcation/APPL_DMA_LTE/APPL_DMA_LTE.c **** 
  34:../01_Applcation/APPL_DMA_LTE/APPL_DMA_LTE.c **** // Prototypes for the APIs.
  35:../01_Applcation/APPL_DMA_LTE/APPL_DMA_LTE.c **** 
  36:../01_Applcation/APPL_DMA_LTE/APPL_DMA_LTE.c **** //*****************************************************************************
  37:../01_Applcation/APPL_DMA_LTE/APPL_DMA_LTE.c **** 
  38:../01_Applcation/APPL_DMA_LTE/APPL_DMA_LTE.c **** /*******************************************************************************
  39:../01_Applcation/APPL_DMA_LTE/APPL_DMA_LTE.c ****  *
  40:../01_Applcation/APPL_DMA_LTE/APPL_DMA_LTE.c ****  * PRIVATE VARIABLE
  41:../01_Applcation/APPL_DMA_LTE/APPL_DMA_LTE.c ****  *
  42:../01_Applcation/APPL_DMA_LTE/APPL_DMA_LTE.c ****  ******************************************************************************/
  43:../01_Applcation/APPL_DMA_LTE/APPL_DMA_LTE.c **** 
  44:../01_Applcation/APPL_DMA_LTE/APPL_DMA_LTE.c **** uint16_t APPL_DMA_LTE_SIM7000G_ErrorCount = 0;
  45:../01_Applcation/APPL_DMA_LTE/APPL_DMA_LTE.c **** uint16_t APPL_DMA_LTE_TimemerCount = 0;
  46:../01_Applcation/APPL_DMA_LTE/APPL_DMA_LTE.c **** 
  47:../01_Applcation/APPL_DMA_LTE/APPL_DMA_LTE.c **** int APPL_DMA_LTE_MQTT_ONLINE = 0;
  48:../01_Applcation/APPL_DMA_LTE/APPL_DMA_LTE.c **** 
  49:../01_Applcation/APPL_DMA_LTE/APPL_DMA_LTE.c **** uint8_t APPL_DMA_LTE_Init_Stage = 0;
  50:../01_Applcation/APPL_DMA_LTE/APPL_DMA_LTE.c **** APPL_DMA_LTE_t APPL_DMA_LTE_Step_Init[15];
  51:../01_Applcation/APPL_DMA_LTE/APPL_DMA_LTE.c **** 
  52:../01_Applcation/APPL_DMA_LTE/APPL_DMA_LTE.c **** uint8_t APPL_DMA_LTE_Buffer_d[APPL_DMA_LTE_BUFFER_MAX];
  53:../01_Applcation/APPL_DMA_LTE/APPL_DMA_LTE.c **** EKM_Buffer_t APPL_DMA_LTE_Buffer;
  54:../01_Applcation/APPL_DMA_LTE/APPL_DMA_LTE.c **** 
  55:../01_Applcation/APPL_DMA_LTE/APPL_DMA_LTE.c **** void APPL_DMA_LTE_Init(void);
  56:../01_Applcation/APPL_DMA_LTE/APPL_DMA_LTE.c **** void APPL_DMA_LTE_SIM7000G_Init(void);
  57:../01_Applcation/APPL_DMA_LTE/APPL_DMA_LTE.c **** void APPL_DMA_LTE_printf(const char *format, ...);
  58:../01_Applcation/APPL_DMA_LTE/APPL_DMA_LTE.c **** void APPL_DMA_LTE_MQTT_PUBLISH_Raw(const char *MQTT_Topic, uint8_t *data, uint8_t len);
  59:../01_Applcation/APPL_DMA_LTE/APPL_DMA_LTE.c **** void APPL_DMA_LTE_MQTT_PUBLISH(const char *MQTT_Topic, const char *format, ...);
  60:../01_Applcation/APPL_DMA_LTE/APPL_DMA_LTE.c **** void APPL_DMA_LTE_LineProcess(void);
  61:../01_Applcation/APPL_DMA_LTE/APPL_DMA_LTE.c **** void APPL_DMA_LTE_SIM7000G_Error_Handel(void);
  62:../01_Applcation/APPL_DMA_LTE/APPL_DMA_LTE.c **** 
  63:../01_Applcation/APPL_DMA_LTE/APPL_DMA_LTE.c **** EKM_CMD_tCmdLineEntry APPL_DMA_LTE_CMD_OK;
  64:../01_Applcation/APPL_DMA_LTE/APPL_DMA_LTE.c **** EKM_CMD_tCmdLineEntry APPL_DMA_LTE_CMD_PSUTTZ;
  65:../01_Applcation/APPL_DMA_LTE/APPL_DMA_LTE.c **** EKM_CMD_tCmdLineEntry APPL_DMA_LTE_CMD_Error;
  66:../01_Applcation/APPL_DMA_LTE/APPL_DMA_LTE.c **** EKM_CMD_tCmdLineEntry APPL_DMA_LTE_CMD_APP;
  67:../01_Applcation/APPL_DMA_LTE/APPL_DMA_LTE.c **** 
  68:../01_Applcation/APPL_DMA_LTE/APPL_DMA_LTE.c **** int APPL_DMA_LTE_OK(int argc, char *argv[]);
  69:../01_Applcation/APPL_DMA_LTE/APPL_DMA_LTE.c **** int APPL_DMA_LTE_PSUTTZ(int argc, char *argv[]);
  70:../01_Applcation/APPL_DMA_LTE/APPL_DMA_LTE.c **** int APPL_DMA_LTE_Error(int argc, char *argv[]);
  71:../01_Applcation/APPL_DMA_LTE/APPL_DMA_LTE.c **** int APPL_DMA_LTE_APP(int argc, char *argv[]);
  72:../01_Applcation/APPL_DMA_LTE/APPL_DMA_LTE.c **** 
  73:../01_Applcation/APPL_DMA_LTE/APPL_DMA_LTE.c **** /*******************************************************************************
  74:../01_Applcation/APPL_DMA_LTE/APPL_DMA_LTE.c ****  * Function: APPL_DMA_LTE_Init
  75:../01_Applcation/APPL_DMA_LTE/APPL_DMA_LTE.c ****  *
  76:../01_Applcation/APPL_DMA_LTE/APPL_DMA_LTE.c ****  * Parameters:      -
  77:../01_Applcation/APPL_DMA_LTE/APPL_DMA_LTE.c ****  * Returned value:  -
  78:../01_Applcation/APPL_DMA_LTE/APPL_DMA_LTE.c ****  *
  79:../01_Applcation/APPL_DMA_LTE/APPL_DMA_LTE.c ****  * Description:
  80:../01_Applcation/APPL_DMA_LTE/APPL_DMA_LTE.c ****  *
  81:../01_Applcation/APPL_DMA_LTE/APPL_DMA_LTE.c ****  * Calling:
  82:../01_Applcation/APPL_DMA_LTE/APPL_DMA_LTE.c ****  ******************************************************************************/
  83:../01_Applcation/APPL_DMA_LTE/APPL_DMA_LTE.c **** void APPL_DMA_LTE_Init(void)
  84:../01_Applcation/APPL_DMA_LTE/APPL_DMA_LTE.c **** {
  85:../01_Applcation/APPL_DMA_LTE/APPL_DMA_LTE.c **** 	APPL_DMA_LTE_MQTT_ONLINE = 0;
  86:../01_Applcation/APPL_DMA_LTE/APPL_DMA_LTE.c **** 	APPL_DMA_LTE_SIM7000G_ErrorCount = 0;
ARM GAS  C:\Users\minde\AppData\Local\Temp\ccFRyS8g.s 			page 3


  87:../01_Applcation/APPL_DMA_LTE/APPL_DMA_LTE.c **** 	EKM_Buffer_Setup(&APPL_DMA_LTE_Buffer, APPL_DMA_LTE_BUFFER_MAX, APPL_DMA_LTE_Buffer_d);
  88:../01_Applcation/APPL_DMA_LTE/APPL_DMA_LTE.c **** 	EKM_Buffer_Reset(&APPL_DMA_LTE_Buffer);
  89:../01_Applcation/APPL_DMA_LTE/APPL_DMA_LTE.c **** 
  90:../01_Applcation/APPL_DMA_LTE/APPL_DMA_LTE.c **** 	APPL_DMA_LTE_CMD_OK.EKM_CMD_pcCmd = "OK";
  91:../01_Applcation/APPL_DMA_LTE/APPL_DMA_LTE.c **** 	APPL_DMA_LTE_CMD_OK.EKM_CMD_pcHelp = "ok function";
  92:../01_Applcation/APPL_DMA_LTE/APPL_DMA_LTE.c **** 	APPL_DMA_LTE_CMD_OK.EKM_CMD_pfnCmd = &APPL_DMA_LTE_OK;
  93:../01_Applcation/APPL_DMA_LTE/APPL_DMA_LTE.c **** 	APPL_DMA_LTE_CMD_OK.next = &APPL_DMA_LTE_CMD_PSUTTZ;
  94:../01_Applcation/APPL_DMA_LTE/APPL_DMA_LTE.c **** 
  95:../01_Applcation/APPL_DMA_LTE/APPL_DMA_LTE.c **** 	APPL_DMA_LTE_CMD_PSUTTZ.EKM_CMD_pcCmd = "*PSUTTZ:";
  96:../01_Applcation/APPL_DMA_LTE/APPL_DMA_LTE.c **** 	APPL_DMA_LTE_CMD_PSUTTZ.EKM_CMD_pcHelp = "Turn On Init";
  97:../01_Applcation/APPL_DMA_LTE/APPL_DMA_LTE.c **** 	APPL_DMA_LTE_CMD_PSUTTZ.EKM_CMD_pfnCmd = &APPL_DMA_LTE_PSUTTZ;
  98:../01_Applcation/APPL_DMA_LTE/APPL_DMA_LTE.c **** 	APPL_DMA_LTE_CMD_PSUTTZ.next = &APPL_DMA_LTE_CMD_Error;
  99:../01_Applcation/APPL_DMA_LTE/APPL_DMA_LTE.c **** 
 100:../01_Applcation/APPL_DMA_LTE/APPL_DMA_LTE.c **** 	APPL_DMA_LTE_CMD_Error.EKM_CMD_pcCmd = "ERROR";
 101:../01_Applcation/APPL_DMA_LTE/APPL_DMA_LTE.c **** 	APPL_DMA_LTE_CMD_Error.EKM_CMD_pcHelp = "ERROR";
 102:../01_Applcation/APPL_DMA_LTE/APPL_DMA_LTE.c **** 	APPL_DMA_LTE_CMD_Error.EKM_CMD_pfnCmd = &APPL_DMA_LTE_Error;
 103:../01_Applcation/APPL_DMA_LTE/APPL_DMA_LTE.c **** 	APPL_DMA_LTE_CMD_Error.next = (void *)0;
 104:../01_Applcation/APPL_DMA_LTE/APPL_DMA_LTE.c **** 	//*PSUTTZ:
 105:../01_Applcation/APPL_DMA_LTE/APPL_DMA_LTE.c **** 	APPL_data.deviceID = 0;
 106:../01_Applcation/APPL_DMA_LTE/APPL_DMA_LTE.c **** 
 107:../01_Applcation/APPL_DMA_LTE/APPL_DMA_LTE.c **** 	APPL_DMA_LTE_Step_Init[0].Command = "ATE0\r\n";
 108:../01_Applcation/APPL_DMA_LTE/APPL_DMA_LTE.c **** 	APPL_DMA_LTE_Step_Init[1].Command = "AT+SMCONF=\"CLIENTID\",\"id\"\r\n";
 109:../01_Applcation/APPL_DMA_LTE/APPL_DMA_LTE.c **** 	APPL_DMA_LTE_Step_Init[2].Command = "AT+SMCONF=\"KEEPTIME\",60\r\n";
 110:../01_Applcation/APPL_DMA_LTE/APPL_DMA_LTE.c **** 	APPL_DMA_LTE_Step_Init[3].Command = "AT+SMCONF=\"URL\",\"203.151.79.149\",\"1883\"\r\n";
 111:../01_Applcation/APPL_DMA_LTE/APPL_DMA_LTE.c **** 	APPL_DMA_LTE_Step_Init[4].Command = "AT+SMCONF=\"USERNAME\",\"1111\"\r\n";
 112:../01_Applcation/APPL_DMA_LTE/APPL_DMA_LTE.c **** 	APPL_DMA_LTE_Step_Init[5].Command = "AT+SMCONF=\"PASSWORD\",\"1111\"\r\n";
 113:../01_Applcation/APPL_DMA_LTE/APPL_DMA_LTE.c **** 	APPL_DMA_LTE_Step_Init[6].Command = "AT+SMCONF=\"CLEANSS\",1\r\n";
 114:../01_Applcation/APPL_DMA_LTE/APPL_DMA_LTE.c **** 	APPL_DMA_LTE_Step_Init[7].Command = "AT+SMCONF=\"QOS\",0\r\n";
 115:../01_Applcation/APPL_DMA_LTE/APPL_DMA_LTE.c **** 	APPL_DMA_LTE_Step_Init[8].Command = "AT+SMCONF=\"RETAIN\",0\r\n";
 116:../01_Applcation/APPL_DMA_LTE/APPL_DMA_LTE.c **** 	APPL_DMA_LTE_Step_Init[9].Command = "AT+CMNB=3\r\n";
 117:../01_Applcation/APPL_DMA_LTE/APPL_DMA_LTE.c **** 	APPL_DMA_LTE_Step_Init[10].Command = "AT+CNACT=1,\"cmnet\"\r\n";
 118:../01_Applcation/APPL_DMA_LTE/APPL_DMA_LTE.c **** 
 119:../01_Applcation/APPL_DMA_LTE/APPL_DMA_LTE.c **** 	APPL_DMA_LTE_MQTT_ONLINE = 1;
 120:../01_Applcation/APPL_DMA_LTE/APPL_DMA_LTE.c **** 
 121:../01_Applcation/APPL_DMA_LTE/APPL_DMA_LTE.c **** 	for (int i = 0; i < 10; i++)
 122:../01_Applcation/APPL_DMA_LTE/APPL_DMA_LTE.c **** 	{
 123:../01_Applcation/APPL_DMA_LTE/APPL_DMA_LTE.c **** 		APPL_DMA_LTE_Step_Init[i].Return_Stage = 1;
 124:../01_Applcation/APPL_DMA_LTE/APPL_DMA_LTE.c **** 	}
 125:../01_Applcation/APPL_DMA_LTE/APPL_DMA_LTE.c **** 	APPL_DMA_LTE_Step_Init[0].Return_Stage = 2;
 126:../01_Applcation/APPL_DMA_LTE/APPL_DMA_LTE.c **** }
 127:../01_Applcation/APPL_DMA_LTE/APPL_DMA_LTE.c **** 
 128:../01_Applcation/APPL_DMA_LTE/APPL_DMA_LTE.c **** /*******************************************************************************
 129:../01_Applcation/APPL_DMA_LTE/APPL_DMA_LTE.c ****  * Function: APPL_DMA_LTE_printString
 130:../01_Applcation/APPL_DMA_LTE/APPL_DMA_LTE.c ****  *
 131:../01_Applcation/APPL_DMA_LTE/APPL_DMA_LTE.c ****  * Parameters:      -
 132:../01_Applcation/APPL_DMA_LTE/APPL_DMA_LTE.c ****  * Returned value:  -
 133:../01_Applcation/APPL_DMA_LTE/APPL_DMA_LTE.c ****  *
 134:../01_Applcation/APPL_DMA_LTE/APPL_DMA_LTE.c ****  * Description:
 135:../01_Applcation/APPL_DMA_LTE/APPL_DMA_LTE.c ****  *
 136:../01_Applcation/APPL_DMA_LTE/APPL_DMA_LTE.c ****  * Calling:
 137:../01_Applcation/APPL_DMA_LTE/APPL_DMA_LTE.c ****  ******************************************************************************/
 138:../01_Applcation/APPL_DMA_LTE/APPL_DMA_LTE.c **** /*void APPL_DMA_LTE_printString(const uint8_t myString[]) {
 139:../01_Applcation/APPL_DMA_LTE/APPL_DMA_LTE.c **** 	uint8_t i = 0;
 140:../01_Applcation/APPL_DMA_LTE/APPL_DMA_LTE.c **** 	while (myString[i]) {
 141:../01_Applcation/APPL_DMA_LTE/APPL_DMA_LTE.c **** 		while (!(REG_USART0_CSR & US_CSR_TXRDY));
 142:../01_Applcation/APPL_DMA_LTE/APPL_DMA_LTE.c **** 		while (!(REG_USART0_CSR & US_CSR_TXEMPTY));
 143:../01_Applcation/APPL_DMA_LTE/APPL_DMA_LTE.c **** 		REG_USART0_THR |=myString[i];
ARM GAS  C:\Users\minde\AppData\Local\Temp\ccFRyS8g.s 			page 4


 144:../01_Applcation/APPL_DMA_LTE/APPL_DMA_LTE.c **** 		i++;
 145:../01_Applcation/APPL_DMA_LTE/APPL_DMA_LTE.c **** 	}
 146:../01_Applcation/APPL_DMA_LTE/APPL_DMA_LTE.c **** }
 147:../01_Applcation/APPL_DMA_LTE/APPL_DMA_LTE.c **** */
 148:../01_Applcation/APPL_DMA_LTE/APPL_DMA_LTE.c **** /*******************************************************************************
 149:../01_Applcation/APPL_DMA_LTE/APPL_DMA_LTE.c ****  * Function: APPL_DMA_LTE_printf
 150:../01_Applcation/APPL_DMA_LTE/APPL_DMA_LTE.c ****  *
 151:../01_Applcation/APPL_DMA_LTE/APPL_DMA_LTE.c ****  * Parameters:      -
 152:../01_Applcation/APPL_DMA_LTE/APPL_DMA_LTE.c ****  * Returned value:  -
 153:../01_Applcation/APPL_DMA_LTE/APPL_DMA_LTE.c ****  *
 154:../01_Applcation/APPL_DMA_LTE/APPL_DMA_LTE.c ****  * Description:
 155:../01_Applcation/APPL_DMA_LTE/APPL_DMA_LTE.c ****  *
 156:../01_Applcation/APPL_DMA_LTE/APPL_DMA_LTE.c ****  * Calling:
 157:../01_Applcation/APPL_DMA_LTE/APPL_DMA_LTE.c ****  ******************************************************************************/
 158:../01_Applcation/APPL_DMA_LTE/APPL_DMA_LTE.c **** void APPL_DMA_LTE_printf(const char *format, ...)
 159:../01_Applcation/APPL_DMA_LTE/APPL_DMA_LTE.c **** {
 160:../01_Applcation/APPL_DMA_LTE/APPL_DMA_LTE.c **** 	// there was an error reading.
 161:../01_Applcation/APPL_DMA_LTE/APPL_DMA_LTE.c **** 	uint8_t SerialBuffer[255];
 162:../01_Applcation/APPL_DMA_LTE/APPL_DMA_LTE.c **** 	memset(SerialBuffer, 0, 255);
 163:../01_Applcation/APPL_DMA_LTE/APPL_DMA_LTE.c **** 	va_list args;
 164:../01_Applcation/APPL_DMA_LTE/APPL_DMA_LTE.c **** 	va_start(args, format);
 165:../01_Applcation/APPL_DMA_LTE/APPL_DMA_LTE.c **** 	vsprintf((char *)SerialBuffer, format, args);
 166:../01_Applcation/APPL_DMA_LTE/APPL_DMA_LTE.c **** 	va_end(args);
 167:../01_Applcation/APPL_DMA_LTE/APPL_DMA_LTE.c **** 	HAL_UART_Transmit(&huart1, SerialBuffer, strlen((char *)SerialBuffer), 10);
 168:../01_Applcation/APPL_DMA_LTE/APPL_DMA_LTE.c **** 	// APPL_DMA_LTE_printString(SerialBuffer);
 169:../01_Applcation/APPL_DMA_LTE/APPL_DMA_LTE.c **** }
 170:../01_Applcation/APPL_DMA_LTE/APPL_DMA_LTE.c **** 
 171:../01_Applcation/APPL_DMA_LTE/APPL_DMA_LTE.c **** /*******************************************************************************
 172:../01_Applcation/APPL_DMA_LTE/APPL_DMA_LTE.c ****  * Function: APPL_DMA_LTE_MQTT_PUBLISH
 173:../01_Applcation/APPL_DMA_LTE/APPL_DMA_LTE.c ****  *
 174:../01_Applcation/APPL_DMA_LTE/APPL_DMA_LTE.c ****  * Parameters:      -
 175:../01_Applcation/APPL_DMA_LTE/APPL_DMA_LTE.c ****  * Returned value:  -
 176:../01_Applcation/APPL_DMA_LTE/APPL_DMA_LTE.c ****  *
 177:../01_Applcation/APPL_DMA_LTE/APPL_DMA_LTE.c ****  * Description:
 178:../01_Applcation/APPL_DMA_LTE/APPL_DMA_LTE.c ****  *
 179:../01_Applcation/APPL_DMA_LTE/APPL_DMA_LTE.c ****  * Calling:
 180:../01_Applcation/APPL_DMA_LTE/APPL_DMA_LTE.c ****  ******************************************************************************/
 181:../01_Applcation/APPL_DMA_LTE/APPL_DMA_LTE.c **** void APPL_DMA_LTE_MQTT_PUBLISH(const char *MQTT_Topic, const char *format, ...)
 182:../01_Applcation/APPL_DMA_LTE/APPL_DMA_LTE.c **** {
 183:../01_Applcation/APPL_DMA_LTE/APPL_DMA_LTE.c **** 	if (APPL_DMA_LTE_MQTT_ONLINE == 1)
 184:../01_Applcation/APPL_DMA_LTE/APPL_DMA_LTE.c **** 	{
 185:../01_Applcation/APPL_DMA_LTE/APPL_DMA_LTE.c **** 		// there was an error reading.
 186:../01_Applcation/APPL_DMA_LTE/APPL_DMA_LTE.c **** 		uint8_t SerialBuffer[255];
 187:../01_Applcation/APPL_DMA_LTE/APPL_DMA_LTE.c **** 		memset(SerialBuffer, 0, 255);
 188:../01_Applcation/APPL_DMA_LTE/APPL_DMA_LTE.c **** 		va_list args;
 189:../01_Applcation/APPL_DMA_LTE/APPL_DMA_LTE.c **** 		va_start(args, format);
 190:../01_Applcation/APPL_DMA_LTE/APPL_DMA_LTE.c **** 		vsprintf((char *)SerialBuffer, format, args);
 191:../01_Applcation/APPL_DMA_LTE/APPL_DMA_LTE.c **** 		va_end(args);
 192:../01_Applcation/APPL_DMA_LTE/APPL_DMA_LTE.c **** 		APPL_DMA_LTE_printf("AT+SMPUB=\"UUMON/%d/%s\",%d,0,0\r\n", APPL_data.deviceID, MQTT_Topic, strlen
 193:../01_Applcation/APPL_DMA_LTE/APPL_DMA_LTE.c **** 		APPL_DMA_LTE_printf("%s\r\n", SerialBuffer);
 194:../01_Applcation/APPL_DMA_LTE/APPL_DMA_LTE.c **** 	}
 195:../01_Applcation/APPL_DMA_LTE/APPL_DMA_LTE.c **** }
 196:../01_Applcation/APPL_DMA_LTE/APPL_DMA_LTE.c **** 
 197:../01_Applcation/APPL_DMA_LTE/APPL_DMA_LTE.c **** /*******************************************************************************
 198:../01_Applcation/APPL_DMA_LTE/APPL_DMA_LTE.c ****  * Function: APPL_DMA_LTE_MQTT_PUBLISH_Raw
 199:../01_Applcation/APPL_DMA_LTE/APPL_DMA_LTE.c ****  *
 200:../01_Applcation/APPL_DMA_LTE/APPL_DMA_LTE.c ****  * Parameters:      -
ARM GAS  C:\Users\minde\AppData\Local\Temp\ccFRyS8g.s 			page 5


 201:../01_Applcation/APPL_DMA_LTE/APPL_DMA_LTE.c ****  * Returned value:  -
 202:../01_Applcation/APPL_DMA_LTE/APPL_DMA_LTE.c ****  *
 203:../01_Applcation/APPL_DMA_LTE/APPL_DMA_LTE.c ****  * Description:
 204:../01_Applcation/APPL_DMA_LTE/APPL_DMA_LTE.c ****  *
 205:../01_Applcation/APPL_DMA_LTE/APPL_DMA_LTE.c ****  * Calling:
 206:../01_Applcation/APPL_DMA_LTE/APPL_DMA_LTE.c ****  ******************************************************************************/
 207:../01_Applcation/APPL_DMA_LTE/APPL_DMA_LTE.c **** void APPL_DMA_LTE_MQTT_PUBLISH_Raw(const char *MQTT_Topic, uint8_t *data, uint8_t len)
 208:../01_Applcation/APPL_DMA_LTE/APPL_DMA_LTE.c **** {
 209:../01_Applcation/APPL_DMA_LTE/APPL_DMA_LTE.c **** 	if (APPL_DMA_LTE_MQTT_ONLINE == 1)
 210:../01_Applcation/APPL_DMA_LTE/APPL_DMA_LTE.c **** 	{
 211:../01_Applcation/APPL_DMA_LTE/APPL_DMA_LTE.c **** 		// there was an error reading.
 212:../01_Applcation/APPL_DMA_LTE/APPL_DMA_LTE.c **** 		APPL_DMA_LTE_printf("AT+SMPUB=\"UUMON/%d/%s\",%d,0,0\r\n", 
 213:../01_Applcation/APPL_DMA_LTE/APPL_DMA_LTE.c **** 							APPL_data.deviceID,
 214:../01_Applcation/APPL_DMA_LTE/APPL_DMA_LTE.c **** 							MQTT_Topic,
 215:../01_Applcation/APPL_DMA_LTE/APPL_DMA_LTE.c **** 							(3 * len));
 216:../01_Applcation/APPL_DMA_LTE/APPL_DMA_LTE.c **** 		for (int i = 0; i < len; i++)
 217:../01_Applcation/APPL_DMA_LTE/APPL_DMA_LTE.c **** 		{
 218:../01_Applcation/APPL_DMA_LTE/APPL_DMA_LTE.c **** 			APPL_DMA_LTE_printf("%02x ", data[i]);
 219:../01_Applcation/APPL_DMA_LTE/APPL_DMA_LTE.c **** 		}
 220:../01_Applcation/APPL_DMA_LTE/APPL_DMA_LTE.c **** 		APPL_DMA_LTE_printf("\r\n");
 221:../01_Applcation/APPL_DMA_LTE/APPL_DMA_LTE.c **** 	}
 222:../01_Applcation/APPL_DMA_LTE/APPL_DMA_LTE.c **** }
 223:../01_Applcation/APPL_DMA_LTE/APPL_DMA_LTE.c **** 
 224:../01_Applcation/APPL_DMA_LTE/APPL_DMA_LTE.c **** /*******************************************************************************
 225:../01_Applcation/APPL_DMA_LTE/APPL_DMA_LTE.c ****  * Function: APPL_DMA_LTE_SIM7000G_Init
 226:../01_Applcation/APPL_DMA_LTE/APPL_DMA_LTE.c ****  *
 227:../01_Applcation/APPL_DMA_LTE/APPL_DMA_LTE.c ****  * Parameters:      -
 228:../01_Applcation/APPL_DMA_LTE/APPL_DMA_LTE.c ****  * Returned value:  -
 229:../01_Applcation/APPL_DMA_LTE/APPL_DMA_LTE.c ****  *
 230:../01_Applcation/APPL_DMA_LTE/APPL_DMA_LTE.c ****  * Description:
 231:../01_Applcation/APPL_DMA_LTE/APPL_DMA_LTE.c ****  *
 232:../01_Applcation/APPL_DMA_LTE/APPL_DMA_LTE.c ****  * Calling:
 233:../01_Applcation/APPL_DMA_LTE/APPL_DMA_LTE.c ****  ******************************************************************************/
 234:../01_Applcation/APPL_DMA_LTE/APPL_DMA_LTE.c **** void APPL_DMA_LTE_SIM7000G_Init(void)
 235:../01_Applcation/APPL_DMA_LTE/APPL_DMA_LTE.c **** {
 236:../01_Applcation/APPL_DMA_LTE/APPL_DMA_LTE.c **** 	if (APPL_DMA_LTE_Step_Init[APPL_DMA_LTE_Init_Stage].Return_Stage == 0)
 237:../01_Applcation/APPL_DMA_LTE/APPL_DMA_LTE.c **** 	{
 238:../01_Applcation/APPL_DMA_LTE/APPL_DMA_LTE.c **** 		APPL_DMA_LTE_Init_Stage++;
 239:../01_Applcation/APPL_DMA_LTE/APPL_DMA_LTE.c **** 	}
 240:../01_Applcation/APPL_DMA_LTE/APPL_DMA_LTE.c **** 	if (APPL_DMA_LTE_Init_Stage < 10)
 241:../01_Applcation/APPL_DMA_LTE/APPL_DMA_LTE.c **** 	{
 242:../01_Applcation/APPL_DMA_LTE/APPL_DMA_LTE.c **** 		APPL_DMA_LTE_printf("%s", APPL_DMA_LTE_Step_Init[APPL_DMA_LTE_Init_Stage].Command);
 243:../01_Applcation/APPL_DMA_LTE/APPL_DMA_LTE.c **** 	//	APPL_USB_printf("%s", APPL_DMA_LTE_Step_Init[APPL_DMA_LTE_Init_Stage].Command);
 244:../01_Applcation/APPL_DMA_LTE/APPL_DMA_LTE.c **** 	}
 245:../01_Applcation/APPL_DMA_LTE/APPL_DMA_LTE.c **** }
 246:../01_Applcation/APPL_DMA_LTE/APPL_DMA_LTE.c **** 
 247:../01_Applcation/APPL_DMA_LTE/APPL_DMA_LTE.c **** /*******************************************************************************
 248:../01_Applcation/APPL_DMA_LTE/APPL_DMA_LTE.c ****  * Function: APPL_DMA_LTE_SIM7000G_Error_Handel
 249:../01_Applcation/APPL_DMA_LTE/APPL_DMA_LTE.c ****  *
 250:../01_Applcation/APPL_DMA_LTE/APPL_DMA_LTE.c ****  * Parameters:      -
 251:../01_Applcation/APPL_DMA_LTE/APPL_DMA_LTE.c ****  * Returned value:  -
 252:../01_Applcation/APPL_DMA_LTE/APPL_DMA_LTE.c ****  *
 253:../01_Applcation/APPL_DMA_LTE/APPL_DMA_LTE.c ****  * Description:
 254:../01_Applcation/APPL_DMA_LTE/APPL_DMA_LTE.c ****  *
 255:../01_Applcation/APPL_DMA_LTE/APPL_DMA_LTE.c ****  * Calling:
 256:../01_Applcation/APPL_DMA_LTE/APPL_DMA_LTE.c ****  ******************************************************************************/
 257:../01_Applcation/APPL_DMA_LTE/APPL_DMA_LTE.c **** void APPL_DMA_LTE_SIM7000G_Error_Handel(void)
ARM GAS  C:\Users\minde\AppData\Local\Temp\ccFRyS8g.s 			page 6


 258:../01_Applcation/APPL_DMA_LTE/APPL_DMA_LTE.c **** {
 259:../01_Applcation/APPL_DMA_LTE/APPL_DMA_LTE.c **** }
 260:../01_Applcation/APPL_DMA_LTE/APPL_DMA_LTE.c **** 
 261:../01_Applcation/APPL_DMA_LTE/APPL_DMA_LTE.c **** /*******************************************************************************
 262:../01_Applcation/APPL_DMA_LTE/APPL_DMA_LTE.c ****  * Function: APPL_DMA_LTE_LineProcess
 263:../01_Applcation/APPL_DMA_LTE/APPL_DMA_LTE.c ****  *
 264:../01_Applcation/APPL_DMA_LTE/APPL_DMA_LTE.c ****  * Parameters:      -
 265:../01_Applcation/APPL_DMA_LTE/APPL_DMA_LTE.c ****  * Returned value:  -
 266:../01_Applcation/APPL_DMA_LTE/APPL_DMA_LTE.c ****  *
 267:../01_Applcation/APPL_DMA_LTE/APPL_DMA_LTE.c ****  * Description:
 268:../01_Applcation/APPL_DMA_LTE/APPL_DMA_LTE.c ****  *
 269:../01_Applcation/APPL_DMA_LTE/APPL_DMA_LTE.c ****  * Calling:
 270:../01_Applcation/APPL_DMA_LTE/APPL_DMA_LTE.c ****  ******************************************************************************/
 271:../01_Applcation/APPL_DMA_LTE/APPL_DMA_LTE.c **** void APPL_DMA_LTE_LineProcess(void)
 272:../01_Applcation/APPL_DMA_LTE/APPL_DMA_LTE.c **** {
 273:../01_Applcation/APPL_DMA_LTE/APPL_DMA_LTE.c **** 	uint8_t commandread[255];
 274:../01_Applcation/APPL_DMA_LTE/APPL_DMA_LTE.c **** 	// APPL_DMA_LTE_printf("Command = %s", APPL_DMA_RS48_Rx.buffer);
 275:../01_Applcation/APPL_DMA_LTE/APPL_DMA_LTE.c **** 	while (EKM_Buffer_readline(&APPL_DMA_LTE_Buffer, commandread, "\r\n"))
 276:../01_Applcation/APPL_DMA_LTE/APPL_DMA_LTE.c **** 	{
 277:../01_Applcation/APPL_DMA_LTE/APPL_DMA_LTE.c **** 		APPL_USB_printf("Command = %s--", commandread);
 278:../01_Applcation/APPL_DMA_LTE/APPL_DMA_LTE.c **** 		if (EKM_CMD_LineProcess((char *)commandread, &APPL_DMA_LTE_CMD_OK, ' ') == EKM_CMD_LINE_BAD_CMD){
 279:../01_Applcation/APPL_DMA_LTE/APPL_DMA_LTE.c **** 			// APPL_DMA_LTE_printf("Command not found");
 280:../01_Applcation/APPL_DMA_LTE/APPL_DMA_LTE.c **** 		}
 281:../01_Applcation/APPL_DMA_LTE/APPL_DMA_LTE.c **** 	}
 282:../01_Applcation/APPL_DMA_LTE/APPL_DMA_LTE.c **** //	EKM_Buffer_Reset(&APPL_DMA_LTE_Buffer);
 283:../01_Applcation/APPL_DMA_LTE/APPL_DMA_LTE.c **** }
 284:../01_Applcation/APPL_DMA_LTE/APPL_DMA_LTE.c **** 
 285:../01_Applcation/APPL_DMA_LTE/APPL_DMA_LTE.c **** /*******************************************************************************
 286:../01_Applcation/APPL_DMA_LTE/APPL_DMA_LTE.c ****  * Function: APPL_DMA_LTE_OK
 287:../01_Applcation/APPL_DMA_LTE/APPL_DMA_LTE.c ****  *
 288:../01_Applcation/APPL_DMA_LTE/APPL_DMA_LTE.c ****  * Parameters:      -
 289:../01_Applcation/APPL_DMA_LTE/APPL_DMA_LTE.c ****  * Returned value:  -
 290:../01_Applcation/APPL_DMA_LTE/APPL_DMA_LTE.c ****  *
 291:../01_Applcation/APPL_DMA_LTE/APPL_DMA_LTE.c ****  * Description:
 292:../01_Applcation/APPL_DMA_LTE/APPL_DMA_LTE.c ****  *
 293:../01_Applcation/APPL_DMA_LTE/APPL_DMA_LTE.c ****  * Calling:
 294:../01_Applcation/APPL_DMA_LTE/APPL_DMA_LTE.c ****  ******************************************************************************/
 295:../01_Applcation/APPL_DMA_LTE/APPL_DMA_LTE.c **** int APPL_DMA_LTE_OK(int argc, char *argv[])
 296:../01_Applcation/APPL_DMA_LTE/APPL_DMA_LTE.c **** {
 297:../01_Applcation/APPL_DMA_LTE/APPL_DMA_LTE.c **** 	APPL_DMA_LTE_Step_Init[APPL_DMA_LTE_Init_Stage].Return_Stage = 0;
 298:../01_Applcation/APPL_DMA_LTE/APPL_DMA_LTE.c **** 	APPL_USB_printf("APPL_DMA_LTE_Init_Stage = %d", APPL_DMA_LTE_Init_Stage);
 299:../01_Applcation/APPL_DMA_LTE/APPL_DMA_LTE.c **** 	return 0;
 300:../01_Applcation/APPL_DMA_LTE/APPL_DMA_LTE.c **** }
 301:../01_Applcation/APPL_DMA_LTE/APPL_DMA_LTE.c **** 
 302:../01_Applcation/APPL_DMA_LTE/APPL_DMA_LTE.c **** /*******************************************************************************
 303:../01_Applcation/APPL_DMA_LTE/APPL_DMA_LTE.c ****  * Function: APPL_DMA_LTE_Error
 304:../01_Applcation/APPL_DMA_LTE/APPL_DMA_LTE.c ****  *
 305:../01_Applcation/APPL_DMA_LTE/APPL_DMA_LTE.c ****  * Parameters:      -
 306:../01_Applcation/APPL_DMA_LTE/APPL_DMA_LTE.c ****  * Returned value:  -
 307:../01_Applcation/APPL_DMA_LTE/APPL_DMA_LTE.c ****  *
 308:../01_Applcation/APPL_DMA_LTE/APPL_DMA_LTE.c ****  * Description:
 309:../01_Applcation/APPL_DMA_LTE/APPL_DMA_LTE.c ****  *
 310:../01_Applcation/APPL_DMA_LTE/APPL_DMA_LTE.c ****  * Calling:
 311:../01_Applcation/APPL_DMA_LTE/APPL_DMA_LTE.c ****  ******************************************************************************/
 312:../01_Applcation/APPL_DMA_LTE/APPL_DMA_LTE.c **** int APPL_DMA_LTE_Error(int argc, char *argv[])
 313:../01_Applcation/APPL_DMA_LTE/APPL_DMA_LTE.c **** {
 314:../01_Applcation/APPL_DMA_LTE/APPL_DMA_LTE.c **** 	APPL_DMA_LTE_printf("AT+CPOWD=0\r\n");
ARM GAS  C:\Users\minde\AppData\Local\Temp\ccFRyS8g.s 			page 7


 315:../01_Applcation/APPL_DMA_LTE/APPL_DMA_LTE.c **** 	if (APPL_DMA_LTE_MQTT_ONLINE == 1)
 316:../01_Applcation/APPL_DMA_LTE/APPL_DMA_LTE.c **** 	{
 317:../01_Applcation/APPL_DMA_LTE/APPL_DMA_LTE.c **** 		APPL_DMA_LTE_SIM7000G_ErrorCount++;
 318:../01_Applcation/APPL_DMA_LTE/APPL_DMA_LTE.c **** 	}
 319:../01_Applcation/APPL_DMA_LTE/APPL_DMA_LTE.c **** 	return 0;
 320:../01_Applcation/APPL_DMA_LTE/APPL_DMA_LTE.c **** }
 321:../01_Applcation/APPL_DMA_LTE/APPL_DMA_LTE.c **** 
 322:../01_Applcation/APPL_DMA_LTE/APPL_DMA_LTE.c **** /*******************************************************************************
 323:../01_Applcation/APPL_DMA_LTE/APPL_DMA_LTE.c ****  * Function: APPL_DMA_LTE_APP
 324:../01_Applcation/APPL_DMA_LTE/APPL_DMA_LTE.c ****  *
 325:../01_Applcation/APPL_DMA_LTE/APPL_DMA_LTE.c ****  * Parameters:      -
 326:../01_Applcation/APPL_DMA_LTE/APPL_DMA_LTE.c ****  * Returned value:  -
 327:../01_Applcation/APPL_DMA_LTE/APPL_DMA_LTE.c ****  *
 328:../01_Applcation/APPL_DMA_LTE/APPL_DMA_LTE.c ****  * Description: APP PDP: DEACTIVE
 329:../01_Applcation/APPL_DMA_LTE/APPL_DMA_LTE.c ****  *
 330:../01_Applcation/APPL_DMA_LTE/APPL_DMA_LTE.c ****  * Calling:
 331:../01_Applcation/APPL_DMA_LTE/APPL_DMA_LTE.c ****  ******************************************************************************/
 332:../01_Applcation/APPL_DMA_LTE/APPL_DMA_LTE.c **** int APPL_DMA_LTE_APP(int argc, char *argv[])
 333:../01_Applcation/APPL_DMA_LTE/APPL_DMA_LTE.c **** {
 334:../01_Applcation/APPL_DMA_LTE/APPL_DMA_LTE.c **** 	if (argc > 2)
 335:../01_Applcation/APPL_DMA_LTE/APPL_DMA_LTE.c **** 	{
 336:../01_Applcation/APPL_DMA_LTE/APPL_DMA_LTE.c **** 		if (strstr(argv[2], "DEACTIVE") != NULL)
 337:../01_Applcation/APPL_DMA_LTE/APPL_DMA_LTE.c **** 		{
 338:../01_Applcation/APPL_DMA_LTE/APPL_DMA_LTE.c **** 
 339:../01_Applcation/APPL_DMA_LTE/APPL_DMA_LTE.c **** 		}
 340:../01_Applcation/APPL_DMA_LTE/APPL_DMA_LTE.c **** 		else if (strstr(argv[2], "ACTIVE") != NULL)
 341:../01_Applcation/APPL_DMA_LTE/APPL_DMA_LTE.c **** 		{
 342:../01_Applcation/APPL_DMA_LTE/APPL_DMA_LTE.c **** 			
 343:../01_Applcation/APPL_DMA_LTE/APPL_DMA_LTE.c **** 		}
 344:../01_Applcation/APPL_DMA_LTE/APPL_DMA_LTE.c **** 	}
 345:../01_Applcation/APPL_DMA_LTE/APPL_DMA_LTE.c **** 	return 0;
 346:../01_Applcation/APPL_DMA_LTE/APPL_DMA_LTE.c **** }
 347:../01_Applcation/APPL_DMA_LTE/APPL_DMA_LTE.c **** 
 348:../01_Applcation/APPL_DMA_LTE/APPL_DMA_LTE.c **** /*******************************************************************************
 349:../01_Applcation/APPL_DMA_LTE/APPL_DMA_LTE.c ****  * Function: APPL_DMA_LTE_PSUTTZ
 350:../01_Applcation/APPL_DMA_LTE/APPL_DMA_LTE.c ****  *
 351:../01_Applcation/APPL_DMA_LTE/APPL_DMA_LTE.c ****  * Parameters:      -
 352:../01_Applcation/APPL_DMA_LTE/APPL_DMA_LTE.c ****  * Returned value:  -
 353:../01_Applcation/APPL_DMA_LTE/APPL_DMA_LTE.c ****  *
 354:../01_Applcation/APPL_DMA_LTE/APPL_DMA_LTE.c ****  * Description: *PSUTTZ: 22/06/12,14:45:24","+28"
 355:../01_Applcation/APPL_DMA_LTE/APPL_DMA_LTE.c ****  *
 356:../01_Applcation/APPL_DMA_LTE/APPL_DMA_LTE.c ****  * Calling:
 357:../01_Applcation/APPL_DMA_LTE/APPL_DMA_LTE.c ****  ******************************************************************************/
 358:../01_Applcation/APPL_DMA_LTE/APPL_DMA_LTE.c **** int APPL_DMA_LTE_PSUTTZ(int argc, char *argv[])
 359:../01_Applcation/APPL_DMA_LTE/APPL_DMA_LTE.c **** {
  30              		.loc 1 359 1 view -0
  31              		.cfi_startproc
  32              		@ args = 0, pretend = 0, frame = 0
  33              		@ frame_needed = 0, uses_anonymous_args = 0
  34              		@ link register save eliminated.
 360:../01_Applcation/APPL_DMA_LTE/APPL_DMA_LTE.c **** 	
 361:../01_Applcation/APPL_DMA_LTE/APPL_DMA_LTE.c **** 	return 0;
  35              		.loc 1 361 2 view .LVU1
 362:../01_Applcation/APPL_DMA_LTE/APPL_DMA_LTE.c **** }...
  36              		.loc 1 362 1 is_stmt 0 view .LVU2
  37 0000 0020     		movs	r0, #0
  38              	.LVL1:
ARM GAS  C:\Users\minde\AppData\Local\Temp\ccFRyS8g.s 			page 8


  39              		.loc 1 362 1 view .LVU3
  40 0002 7047     		bx	lr
  41              		.cfi_endproc
  42              	.LFE301:
  44              		.section	.rodata.APPL_DMA_LTE_OK.str1.4,"aMS",%progbits,1
  45              		.align	2
  46              	.LC0:
  47 0000 4150504C 		.ascii	"APPL_DMA_LTE_Init_Stage = %d\000"
  47      5F444D41 
  47      5F4C5445 
  47      5F496E69 
  47      745F5374 
  48              		.section	.text.APPL_DMA_LTE_OK,"ax",%progbits
  49              		.align	1
  50              		.global	APPL_DMA_LTE_OK
  51              		.syntax unified
  52              		.thumb
  53              		.thumb_func
  55              	APPL_DMA_LTE_OK:
  56              	.LVL2:
  57              	.LFB298:
 296:../01_Applcation/APPL_DMA_LTE/APPL_DMA_LTE.c **** {
  58              		.loc 1 296 1 is_stmt 1 view -0
  59              		.cfi_startproc
  60              		@ args = 0, pretend = 0, frame = 0
  61              		@ frame_needed = 0, uses_anonymous_args = 0
 296:../01_Applcation/APPL_DMA_LTE/APPL_DMA_LTE.c **** {
  62              		.loc 1 296 1 is_stmt 0 view .LVU5
  63 0000 10B5     		push	{r4, lr}
  64              	.LCFI0:
  65              		.cfi_def_cfa_offset 8
  66              		.cfi_offset 4, -8
  67              		.cfi_offset 14, -4
 297:../01_Applcation/APPL_DMA_LTE/APPL_DMA_LTE.c **** 	APPL_DMA_LTE_Step_Init[APPL_DMA_LTE_Init_Stage].Return_Stage = 0;
  68              		.loc 1 297 2 is_stmt 1 view .LVU6
 297:../01_Applcation/APPL_DMA_LTE/APPL_DMA_LTE.c **** 	APPL_DMA_LTE_Step_Init[APPL_DMA_LTE_Init_Stage].Return_Stage = 0;
  69              		.loc 1 297 49 is_stmt 0 view .LVU7
  70 0002 064B     		ldr	r3, .L4
  71 0004 1978     		ldrb	r1, [r3]	@ zero_extendqisi2
  72              	.LVL3:
 297:../01_Applcation/APPL_DMA_LTE/APPL_DMA_LTE.c **** 	APPL_DMA_LTE_Step_Init[APPL_DMA_LTE_Init_Stage].Return_Stage = 0;
  73              		.loc 1 297 63 view .LVU8
  74 0006 064B     		ldr	r3, .L4+4
  75 0008 03EBC103 		add	r3, r3, r1, lsl #3
  76 000c 0024     		movs	r4, #0
  77 000e 1C71     		strb	r4, [r3, #4]
 298:../01_Applcation/APPL_DMA_LTE/APPL_DMA_LTE.c **** 	APPL_USB_printf("APPL_DMA_LTE_Init_Stage = %d", APPL_DMA_LTE_Init_Stage);
  78              		.loc 1 298 2 is_stmt 1 view .LVU9
  79 0010 0448     		ldr	r0, .L4+8
  80              	.LVL4:
 298:../01_Applcation/APPL_DMA_LTE/APPL_DMA_LTE.c **** 	APPL_USB_printf("APPL_DMA_LTE_Init_Stage = %d", APPL_DMA_LTE_Init_Stage);
  81              		.loc 1 298 2 is_stmt 0 view .LVU10
  82 0012 FFF7FEFF 		bl	APPL_USB_printf
  83              	.LVL5:
 299:../01_Applcation/APPL_DMA_LTE/APPL_DMA_LTE.c **** 	return 0;
  84              		.loc 1 299 2 is_stmt 1 view .LVU11
 300:../01_Applcation/APPL_DMA_LTE/APPL_DMA_LTE.c **** }
ARM GAS  C:\Users\minde\AppData\Local\Temp\ccFRyS8g.s 			page 9


  85              		.loc 1 300 1 is_stmt 0 view .LVU12
  86 0016 2046     		mov	r0, r4
  87 0018 10BD     		pop	{r4, pc}
  88              	.L5:
  89 001a 00BF     		.align	2
  90              	.L4:
  91 001c 00000000 		.word	.LANCHOR0
  92 0020 00000000 		.word	.LANCHOR1
  93 0024 00000000 		.word	.LC0
  94              		.cfi_endproc
  95              	.LFE298:
  97              		.section	.rodata.APPL_DMA_LTE_Init.str1.4,"aMS",%progbits,1
  98              		.align	2
  99              	.LC1:
 100 0000 4F4B00   		.ascii	"OK\000"
 101 0003 00       		.align	2
 102              	.LC2:
 103 0004 6F6B2066 		.ascii	"ok function\000"
 103      756E6374 
 103      696F6E00 
 104              		.align	2
 105              	.LC3:
 106 0010 2A505355 		.ascii	"*PSUTTZ:\000"
 106      54545A3A 
 106      00
 107 0019 000000   		.align	2
 108              	.LC4:
 109 001c 5475726E 		.ascii	"Turn On Init\000"
 109      204F6E20 
 109      496E6974 
 109      00
 110 0029 000000   		.align	2
 111              	.LC5:
 112 002c 4552524F 		.ascii	"ERROR\000"
 112      5200
 113 0032 0000     		.align	2
 114              	.LC6:
 115 0034 41544530 		.ascii	"ATE0\015\012\000"
 115      0D0A00
 116 003b 00       		.align	2
 117              	.LC7:
 118 003c 41542B53 		.ascii	"AT+SMCONF=\"CLIENTID\",\"id\"\015\012\000"
 118      4D434F4E 
 118      463D2243 
 118      4C49454E 
 118      54494422 
 119              		.align	2
 120              	.LC8:
 121 0058 41542B53 		.ascii	"AT+SMCONF=\"KEEPTIME\",60\015\012\000"
 121      4D434F4E 
 121      463D224B 
 121      45455054 
 121      494D4522 
 122 0072 0000     		.align	2
 123              	.LC9:
 124 0074 41542B53 		.ascii	"AT+SMCONF=\"URL\",\"203.151.79.149\",\"1883\"\015\012"
 124      4D434F4E 
ARM GAS  C:\Users\minde\AppData\Local\Temp\ccFRyS8g.s 			page 10


 124      463D2255 
 124      524C222C 
 124      22323033 
 125 009d 00       		.ascii	"\000"
 126 009e 0000     		.align	2
 127              	.LC10:
 128 00a0 41542B53 		.ascii	"AT+SMCONF=\"USERNAME\",\"1111\"\015\012\000"
 128      4D434F4E 
 128      463D2255 
 128      5345524E 
 128      414D4522 
 129 00be 0000     		.align	2
 130              	.LC11:
 131 00c0 41542B53 		.ascii	"AT+SMCONF=\"PASSWORD\",\"1111\"\015\012\000"
 131      4D434F4E 
 131      463D2250 
 131      41535357 
 131      4F524422 
 132 00de 0000     		.align	2
 133              	.LC12:
 134 00e0 41542B53 		.ascii	"AT+SMCONF=\"CLEANSS\",1\015\012\000"
 134      4D434F4E 
 134      463D2243 
 134      4C45414E 
 134      5353222C 
 135              		.align	2
 136              	.LC13:
 137 00f8 41542B53 		.ascii	"AT+SMCONF=\"QOS\",0\015\012\000"
 137      4D434F4E 
 137      463D2251 
 137      4F53222C 
 137      300D0A00 
 138              		.align	2
 139              	.LC14:
 140 010c 41542B53 		.ascii	"AT+SMCONF=\"RETAIN\",0\015\012\000"
 140      4D434F4E 
 140      463D2252 
 140      45544149 
 140      4E222C30 
 141 0123 00       		.align	2
 142              	.LC15:
 143 0124 41542B43 		.ascii	"AT+CMNB=3\015\012\000"
 143      4D4E423D 
 143      330D0A00 
 144              		.align	2
 145              	.LC16:
 146 0130 41542B43 		.ascii	"AT+CNACT=1,\"cmnet\"\015\012\000"
 146      4E414354 
 146      3D312C22 
 146      636D6E65 
 146      74220D0A 
 147              		.section	.text.APPL_DMA_LTE_Init,"ax",%progbits
 148              		.align	1
 149              		.global	APPL_DMA_LTE_Init
 150              		.syntax unified
 151              		.thumb
 152              		.thumb_func
ARM GAS  C:\Users\minde\AppData\Local\Temp\ccFRyS8g.s 			page 11


 154              	APPL_DMA_LTE_Init:
 155              	.LFB291:
  84:../01_Applcation/APPL_DMA_LTE/APPL_DMA_LTE.c **** {
 156              		.loc 1 84 1 is_stmt 1 view -0
 157              		.cfi_startproc
 158              		@ args = 0, pretend = 0, frame = 0
 159              		@ frame_needed = 0, uses_anonymous_args = 0
 160 0000 70B5     		push	{r4, r5, r6, lr}
 161              	.LCFI1:
 162              		.cfi_def_cfa_offset 16
 163              		.cfi_offset 4, -16
 164              		.cfi_offset 5, -12
 165              		.cfi_offset 6, -8
 166              		.cfi_offset 14, -4
  85:../01_Applcation/APPL_DMA_LTE/APPL_DMA_LTE.c **** 	APPL_DMA_LTE_MQTT_ONLINE = 0;
 167              		.loc 1 85 2 view .LVU14
  85:../01_Applcation/APPL_DMA_LTE/APPL_DMA_LTE.c **** 	APPL_DMA_LTE_MQTT_ONLINE = 0;
 168              		.loc 1 85 27 is_stmt 0 view .LVU15
 169 0002 274D     		ldr	r5, .L10
 170 0004 0024     		movs	r4, #0
 171 0006 2C60     		str	r4, [r5]
  86:../01_Applcation/APPL_DMA_LTE/APPL_DMA_LTE.c **** 	APPL_DMA_LTE_SIM7000G_ErrorCount = 0;
 172              		.loc 1 86 2 is_stmt 1 view .LVU16
  86:../01_Applcation/APPL_DMA_LTE/APPL_DMA_LTE.c **** 	APPL_DMA_LTE_SIM7000G_ErrorCount = 0;
 173              		.loc 1 86 35 is_stmt 0 view .LVU17
 174 0008 264B     		ldr	r3, .L10+4
 175 000a 1C80     		strh	r4, [r3]	@ movhi
  87:../01_Applcation/APPL_DMA_LTE/APPL_DMA_LTE.c **** 	EKM_Buffer_Setup(&APPL_DMA_LTE_Buffer, APPL_DMA_LTE_BUFFER_MAX, APPL_DMA_LTE_Buffer_d);
 176              		.loc 1 87 2 is_stmt 1 view .LVU18
 177 000c 264E     		ldr	r6, .L10+8
 178 000e 274A     		ldr	r2, .L10+12
 179 0010 8021     		movs	r1, #128
 180 0012 3046     		mov	r0, r6
 181 0014 FFF7FEFF 		bl	EKM_Buffer_Setup
 182              	.LVL6:
  88:../01_Applcation/APPL_DMA_LTE/APPL_DMA_LTE.c **** 	EKM_Buffer_Reset(&APPL_DMA_LTE_Buffer);
 183              		.loc 1 88 2 view .LVU19
 184 0018 3046     		mov	r0, r6
 185 001a FFF7FEFF 		bl	EKM_Buffer_Reset
 186              	.LVL7:
  90:../01_Applcation/APPL_DMA_LTE/APPL_DMA_LTE.c **** 	APPL_DMA_LTE_CMD_OK.EKM_CMD_pcCmd = "OK";
 187              		.loc 1 90 2 view .LVU20
  90:../01_Applcation/APPL_DMA_LTE/APPL_DMA_LTE.c **** 	APPL_DMA_LTE_CMD_OK.EKM_CMD_pcCmd = "OK";
 188              		.loc 1 90 36 is_stmt 0 view .LVU21
 189 001e 244B     		ldr	r3, .L10+16
 190 0020 244A     		ldr	r2, .L10+20
 191 0022 1A60     		str	r2, [r3]
  91:../01_Applcation/APPL_DMA_LTE/APPL_DMA_LTE.c **** 	APPL_DMA_LTE_CMD_OK.EKM_CMD_pcHelp = "ok function";
 192              		.loc 1 91 2 is_stmt 1 view .LVU22
  91:../01_Applcation/APPL_DMA_LTE/APPL_DMA_LTE.c **** 	APPL_DMA_LTE_CMD_OK.EKM_CMD_pcHelp = "ok function";
 193              		.loc 1 91 37 is_stmt 0 view .LVU23
 194 0024 244A     		ldr	r2, .L10+24
 195 0026 9A60     		str	r2, [r3, #8]
  92:../01_Applcation/APPL_DMA_LTE/APPL_DMA_LTE.c **** 	APPL_DMA_LTE_CMD_OK.EKM_CMD_pfnCmd = &APPL_DMA_LTE_OK;
 196              		.loc 1 92 2 is_stmt 1 view .LVU24
  92:../01_Applcation/APPL_DMA_LTE/APPL_DMA_LTE.c **** 	APPL_DMA_LTE_CMD_OK.EKM_CMD_pfnCmd = &APPL_DMA_LTE_OK;
 197              		.loc 1 92 37 is_stmt 0 view .LVU25
ARM GAS  C:\Users\minde\AppData\Local\Temp\ccFRyS8g.s 			page 12


 198 0028 244A     		ldr	r2, .L10+28
 199 002a 5A60     		str	r2, [r3, #4]
  93:../01_Applcation/APPL_DMA_LTE/APPL_DMA_LTE.c **** 	APPL_DMA_LTE_CMD_OK.next = &APPL_DMA_LTE_CMD_PSUTTZ;
 200              		.loc 1 93 2 is_stmt 1 view .LVU26
  93:../01_Applcation/APPL_DMA_LTE/APPL_DMA_LTE.c **** 	APPL_DMA_LTE_CMD_OK.next = &APPL_DMA_LTE_CMD_PSUTTZ;
 201              		.loc 1 93 27 is_stmt 0 view .LVU27
 202 002c 244A     		ldr	r2, .L10+32
 203 002e DA60     		str	r2, [r3, #12]
  95:../01_Applcation/APPL_DMA_LTE/APPL_DMA_LTE.c **** 	APPL_DMA_LTE_CMD_PSUTTZ.EKM_CMD_pcCmd = "*PSUTTZ:";
 204              		.loc 1 95 2 is_stmt 1 view .LVU28
  95:../01_Applcation/APPL_DMA_LTE/APPL_DMA_LTE.c **** 	APPL_DMA_LTE_CMD_PSUTTZ.EKM_CMD_pcCmd = "*PSUTTZ:";
 205              		.loc 1 95 40 is_stmt 0 view .LVU29
 206 0030 244B     		ldr	r3, .L10+36
 207 0032 1360     		str	r3, [r2]
  96:../01_Applcation/APPL_DMA_LTE/APPL_DMA_LTE.c **** 	APPL_DMA_LTE_CMD_PSUTTZ.EKM_CMD_pcHelp = "Turn On Init";
 208              		.loc 1 96 2 is_stmt 1 view .LVU30
  96:../01_Applcation/APPL_DMA_LTE/APPL_DMA_LTE.c **** 	APPL_DMA_LTE_CMD_PSUTTZ.EKM_CMD_pcHelp = "Turn On Init";
 209              		.loc 1 96 41 is_stmt 0 view .LVU31
 210 0034 244B     		ldr	r3, .L10+40
 211 0036 9360     		str	r3, [r2, #8]
  97:../01_Applcation/APPL_DMA_LTE/APPL_DMA_LTE.c **** 	APPL_DMA_LTE_CMD_PSUTTZ.EKM_CMD_pfnCmd = &APPL_DMA_LTE_PSUTTZ;
 212              		.loc 1 97 2 is_stmt 1 view .LVU32
  97:../01_Applcation/APPL_DMA_LTE/APPL_DMA_LTE.c **** 	APPL_DMA_LTE_CMD_PSUTTZ.EKM_CMD_pfnCmd = &APPL_DMA_LTE_PSUTTZ;
 213              		.loc 1 97 41 is_stmt 0 view .LVU33
 214 0038 244B     		ldr	r3, .L10+44
 215 003a 5360     		str	r3, [r2, #4]
  98:../01_Applcation/APPL_DMA_LTE/APPL_DMA_LTE.c **** 	APPL_DMA_LTE_CMD_PSUTTZ.next = &APPL_DMA_LTE_CMD_Error;
 216              		.loc 1 98 2 is_stmt 1 view .LVU34
  98:../01_Applcation/APPL_DMA_LTE/APPL_DMA_LTE.c **** 	APPL_DMA_LTE_CMD_PSUTTZ.next = &APPL_DMA_LTE_CMD_Error;
 217              		.loc 1 98 31 is_stmt 0 view .LVU35
 218 003c 244B     		ldr	r3, .L10+48
 219 003e D360     		str	r3, [r2, #12]
 100:../01_Applcation/APPL_DMA_LTE/APPL_DMA_LTE.c **** 	APPL_DMA_LTE_CMD_Error.EKM_CMD_pcCmd = "ERROR";
 220              		.loc 1 100 2 is_stmt 1 view .LVU36
 100:../01_Applcation/APPL_DMA_LTE/APPL_DMA_LTE.c **** 	APPL_DMA_LTE_CMD_Error.EKM_CMD_pcCmd = "ERROR";
 221              		.loc 1 100 39 is_stmt 0 view .LVU37
 222 0040 244A     		ldr	r2, .L10+52
 223 0042 1A60     		str	r2, [r3]
 101:../01_Applcation/APPL_DMA_LTE/APPL_DMA_LTE.c **** 	APPL_DMA_LTE_CMD_Error.EKM_CMD_pcHelp = "ERROR";
 224              		.loc 1 101 2 is_stmt 1 view .LVU38
 101:../01_Applcation/APPL_DMA_LTE/APPL_DMA_LTE.c **** 	APPL_DMA_LTE_CMD_Error.EKM_CMD_pcHelp = "ERROR";
 225              		.loc 1 101 40 is_stmt 0 view .LVU39
 226 0044 9A60     		str	r2, [r3, #8]
 102:../01_Applcation/APPL_DMA_LTE/APPL_DMA_LTE.c **** 	APPL_DMA_LTE_CMD_Error.EKM_CMD_pfnCmd = &APPL_DMA_LTE_Error;
 227              		.loc 1 102 2 is_stmt 1 view .LVU40
 102:../01_Applcation/APPL_DMA_LTE/APPL_DMA_LTE.c **** 	APPL_DMA_LTE_CMD_Error.EKM_CMD_pfnCmd = &APPL_DMA_LTE_Error;
 228              		.loc 1 102 40 is_stmt 0 view .LVU41
 229 0046 244A     		ldr	r2, .L10+56
 230 0048 5A60     		str	r2, [r3, #4]
 103:../01_Applcation/APPL_DMA_LTE/APPL_DMA_LTE.c **** 	APPL_DMA_LTE_CMD_Error.next = (void *)0;
 231              		.loc 1 103 2 is_stmt 1 view .LVU42
 103:../01_Applcation/APPL_DMA_LTE/APPL_DMA_LTE.c **** 	APPL_DMA_LTE_CMD_Error.next = (void *)0;
 232              		.loc 1 103 30 is_stmt 0 view .LVU43
 233 004a DC60     		str	r4, [r3, #12]
 105:../01_Applcation/APPL_DMA_LTE/APPL_DMA_LTE.c **** 	APPL_data.deviceID = 0;
 234              		.loc 1 105 2 is_stmt 1 view .LVU44
 105:../01_Applcation/APPL_DMA_LTE/APPL_DMA_LTE.c **** 	APPL_data.deviceID = 0;
ARM GAS  C:\Users\minde\AppData\Local\Temp\ccFRyS8g.s 			page 13


 235              		.loc 1 105 21 is_stmt 0 view .LVU45
 236 004c 234B     		ldr	r3, .L10+60
 237 004e 5C80     		strh	r4, [r3, #2]	@ movhi
 107:../01_Applcation/APPL_DMA_LTE/APPL_DMA_LTE.c **** 	APPL_DMA_LTE_Step_Init[0].Command = "ATE0\r\n";
 238              		.loc 1 107 2 is_stmt 1 view .LVU46
 107:../01_Applcation/APPL_DMA_LTE/APPL_DMA_LTE.c **** 	APPL_DMA_LTE_Step_Init[0].Command = "ATE0\r\n";
 239              		.loc 1 107 36 is_stmt 0 view .LVU47
 240 0050 234B     		ldr	r3, .L10+64
 241 0052 244A     		ldr	r2, .L10+68
 242 0054 1A60     		str	r2, [r3]
 108:../01_Applcation/APPL_DMA_LTE/APPL_DMA_LTE.c **** 	APPL_DMA_LTE_Step_Init[1].Command = "AT+SMCONF=\"CLIENTID\",\"id\"\r\n";
 243              		.loc 1 108 2 is_stmt 1 view .LVU48
 108:../01_Applcation/APPL_DMA_LTE/APPL_DMA_LTE.c **** 	APPL_DMA_LTE_Step_Init[1].Command = "AT+SMCONF=\"CLIENTID\",\"id\"\r\n";
 244              		.loc 1 108 36 is_stmt 0 view .LVU49
 245 0056 244A     		ldr	r2, .L10+72
 246 0058 9A60     		str	r2, [r3, #8]
 109:../01_Applcation/APPL_DMA_LTE/APPL_DMA_LTE.c **** 	APPL_DMA_LTE_Step_Init[2].Command = "AT+SMCONF=\"KEEPTIME\",60\r\n";
 247              		.loc 1 109 2 is_stmt 1 view .LVU50
 109:../01_Applcation/APPL_DMA_LTE/APPL_DMA_LTE.c **** 	APPL_DMA_LTE_Step_Init[2].Command = "AT+SMCONF=\"KEEPTIME\",60\r\n";
 248              		.loc 1 109 36 is_stmt 0 view .LVU51
 249 005a 244A     		ldr	r2, .L10+76
 250 005c 1A61     		str	r2, [r3, #16]
 110:../01_Applcation/APPL_DMA_LTE/APPL_DMA_LTE.c **** 	APPL_DMA_LTE_Step_Init[3].Command = "AT+SMCONF=\"URL\",\"203.151.79.149\",\"1883\"\r\n";
 251              		.loc 1 110 2 is_stmt 1 view .LVU52
 110:../01_Applcation/APPL_DMA_LTE/APPL_DMA_LTE.c **** 	APPL_DMA_LTE_Step_Init[3].Command = "AT+SMCONF=\"URL\",\"203.151.79.149\",\"1883\"\r\n";
 252              		.loc 1 110 36 is_stmt 0 view .LVU53
 253 005e 244A     		ldr	r2, .L10+80
 254 0060 9A61     		str	r2, [r3, #24]
 111:../01_Applcation/APPL_DMA_LTE/APPL_DMA_LTE.c **** 	APPL_DMA_LTE_Step_Init[4].Command = "AT+SMCONF=\"USERNAME\",\"1111\"\r\n";
 255              		.loc 1 111 2 is_stmt 1 view .LVU54
 111:../01_Applcation/APPL_DMA_LTE/APPL_DMA_LTE.c **** 	APPL_DMA_LTE_Step_Init[4].Command = "AT+SMCONF=\"USERNAME\",\"1111\"\r\n";
 256              		.loc 1 111 36 is_stmt 0 view .LVU55
 257 0062 244A     		ldr	r2, .L10+84
 258 0064 1A62     		str	r2, [r3, #32]
 112:../01_Applcation/APPL_DMA_LTE/APPL_DMA_LTE.c **** 	APPL_DMA_LTE_Step_Init[5].Command = "AT+SMCONF=\"PASSWORD\",\"1111\"\r\n";
 259              		.loc 1 112 2 is_stmt 1 view .LVU56
 112:../01_Applcation/APPL_DMA_LTE/APPL_DMA_LTE.c **** 	APPL_DMA_LTE_Step_Init[5].Command = "AT+SMCONF=\"PASSWORD\",\"1111\"\r\n";
 260              		.loc 1 112 36 is_stmt 0 view .LVU57
 261 0066 244A     		ldr	r2, .L10+88
 262 0068 9A62     		str	r2, [r3, #40]
 113:../01_Applcation/APPL_DMA_LTE/APPL_DMA_LTE.c **** 	APPL_DMA_LTE_Step_Init[6].Command = "AT+SMCONF=\"CLEANSS\",1\r\n";
 263              		.loc 1 113 2 is_stmt 1 view .LVU58
 113:../01_Applcation/APPL_DMA_LTE/APPL_DMA_LTE.c **** 	APPL_DMA_LTE_Step_Init[6].Command = "AT+SMCONF=\"CLEANSS\",1\r\n";
 264              		.loc 1 113 36 is_stmt 0 view .LVU59
 265 006a 244A     		ldr	r2, .L10+92
 266 006c 1A63     		str	r2, [r3, #48]
 114:../01_Applcation/APPL_DMA_LTE/APPL_DMA_LTE.c **** 	APPL_DMA_LTE_Step_Init[7].Command = "AT+SMCONF=\"QOS\",0\r\n";
 267              		.loc 1 114 2 is_stmt 1 view .LVU60
 114:../01_Applcation/APPL_DMA_LTE/APPL_DMA_LTE.c **** 	APPL_DMA_LTE_Step_Init[7].Command = "AT+SMCONF=\"QOS\",0\r\n";
 268              		.loc 1 114 36 is_stmt 0 view .LVU61
 269 006e 244A     		ldr	r2, .L10+96
 270 0070 9A63     		str	r2, [r3, #56]
 115:../01_Applcation/APPL_DMA_LTE/APPL_DMA_LTE.c **** 	APPL_DMA_LTE_Step_Init[8].Command = "AT+SMCONF=\"RETAIN\",0\r\n";
 271              		.loc 1 115 2 is_stmt 1 view .LVU62
 115:../01_Applcation/APPL_DMA_LTE/APPL_DMA_LTE.c **** 	APPL_DMA_LTE_Step_Init[8].Command = "AT+SMCONF=\"RETAIN\",0\r\n";
 272              		.loc 1 115 36 is_stmt 0 view .LVU63
 273 0072 244A     		ldr	r2, .L10+100
ARM GAS  C:\Users\minde\AppData\Local\Temp\ccFRyS8g.s 			page 14


 274 0074 1A64     		str	r2, [r3, #64]
 116:../01_Applcation/APPL_DMA_LTE/APPL_DMA_LTE.c **** 	APPL_DMA_LTE_Step_Init[9].Command = "AT+CMNB=3\r\n";
 275              		.loc 1 116 2 is_stmt 1 view .LVU64
 116:../01_Applcation/APPL_DMA_LTE/APPL_DMA_LTE.c **** 	APPL_DMA_LTE_Step_Init[9].Command = "AT+CMNB=3\r\n";
 276              		.loc 1 116 36 is_stmt 0 view .LVU65
 277 0076 244A     		ldr	r2, .L10+104
 278 0078 9A64     		str	r2, [r3, #72]
 117:../01_Applcation/APPL_DMA_LTE/APPL_DMA_LTE.c **** 	APPL_DMA_LTE_Step_Init[10].Command = "AT+CNACT=1,\"cmnet\"\r\n";
 279              		.loc 1 117 2 is_stmt 1 view .LVU66
 117:../01_Applcation/APPL_DMA_LTE/APPL_DMA_LTE.c **** 	APPL_DMA_LTE_Step_Init[10].Command = "AT+CNACT=1,\"cmnet\"\r\n";
 280              		.loc 1 117 37 is_stmt 0 view .LVU67
 281 007a 244A     		ldr	r2, .L10+108
 282 007c 1A65     		str	r2, [r3, #80]
 119:../01_Applcation/APPL_DMA_LTE/APPL_DMA_LTE.c **** 	APPL_DMA_LTE_MQTT_ONLINE = 1;
 283              		.loc 1 119 2 is_stmt 1 view .LVU68
 119:../01_Applcation/APPL_DMA_LTE/APPL_DMA_LTE.c **** 	APPL_DMA_LTE_MQTT_ONLINE = 1;
 284              		.loc 1 119 27 is_stmt 0 view .LVU69
 285 007e 0123     		movs	r3, #1
 286 0080 2B60     		str	r3, [r5]
 121:../01_Applcation/APPL_DMA_LTE/APPL_DMA_LTE.c **** 	for (int i = 0; i < 10; i++)
 287              		.loc 1 121 2 is_stmt 1 view .LVU70
 288              	.LBB2:
 121:../01_Applcation/APPL_DMA_LTE/APPL_DMA_LTE.c **** 	for (int i = 0; i < 10; i++)
 289              		.loc 1 121 7 view .LVU71
 290              	.LVL8:
 121:../01_Applcation/APPL_DMA_LTE/APPL_DMA_LTE.c **** 	for (int i = 0; i < 10; i++)
 291              		.loc 1 121 11 is_stmt 0 view .LVU72
 292 0082 2346     		mov	r3, r4
 121:../01_Applcation/APPL_DMA_LTE/APPL_DMA_LTE.c **** 	for (int i = 0; i < 10; i++)
 293              		.loc 1 121 2 view .LVU73
 294 0084 05E0     		b	.L7
 295              	.LVL9:
 296              	.L8:
 123:../01_Applcation/APPL_DMA_LTE/APPL_DMA_LTE.c **** 		APPL_DMA_LTE_Step_Init[i].Return_Stage = 1;
 297              		.loc 1 123 3 is_stmt 1 discriminator 3 view .LVU74
 123:../01_Applcation/APPL_DMA_LTE/APPL_DMA_LTE.c **** 		APPL_DMA_LTE_Step_Init[i].Return_Stage = 1;
 298              		.loc 1 123 42 is_stmt 0 discriminator 3 view .LVU75
 299 0086 164A     		ldr	r2, .L10+64
 300 0088 02EBC302 		add	r2, r2, r3, lsl #3
 301 008c 0121     		movs	r1, #1
 302 008e 1171     		strb	r1, [r2, #4]
 121:../01_Applcation/APPL_DMA_LTE/APPL_DMA_LTE.c **** 	for (int i = 0; i < 10; i++)
 303              		.loc 1 121 26 is_stmt 1 discriminator 3 view .LVU76
 121:../01_Applcation/APPL_DMA_LTE/APPL_DMA_LTE.c **** 	for (int i = 0; i < 10; i++)
 304              		.loc 1 121 27 is_stmt 0 discriminator 3 view .LVU77
 305 0090 0B44     		add	r3, r3, r1
 306              	.LVL10:
 307              	.L7:
 121:../01_Applcation/APPL_DMA_LTE/APPL_DMA_LTE.c **** 	for (int i = 0; i < 10; i++)
 308              		.loc 1 121 18 is_stmt 1 discriminator 1 view .LVU78
 121:../01_Applcation/APPL_DMA_LTE/APPL_DMA_LTE.c **** 	for (int i = 0; i < 10; i++)
 309              		.loc 1 121 2 is_stmt 0 discriminator 1 view .LVU79
 310 0092 092B     		cmp	r3, #9
 311 0094 F7DD     		ble	.L8
 312              	.LBE2:
 125:../01_Applcation/APPL_DMA_LTE/APPL_DMA_LTE.c **** 	APPL_DMA_LTE_Step_Init[0].Return_Stage = 2;
 313              		.loc 1 125 2 is_stmt 1 view .LVU80
ARM GAS  C:\Users\minde\AppData\Local\Temp\ccFRyS8g.s 			page 15


 125:../01_Applcation/APPL_DMA_LTE/APPL_DMA_LTE.c **** 	APPL_DMA_LTE_Step_Init[0].Return_Stage = 2;
 314              		.loc 1 125 41 is_stmt 0 view .LVU81
 315 0096 124B     		ldr	r3, .L10+64
 316              	.LVL11:
 125:../01_Applcation/APPL_DMA_LTE/APPL_DMA_LTE.c **** 	APPL_DMA_LTE_Step_Init[0].Return_Stage = 2;
 317              		.loc 1 125 41 view .LVU82
 318 0098 0222     		movs	r2, #2
 319 009a 1A71     		strb	r2, [r3, #4]
 126:../01_Applcation/APPL_DMA_LTE/APPL_DMA_LTE.c **** }
 320              		.loc 1 126 1 view .LVU83
 321 009c 70BD     		pop	{r4, r5, r6, pc}
 322              	.L11:
 323 009e 00BF     		.align	2
 324              	.L10:
 325 00a0 00000000 		.word	.LANCHOR2
 326 00a4 00000000 		.word	.LANCHOR3
 327 00a8 00000000 		.word	.LANCHOR5
 328 00ac 00000000 		.word	.LANCHOR4
 329 00b0 00000000 		.word	.LANCHOR6
 330 00b4 00000000 		.word	.LC1
 331 00b8 04000000 		.word	.LC2
 332 00bc 00000000 		.word	APPL_DMA_LTE_OK
 333 00c0 00000000 		.word	.LANCHOR7
 334 00c4 10000000 		.word	.LC3
 335 00c8 1C000000 		.word	.LC4
 336 00cc 00000000 		.word	APPL_DMA_LTE_PSUTTZ
 337 00d0 00000000 		.word	.LANCHOR8
 338 00d4 2C000000 		.word	.LC5
 339 00d8 00000000 		.word	APPL_DMA_LTE_Error
 340 00dc 00000000 		.word	APPL_data
 341 00e0 00000000 		.word	.LANCHOR1
 342 00e4 34000000 		.word	.LC6
 343 00e8 3C000000 		.word	.LC7
 344 00ec 58000000 		.word	.LC8
 345 00f0 74000000 		.word	.LC9
 346 00f4 A0000000 		.word	.LC10
 347 00f8 C0000000 		.word	.LC11
 348 00fc E0000000 		.word	.LC12
 349 0100 F8000000 		.word	.LC13
 350 0104 0C010000 		.word	.LC14
 351 0108 24010000 		.word	.LC15
 352 010c 30010000 		.word	.LC16
 353              		.cfi_endproc
 354              	.LFE291:
 356              		.section	.text.APPL_DMA_LTE_printf,"ax",%progbits
 357              		.align	1
 358              		.global	APPL_DMA_LTE_printf
 359              		.syntax unified
 360              		.thumb
 361              		.thumb_func
 363              	APPL_DMA_LTE_printf:
 364              	.LVL12:
 365              	.LFB292:
 159:../01_Applcation/APPL_DMA_LTE/APPL_DMA_LTE.c **** {
 366              		.loc 1 159 1 is_stmt 1 view -0
 367              		.cfi_startproc
 368              		@ args = 4, pretend = 16, frame = 264
ARM GAS  C:\Users\minde\AppData\Local\Temp\ccFRyS8g.s 			page 16


 369              		@ frame_needed = 0, uses_anonymous_args = 1
 159:../01_Applcation/APPL_DMA_LTE/APPL_DMA_LTE.c **** {
 370              		.loc 1 159 1 is_stmt 0 view .LVU85
 371 0000 0FB4     		push	{r0, r1, r2, r3}
 372              	.LCFI2:
 373              		.cfi_def_cfa_offset 16
 374              		.cfi_offset 0, -16
 375              		.cfi_offset 1, -12
 376              		.cfi_offset 2, -8
 377              		.cfi_offset 3, -4
 378 0002 30B5     		push	{r4, r5, lr}
 379              	.LCFI3:
 380              		.cfi_def_cfa_offset 28
 381              		.cfi_offset 4, -28
 382              		.cfi_offset 5, -24
 383              		.cfi_offset 14, -20
 384 0004 C3B0     		sub	sp, sp, #268
 385              	.LCFI4:
 386              		.cfi_def_cfa_offset 296
 387 0006 46AC     		add	r4, sp, #280
 388 0008 54F8045B 		ldr	r5, [r4], #4
 161:../01_Applcation/APPL_DMA_LTE/APPL_DMA_LTE.c **** 	uint8_t SerialBuffer[255];
 389              		.loc 1 161 2 is_stmt 1 view .LVU86
 162:../01_Applcation/APPL_DMA_LTE/APPL_DMA_LTE.c **** 	memset(SerialBuffer, 0, 255);
 390              		.loc 1 162 2 view .LVU87
 391 000c FF22     		movs	r2, #255
 392 000e 0021     		movs	r1, #0
 393 0010 02A8     		add	r0, sp, #8
 394 0012 FFF7FEFF 		bl	memset
 395              	.LVL13:
 163:../01_Applcation/APPL_DMA_LTE/APPL_DMA_LTE.c **** 	va_list args;
 396              		.loc 1 163 2 view .LVU88
 164:../01_Applcation/APPL_DMA_LTE/APPL_DMA_LTE.c **** 	va_start(args, format);
 397              		.loc 1 164 2 view .LVU89
 398 0016 0194     		str	r4, [sp, #4]
 165:../01_Applcation/APPL_DMA_LTE/APPL_DMA_LTE.c **** 	vsprintf((char *)SerialBuffer, format, args);
 399              		.loc 1 165 2 view .LVU90
 400 0018 2246     		mov	r2, r4
 401 001a 2946     		mov	r1, r5
 402 001c 02A8     		add	r0, sp, #8
 403 001e FFF7FEFF 		bl	vsprintf
 404              	.LVL14:
 166:../01_Applcation/APPL_DMA_LTE/APPL_DMA_LTE.c **** 	va_end(args);
 405              		.loc 1 166 2 view .LVU91
 167:../01_Applcation/APPL_DMA_LTE/APPL_DMA_LTE.c **** 	HAL_UART_Transmit(&huart1, SerialBuffer, strlen((char *)SerialBuffer), 10);
 406              		.loc 1 167 2 view .LVU92
 167:../01_Applcation/APPL_DMA_LTE/APPL_DMA_LTE.c **** 	HAL_UART_Transmit(&huart1, SerialBuffer, strlen((char *)SerialBuffer), 10);
 407              		.loc 1 167 43 is_stmt 0 view .LVU93
 408 0022 02A8     		add	r0, sp, #8
 409 0024 FFF7FEFF 		bl	strlen
 410              	.LVL15:
 167:../01_Applcation/APPL_DMA_LTE/APPL_DMA_LTE.c **** 	HAL_UART_Transmit(&huart1, SerialBuffer, strlen((char *)SerialBuffer), 10);
 411              		.loc 1 167 2 view .LVU94
 412 0028 0A23     		movs	r3, #10
 413 002a 82B2     		uxth	r2, r0
 414 002c 02A9     		add	r1, sp, #8
 415 002e 0448     		ldr	r0, .L14
ARM GAS  C:\Users\minde\AppData\Local\Temp\ccFRyS8g.s 			page 17


 416 0030 FFF7FEFF 		bl	HAL_UART_Transmit
 417              	.LVL16:
 169:../01_Applcation/APPL_DMA_LTE/APPL_DMA_LTE.c **** }
 418              		.loc 1 169 1 view .LVU95
 419 0034 43B0     		add	sp, sp, #268
 420              	.LCFI5:
 421              		.cfi_def_cfa_offset 28
 422              		@ sp needed
 423 0036 BDE83040 		pop	{r4, r5, lr}
 424              	.LCFI6:
 425              		.cfi_restore 14
 426              		.cfi_restore 5
 427              		.cfi_restore 4
 428              		.cfi_def_cfa_offset 16
 429 003a 04B0     		add	sp, sp, #16
 430              	.LCFI7:
 431              		.cfi_restore 3
 432              		.cfi_restore 2
 433              		.cfi_restore 1
 434              		.cfi_restore 0
 435              		.cfi_def_cfa_offset 0
 436 003c 7047     		bx	lr
 437              	.L15:
 438 003e 00BF     		.align	2
 439              	.L14:
 440 0040 00000000 		.word	huart1
 441              		.cfi_endproc
 442              	.LFE292:
 444              		.section	.rodata.APPL_DMA_LTE_Error.str1.4,"aMS",%progbits,1
 445              		.align	2
 446              	.LC17:
 447 0000 41542B43 		.ascii	"AT+CPOWD=0\015\012\000"
 447      504F5744 
 447      3D300D0A 
 447      00
 448              		.section	.text.APPL_DMA_LTE_Error,"ax",%progbits
 449              		.align	1
 450              		.global	APPL_DMA_LTE_Error
 451              		.syntax unified
 452              		.thumb
 453              		.thumb_func
 455              	APPL_DMA_LTE_Error:
 456              	.LVL17:
 457              	.LFB299:
 313:../01_Applcation/APPL_DMA_LTE/APPL_DMA_LTE.c **** {
 458              		.loc 1 313 1 is_stmt 1 view -0
 459              		.cfi_startproc
 460              		@ args = 0, pretend = 0, frame = 0
 461              		@ frame_needed = 0, uses_anonymous_args = 0
 313:../01_Applcation/APPL_DMA_LTE/APPL_DMA_LTE.c **** {
 462              		.loc 1 313 1 is_stmt 0 view .LVU97
 463 0000 08B5     		push	{r3, lr}
 464              	.LCFI8:
 465              		.cfi_def_cfa_offset 8
 466              		.cfi_offset 3, -8
 467              		.cfi_offset 14, -4
 314:../01_Applcation/APPL_DMA_LTE/APPL_DMA_LTE.c **** 	APPL_DMA_LTE_printf("AT+CPOWD=0\r\n");
ARM GAS  C:\Users\minde\AppData\Local\Temp\ccFRyS8g.s 			page 18


 468              		.loc 1 314 2 is_stmt 1 view .LVU98
 469 0002 0748     		ldr	r0, .L20
 470              	.LVL18:
 314:../01_Applcation/APPL_DMA_LTE/APPL_DMA_LTE.c **** 	APPL_DMA_LTE_printf("AT+CPOWD=0\r\n");
 471              		.loc 1 314 2 is_stmt 0 view .LVU99
 472 0004 FFF7FEFF 		bl	APPL_DMA_LTE_printf
 473              	.LVL19:
 315:../01_Applcation/APPL_DMA_LTE/APPL_DMA_LTE.c **** 	if (APPL_DMA_LTE_MQTT_ONLINE == 1)
 474              		.loc 1 315 2 is_stmt 1 view .LVU100
 315:../01_Applcation/APPL_DMA_LTE/APPL_DMA_LTE.c **** 	if (APPL_DMA_LTE_MQTT_ONLINE == 1)
 475              		.loc 1 315 31 is_stmt 0 view .LVU101
 476 0008 064B     		ldr	r3, .L20+4
 477 000a 1B68     		ldr	r3, [r3]
 315:../01_Applcation/APPL_DMA_LTE/APPL_DMA_LTE.c **** 	if (APPL_DMA_LTE_MQTT_ONLINE == 1)
 478              		.loc 1 315 5 view .LVU102
 479 000c 012B     		cmp	r3, #1
 480 000e 01D0     		beq	.L19
 481              	.L17:
 319:../01_Applcation/APPL_DMA_LTE/APPL_DMA_LTE.c **** 	return 0;
 482              		.loc 1 319 2 is_stmt 1 view .LVU103
 320:../01_Applcation/APPL_DMA_LTE/APPL_DMA_LTE.c **** }
 483              		.loc 1 320 1 is_stmt 0 view .LVU104
 484 0010 0020     		movs	r0, #0
 485 0012 08BD     		pop	{r3, pc}
 486              	.L19:
 317:../01_Applcation/APPL_DMA_LTE/APPL_DMA_LTE.c **** 		APPL_DMA_LTE_SIM7000G_ErrorCount++;
 487              		.loc 1 317 3 is_stmt 1 view .LVU105
 317:../01_Applcation/APPL_DMA_LTE/APPL_DMA_LTE.c **** 		APPL_DMA_LTE_SIM7000G_ErrorCount++;
 488              		.loc 1 317 35 is_stmt 0 view .LVU106
 489 0014 044A     		ldr	r2, .L20+8
 490 0016 1388     		ldrh	r3, [r2]
 491 0018 0133     		adds	r3, r3, #1
 492 001a 1380     		strh	r3, [r2]	@ movhi
 493 001c F8E7     		b	.L17
 494              	.L21:
 495 001e 00BF     		.align	2
 496              	.L20:
 497 0020 00000000 		.word	.LC17
 498 0024 00000000 		.word	.LANCHOR2
 499 0028 00000000 		.word	.LANCHOR3
 500              		.cfi_endproc
 501              	.LFE299:
 503              		.section	.rodata.APPL_DMA_LTE_MQTT_PUBLISH.str1.4,"aMS",%progbits,1
 504              		.align	2
 505              	.LC18:
 506 0000 41542B53 		.ascii	"AT+SMPUB=\"UUMON/%d/%s\",%d,0,0\015\012\000"
 506      4D505542 
 506      3D225555 
 506      4D4F4E2F 
 506      25642F25 
 507              		.align	2
 508              	.LC19:
 509 0020 25730D0A 		.ascii	"%s\015\012\000"
 509      00
 510              		.section	.text.APPL_DMA_LTE_MQTT_PUBLISH,"ax",%progbits
 511              		.align	1
 512              		.global	APPL_DMA_LTE_MQTT_PUBLISH
ARM GAS  C:\Users\minde\AppData\Local\Temp\ccFRyS8g.s 			page 19


 513              		.syntax unified
 514              		.thumb
 515              		.thumb_func
 517              	APPL_DMA_LTE_MQTT_PUBLISH:
 518              	.LVL20:
 519              	.LFB293:
 182:../01_Applcation/APPL_DMA_LTE/APPL_DMA_LTE.c **** {
 520              		.loc 1 182 1 is_stmt 1 view -0
 521              		.cfi_startproc
 522              		@ args = 4, pretend = 12, frame = 264
 523              		@ frame_needed = 0, uses_anonymous_args = 1
 182:../01_Applcation/APPL_DMA_LTE/APPL_DMA_LTE.c **** {
 524              		.loc 1 182 1 is_stmt 0 view .LVU108
 525 0000 0EB4     		push	{r1, r2, r3}
 526              	.LCFI9:
 527              		.cfi_def_cfa_offset 12
 528              		.cfi_offset 1, -12
 529              		.cfi_offset 2, -8
 530              		.cfi_offset 3, -4
 531 0002 30B5     		push	{r4, r5, lr}
 532              	.LCFI10:
 533              		.cfi_def_cfa_offset 24
 534              		.cfi_offset 4, -24
 535              		.cfi_offset 5, -20
 536              		.cfi_offset 14, -16
 537 0004 C2B0     		sub	sp, sp, #264
 538              	.LCFI11:
 539              		.cfi_def_cfa_offset 288
 183:../01_Applcation/APPL_DMA_LTE/APPL_DMA_LTE.c **** 	if (APPL_DMA_LTE_MQTT_ONLINE == 1)
 540              		.loc 1 183 2 is_stmt 1 view .LVU109
 183:../01_Applcation/APPL_DMA_LTE/APPL_DMA_LTE.c **** 	if (APPL_DMA_LTE_MQTT_ONLINE == 1)
 541              		.loc 1 183 31 is_stmt 0 view .LVU110
 542 0006 124B     		ldr	r3, .L26
 543 0008 1B68     		ldr	r3, [r3]
 183:../01_Applcation/APPL_DMA_LTE/APPL_DMA_LTE.c **** 	if (APPL_DMA_LTE_MQTT_ONLINE == 1)
 544              		.loc 1 183 5 view .LVU111
 545 000a 012B     		cmp	r3, #1
 546 000c 04D0     		beq	.L25
 547              	.LVL21:
 548              	.L22:
 195:../01_Applcation/APPL_DMA_LTE/APPL_DMA_LTE.c **** }
 549              		.loc 1 195 1 view .LVU112
 550 000e 42B0     		add	sp, sp, #264
 551              	.LCFI12:
 552              		.cfi_remember_state
 553              		.cfi_def_cfa_offset 24
 554              		@ sp needed
 555 0010 BDE83040 		pop	{r4, r5, lr}
 556              	.LCFI13:
 557              		.cfi_restore 14
 558              		.cfi_restore 5
 559              		.cfi_restore 4
 560              		.cfi_def_cfa_offset 12
 561 0014 03B0     		add	sp, sp, #12
 562              	.LCFI14:
 563              		.cfi_restore 3
 564              		.cfi_restore 2
ARM GAS  C:\Users\minde\AppData\Local\Temp\ccFRyS8g.s 			page 20


 565              		.cfi_restore 1
 566              		.cfi_def_cfa_offset 0
 567 0016 7047     		bx	lr
 568              	.LVL22:
 569              	.L25:
 570              	.LCFI15:
 571              		.cfi_restore_state
 195:../01_Applcation/APPL_DMA_LTE/APPL_DMA_LTE.c **** }
 572              		.loc 1 195 1 view .LVU113
 573 0018 0446     		mov	r4, r0
 574              	.LBB3:
 186:../01_Applcation/APPL_DMA_LTE/APPL_DMA_LTE.c **** 		uint8_t SerialBuffer[255];
 575              		.loc 1 186 3 is_stmt 1 view .LVU114
 187:../01_Applcation/APPL_DMA_LTE/APPL_DMA_LTE.c **** 		memset(SerialBuffer, 0, 255);
 576              		.loc 1 187 3 view .LVU115
 577 001a FF22     		movs	r2, #255
 578 001c 0021     		movs	r1, #0
 579 001e 02A8     		add	r0, sp, #8
 580 0020 FFF7FEFF 		bl	memset
 581              	.LVL23:
 188:../01_Applcation/APPL_DMA_LTE/APPL_DMA_LTE.c **** 		va_list args;
 582              		.loc 1 188 3 view .LVU116
 189:../01_Applcation/APPL_DMA_LTE/APPL_DMA_LTE.c **** 		va_start(args, format);
 583              		.loc 1 189 3 view .LVU117
 584 0024 46AA     		add	r2, sp, #280
 585 0026 0192     		str	r2, [sp, #4]
 190:../01_Applcation/APPL_DMA_LTE/APPL_DMA_LTE.c **** 		vsprintf((char *)SerialBuffer, format, args);
 586              		.loc 1 190 3 view .LVU118
 587 0028 4599     		ldr	r1, [sp, #276]
 588 002a 02A8     		add	r0, sp, #8
 589 002c FFF7FEFF 		bl	vsprintf
 590              	.LVL24:
 191:../01_Applcation/APPL_DMA_LTE/APPL_DMA_LTE.c **** 		va_end(args);
 591              		.loc 1 191 3 view .LVU119
 192:../01_Applcation/APPL_DMA_LTE/APPL_DMA_LTE.c **** 		APPL_DMA_LTE_printf("AT+SMPUB=\"UUMON/%d/%s\",%d,0,0\r\n", APPL_data.deviceID, MQTT_Topic, strlen
 592              		.loc 1 192 3 view .LVU120
 192:../01_Applcation/APPL_DMA_LTE/APPL_DMA_LTE.c **** 		APPL_DMA_LTE_printf("AT+SMPUB=\"UUMON/%d/%s\",%d,0,0\r\n", APPL_data.deviceID, MQTT_Topic, strlen
 593              		.loc 1 192 71 is_stmt 0 view .LVU121
 594 0030 084B     		ldr	r3, .L26+4
 595 0032 5D88     		ldrh	r5, [r3, #2]
 192:../01_Applcation/APPL_DMA_LTE/APPL_DMA_LTE.c **** 		APPL_DMA_LTE_printf("AT+SMPUB=\"UUMON/%d/%s\",%d,0,0\r\n", APPL_data.deviceID, MQTT_Topic, strlen
 596              		.loc 1 192 3 view .LVU122
 597 0034 02A8     		add	r0, sp, #8
 598 0036 FFF7FEFF 		bl	strlen
 599              	.LVL25:
 600 003a 0346     		mov	r3, r0
 601 003c 2246     		mov	r2, r4
 602 003e 2946     		mov	r1, r5
 603 0040 0548     		ldr	r0, .L26+8
 604 0042 FFF7FEFF 		bl	APPL_DMA_LTE_printf
 605              	.LVL26:
 193:../01_Applcation/APPL_DMA_LTE/APPL_DMA_LTE.c **** 		APPL_DMA_LTE_printf("%s\r\n", SerialBuffer);
 606              		.loc 1 193 3 is_stmt 1 view .LVU123
 607 0046 02A9     		add	r1, sp, #8
 608 0048 0448     		ldr	r0, .L26+12
 609 004a FFF7FEFF 		bl	APPL_DMA_LTE_printf
 610              	.LVL27:
ARM GAS  C:\Users\minde\AppData\Local\Temp\ccFRyS8g.s 			page 21


 611              	.LBE3:
 195:../01_Applcation/APPL_DMA_LTE/APPL_DMA_LTE.c **** }
 612              		.loc 1 195 1 is_stmt 0 view .LVU124
 613 004e DEE7     		b	.L22
 614              	.L27:
 615              		.align	2
 616              	.L26:
 617 0050 00000000 		.word	.LANCHOR2
 618 0054 00000000 		.word	APPL_data
 619 0058 00000000 		.word	.LC18
 620 005c 20000000 		.word	.LC19
 621              		.cfi_endproc
 622              	.LFE293:
 624              		.section	.rodata.APPL_DMA_LTE_MQTT_PUBLISH_Raw.str1.4,"aMS",%progbits,1
 625              		.align	2
 626              	.LC20:
 627 0000 25303278 		.ascii	"%02x \000"
 627      2000
 628 0006 0000     		.align	2
 629              	.LC21:
 630 0008 0D0A00   		.ascii	"\015\012\000"
 631              		.section	.text.APPL_DMA_LTE_MQTT_PUBLISH_Raw,"ax",%progbits
 632              		.align	1
 633              		.global	APPL_DMA_LTE_MQTT_PUBLISH_Raw
 634              		.syntax unified
 635              		.thumb
 636              		.thumb_func
 638              	APPL_DMA_LTE_MQTT_PUBLISH_Raw:
 639              	.LVL28:
 640              	.LFB294:
 208:../01_Applcation/APPL_DMA_LTE/APPL_DMA_LTE.c **** {
 641              		.loc 1 208 1 is_stmt 1 view -0
 642              		.cfi_startproc
 643              		@ args = 0, pretend = 0, frame = 0
 644              		@ frame_needed = 0, uses_anonymous_args = 0
 209:../01_Applcation/APPL_DMA_LTE/APPL_DMA_LTE.c **** 	if (APPL_DMA_LTE_MQTT_ONLINE == 1)
 645              		.loc 1 209 2 view .LVU126
 209:../01_Applcation/APPL_DMA_LTE/APPL_DMA_LTE.c **** 	if (APPL_DMA_LTE_MQTT_ONLINE == 1)
 646              		.loc 1 209 31 is_stmt 0 view .LVU127
 647 0000 0E4B     		ldr	r3, .L37
 648 0002 1B68     		ldr	r3, [r3]
 209:../01_Applcation/APPL_DMA_LTE/APPL_DMA_LTE.c **** 	if (APPL_DMA_LTE_MQTT_ONLINE == 1)
 649              		.loc 1 209 5 view .LVU128
 650 0004 012B     		cmp	r3, #1
 651 0006 00D0     		beq	.L36
 652 0008 7047     		bx	lr
 653              	.L36:
 208:../01_Applcation/APPL_DMA_LTE/APPL_DMA_LTE.c **** {
 654              		.loc 1 208 1 view .LVU129
 655 000a 70B5     		push	{r4, r5, r6, lr}
 656              	.LCFI16:
 657              		.cfi_def_cfa_offset 16
 658              		.cfi_offset 4, -16
 659              		.cfi_offset 5, -12
 660              		.cfi_offset 6, -8
 661              		.cfi_offset 14, -4
 662 000c 0E46     		mov	r6, r1
ARM GAS  C:\Users\minde\AppData\Local\Temp\ccFRyS8g.s 			page 22


 663 000e 1546     		mov	r5, r2
 212:../01_Applcation/APPL_DMA_LTE/APPL_DMA_LTE.c **** 		APPL_DMA_LTE_printf("AT+SMPUB=\"UUMON/%d/%s\",%d,0,0\r\n", 
 664              		.loc 1 212 3 is_stmt 1 view .LVU130
 665 0010 02EB4203 		add	r3, r2, r2, lsl #1
 666 0014 0246     		mov	r2, r0
 667              	.LVL29:
 212:../01_Applcation/APPL_DMA_LTE/APPL_DMA_LTE.c **** 		APPL_DMA_LTE_printf("AT+SMPUB=\"UUMON/%d/%s\",%d,0,0\r\n", 
 668              		.loc 1 212 3 is_stmt 0 view .LVU131
 669 0016 0A49     		ldr	r1, .L37+4
 670              	.LVL30:
 212:../01_Applcation/APPL_DMA_LTE/APPL_DMA_LTE.c **** 		APPL_DMA_LTE_printf("AT+SMPUB=\"UUMON/%d/%s\",%d,0,0\r\n", 
 671              		.loc 1 212 3 view .LVU132
 672 0018 4988     		ldrh	r1, [r1, #2]
 673 001a 0A48     		ldr	r0, .L37+8
 674              	.LVL31:
 212:../01_Applcation/APPL_DMA_LTE/APPL_DMA_LTE.c **** 		APPL_DMA_LTE_printf("AT+SMPUB=\"UUMON/%d/%s\",%d,0,0\r\n", 
 675              		.loc 1 212 3 view .LVU133
 676 001c FFF7FEFF 		bl	APPL_DMA_LTE_printf
 677              	.LVL32:
 216:../01_Applcation/APPL_DMA_LTE/APPL_DMA_LTE.c **** 		for (int i = 0; i < len; i++)
 678              		.loc 1 216 3 is_stmt 1 view .LVU134
 679              	.LBB4:
 216:../01_Applcation/APPL_DMA_LTE/APPL_DMA_LTE.c **** 		for (int i = 0; i < len; i++)
 680              		.loc 1 216 8 view .LVU135
 216:../01_Applcation/APPL_DMA_LTE/APPL_DMA_LTE.c **** 		for (int i = 0; i < len; i++)
 681              		.loc 1 216 12 is_stmt 0 view .LVU136
 682 0020 0024     		movs	r4, #0
 216:../01_Applcation/APPL_DMA_LTE/APPL_DMA_LTE.c **** 		for (int i = 0; i < len; i++)
 683              		.loc 1 216 3 view .LVU137
 684 0022 04E0     		b	.L30
 685              	.LVL33:
 686              	.L31:
 218:../01_Applcation/APPL_DMA_LTE/APPL_DMA_LTE.c **** 			APPL_DMA_LTE_printf("%02x ", data[i]);
 687              		.loc 1 218 4 is_stmt 1 discriminator 3 view .LVU138
 688 0024 315D     		ldrb	r1, [r6, r4]	@ zero_extendqisi2
 689 0026 0848     		ldr	r0, .L37+12
 690 0028 FFF7FEFF 		bl	APPL_DMA_LTE_printf
 691              	.LVL34:
 216:../01_Applcation/APPL_DMA_LTE/APPL_DMA_LTE.c **** 		for (int i = 0; i < len; i++)
 692              		.loc 1 216 28 discriminator 3 view .LVU139
 216:../01_Applcation/APPL_DMA_LTE/APPL_DMA_LTE.c **** 		for (int i = 0; i < len; i++)
 693              		.loc 1 216 29 is_stmt 0 discriminator 3 view .LVU140
 694 002c 0134     		adds	r4, r4, #1
 695              	.LVL35:
 696              	.L30:
 216:../01_Applcation/APPL_DMA_LTE/APPL_DMA_LTE.c **** 		for (int i = 0; i < len; i++)
 697              		.loc 1 216 19 is_stmt 1 discriminator 1 view .LVU141
 216:../01_Applcation/APPL_DMA_LTE/APPL_DMA_LTE.c **** 		for (int i = 0; i < len; i++)
 698              		.loc 1 216 3 is_stmt 0 discriminator 1 view .LVU142
 699 002e A542     		cmp	r5, r4
 700 0030 F8DC     		bgt	.L31
 701              	.LBE4:
 220:../01_Applcation/APPL_DMA_LTE/APPL_DMA_LTE.c **** 		APPL_DMA_LTE_printf("\r\n");
 702              		.loc 1 220 3 is_stmt 1 view .LVU143
 703 0032 0648     		ldr	r0, .L37+16
 704 0034 FFF7FEFF 		bl	APPL_DMA_LTE_printf
 705              	.LVL36:
ARM GAS  C:\Users\minde\AppData\Local\Temp\ccFRyS8g.s 			page 23


 222:../01_Applcation/APPL_DMA_LTE/APPL_DMA_LTE.c **** }
 706              		.loc 1 222 1 is_stmt 0 view .LVU144
 707 0038 70BD     		pop	{r4, r5, r6, pc}
 708              	.LVL37:
 709              	.L38:
 222:../01_Applcation/APPL_DMA_LTE/APPL_DMA_LTE.c **** }
 710              		.loc 1 222 1 view .LVU145
 711 003a 00BF     		.align	2
 712              	.L37:
 713 003c 00000000 		.word	.LANCHOR2
 714 0040 00000000 		.word	APPL_data
 715 0044 00000000 		.word	.LC18
 716 0048 00000000 		.word	.LC20
 717 004c 08000000 		.word	.LC21
 718              		.cfi_endproc
 719              	.LFE294:
 721              		.section	.rodata.APPL_DMA_LTE_SIM7000G_Init.str1.4,"aMS",%progbits,1
 722              		.align	2
 723              	.LC22:
 724 0000 257300   		.ascii	"%s\000"
 725              		.section	.text.APPL_DMA_LTE_SIM7000G_Init,"ax",%progbits
 726              		.align	1
 727              		.global	APPL_DMA_LTE_SIM7000G_Init
 728              		.syntax unified
 729              		.thumb
 730              		.thumb_func
 732              	APPL_DMA_LTE_SIM7000G_Init:
 733              	.LFB295:
 235:../01_Applcation/APPL_DMA_LTE/APPL_DMA_LTE.c **** {
 734              		.loc 1 235 1 is_stmt 1 view -0
 735              		.cfi_startproc
 736              		@ args = 0, pretend = 0, frame = 0
 737              		@ frame_needed = 0, uses_anonymous_args = 0
 738 0000 08B5     		push	{r3, lr}
 739              	.LCFI17:
 740              		.cfi_def_cfa_offset 8
 741              		.cfi_offset 3, -8
 742              		.cfi_offset 14, -4
 236:../01_Applcation/APPL_DMA_LTE/APPL_DMA_LTE.c **** 	if (APPL_DMA_LTE_Step_Init[APPL_DMA_LTE_Init_Stage].Return_Stage == 0)
 743              		.loc 1 236 2 view .LVU147
 236:../01_Applcation/APPL_DMA_LTE/APPL_DMA_LTE.c **** 	if (APPL_DMA_LTE_Step_Init[APPL_DMA_LTE_Init_Stage].Return_Stage == 0)
 744              		.loc 1 236 53 is_stmt 0 view .LVU148
 745 0002 0B4B     		ldr	r3, .L44
 746 0004 1A78     		ldrb	r2, [r3]	@ zero_extendqisi2
 747 0006 0B4B     		ldr	r3, .L44+4
 748 0008 03EBC203 		add	r3, r3, r2, lsl #3
 749 000c 1B79     		ldrb	r3, [r3, #4]	@ zero_extendqisi2
 236:../01_Applcation/APPL_DMA_LTE/APPL_DMA_LTE.c **** 	if (APPL_DMA_LTE_Step_Init[APPL_DMA_LTE_Init_Stage].Return_Stage == 0)
 750              		.loc 1 236 5 view .LVU149
 751 000e 13B9     		cbnz	r3, .L40
 238:../01_Applcation/APPL_DMA_LTE/APPL_DMA_LTE.c **** 		APPL_DMA_LTE_Init_Stage++;
 752              		.loc 1 238 3 is_stmt 1 view .LVU150
 238:../01_Applcation/APPL_DMA_LTE/APPL_DMA_LTE.c **** 		APPL_DMA_LTE_Init_Stage++;
 753              		.loc 1 238 26 is_stmt 0 view .LVU151
 754 0010 0132     		adds	r2, r2, #1
 755 0012 074B     		ldr	r3, .L44
 756 0014 1A70     		strb	r2, [r3]
ARM GAS  C:\Users\minde\AppData\Local\Temp\ccFRyS8g.s 			page 24


 757              	.L40:
 240:../01_Applcation/APPL_DMA_LTE/APPL_DMA_LTE.c **** 	if (APPL_DMA_LTE_Init_Stage < 10)
 758              		.loc 1 240 2 is_stmt 1 view .LVU152
 240:../01_Applcation/APPL_DMA_LTE/APPL_DMA_LTE.c **** 	if (APPL_DMA_LTE_Init_Stage < 10)
 759              		.loc 1 240 30 is_stmt 0 view .LVU153
 760 0016 064B     		ldr	r3, .L44
 761 0018 1B78     		ldrb	r3, [r3]	@ zero_extendqisi2
 240:../01_Applcation/APPL_DMA_LTE/APPL_DMA_LTE.c **** 	if (APPL_DMA_LTE_Init_Stage < 10)
 762              		.loc 1 240 5 view .LVU154
 763 001a 092B     		cmp	r3, #9
 764 001c 00D9     		bls	.L43
 765              	.L39:
 245:../01_Applcation/APPL_DMA_LTE/APPL_DMA_LTE.c **** }
 766              		.loc 1 245 1 view .LVU155
 767 001e 08BD     		pop	{r3, pc}
 768              	.L43:
 242:../01_Applcation/APPL_DMA_LTE/APPL_DMA_LTE.c **** 		APPL_DMA_LTE_printf("%s", APPL_DMA_LTE_Step_Init[APPL_DMA_LTE_Init_Stage].Command);
 769              		.loc 1 242 3 is_stmt 1 view .LVU156
 770 0020 044A     		ldr	r2, .L44+4
 771 0022 52F83310 		ldr	r1, [r2, r3, lsl #3]
 772 0026 0448     		ldr	r0, .L44+8
 773 0028 FFF7FEFF 		bl	APPL_DMA_LTE_printf
 774              	.LVL38:
 245:../01_Applcation/APPL_DMA_LTE/APPL_DMA_LTE.c **** }
 775              		.loc 1 245 1 is_stmt 0 view .LVU157
 776 002c F7E7     		b	.L39
 777              	.L45:
 778 002e 00BF     		.align	2
 779              	.L44:
 780 0030 00000000 		.word	.LANCHOR0
 781 0034 00000000 		.word	.LANCHOR1
 782 0038 00000000 		.word	.LC22
 783              		.cfi_endproc
 784              	.LFE295:
 786              		.section	.text.APPL_DMA_LTE_SIM7000G_Error_Handel,"ax",%progbits
 787              		.align	1
 788              		.global	APPL_DMA_LTE_SIM7000G_Error_Handel
 789              		.syntax unified
 790              		.thumb
 791              		.thumb_func
 793              	APPL_DMA_LTE_SIM7000G_Error_Handel:
 794              	.LFB296:
 258:../01_Applcation/APPL_DMA_LTE/APPL_DMA_LTE.c **** {
 795              		.loc 1 258 1 is_stmt 1 view -0
 796              		.cfi_startproc
 797              		@ args = 0, pretend = 0, frame = 0
 798              		@ frame_needed = 0, uses_anonymous_args = 0
 799              		@ link register save eliminated.
 259:../01_Applcation/APPL_DMA_LTE/APPL_DMA_LTE.c **** }
 800              		.loc 1 259 1 view .LVU159
 801 0000 7047     		bx	lr
 802              		.cfi_endproc
 803              	.LFE296:
 805              		.section	.rodata.APPL_DMA_LTE_LineProcess.str1.4,"aMS",%progbits,1
 806              		.align	2
 807              	.LC23:
 808 0000 436F6D6D 		.ascii	"Command = %s--\000"
ARM GAS  C:\Users\minde\AppData\Local\Temp\ccFRyS8g.s 			page 25


 808      616E6420 
 808      3D202573 
 808      2D2D00
 809              		.section	.text.APPL_DMA_LTE_LineProcess,"ax",%progbits
 810              		.align	1
 811              		.global	APPL_DMA_LTE_LineProcess
 812              		.syntax unified
 813              		.thumb
 814              		.thumb_func
 816              	APPL_DMA_LTE_LineProcess:
 817              	.LFB297:
 272:../01_Applcation/APPL_DMA_LTE/APPL_DMA_LTE.c **** {
 818              		.loc 1 272 1 view -0
 819              		.cfi_startproc
 820              		@ args = 0, pretend = 0, frame = 256
 821              		@ frame_needed = 0, uses_anonymous_args = 0
 822 0000 00B5     		push	{lr}
 823              	.LCFI18:
 824              		.cfi_def_cfa_offset 4
 825              		.cfi_offset 14, -4
 826 0002 C1B0     		sub	sp, sp, #260
 827              	.LCFI19:
 828              		.cfi_def_cfa_offset 264
 273:../01_Applcation/APPL_DMA_LTE/APPL_DMA_LTE.c **** 	uint8_t commandread[255];
 829              		.loc 1 273 2 view .LVU161
 275:../01_Applcation/APPL_DMA_LTE/APPL_DMA_LTE.c **** 	while (EKM_Buffer_readline(&APPL_DMA_LTE_Buffer, commandread, "\r\n"))
 830              		.loc 1 275 2 view .LVU162
 275:../01_Applcation/APPL_DMA_LTE/APPL_DMA_LTE.c **** 	while (EKM_Buffer_readline(&APPL_DMA_LTE_Buffer, commandread, "\r\n"))
 831              		.loc 1 275 8 is_stmt 0 view .LVU163
 832 0004 08E0     		b	.L48
 833              	.L49:
 277:../01_Applcation/APPL_DMA_LTE/APPL_DMA_LTE.c **** 		APPL_USB_printf("Command = %s--", commandread);
 834              		.loc 1 277 3 is_stmt 1 view .LVU164
 835 0006 6946     		mov	r1, sp
 836 0008 0848     		ldr	r0, .L51
 837 000a FFF7FEFF 		bl	APPL_USB_printf
 838              	.LVL39:
 278:../01_Applcation/APPL_DMA_LTE/APPL_DMA_LTE.c **** 		if (EKM_CMD_LineProcess((char *)commandread, &APPL_DMA_LTE_CMD_OK, ' ') == EKM_CMD_LINE_BAD_CMD){
 839              		.loc 1 278 3 view .LVU165
 278:../01_Applcation/APPL_DMA_LTE/APPL_DMA_LTE.c **** 		if (EKM_CMD_LineProcess((char *)commandread, &APPL_DMA_LTE_CMD_OK, ' ') == EKM_CMD_LINE_BAD_CMD){
 840              		.loc 1 278 7 is_stmt 0 view .LVU166
 841 000e 2022     		movs	r2, #32
 842 0010 0749     		ldr	r1, .L51+4
 843 0012 6846     		mov	r0, sp
 844 0014 FFF7FEFF 		bl	EKM_CMD_LineProcess
 845              	.LVL40:
 846              	.L48:
 280:../01_Applcation/APPL_DMA_LTE/APPL_DMA_LTE.c **** 		}
 847              		.loc 1 280 3 is_stmt 1 view .LVU167
 275:../01_Applcation/APPL_DMA_LTE/APPL_DMA_LTE.c **** 	while (EKM_Buffer_readline(&APPL_DMA_LTE_Buffer, commandread, "\r\n"))
 848              		.loc 1 275 8 view .LVU168
 275:../01_Applcation/APPL_DMA_LTE/APPL_DMA_LTE.c **** 	while (EKM_Buffer_readline(&APPL_DMA_LTE_Buffer, commandread, "\r\n"))
 849              		.loc 1 275 9 is_stmt 0 view .LVU169
 850 0018 064A     		ldr	r2, .L51+8
 851 001a 6946     		mov	r1, sp
 852 001c 0648     		ldr	r0, .L51+12
 853 001e FFF7FEFF 		bl	EKM_Buffer_readline
ARM GAS  C:\Users\minde\AppData\Local\Temp\ccFRyS8g.s 			page 26


 854              	.LVL41:
 275:../01_Applcation/APPL_DMA_LTE/APPL_DMA_LTE.c **** 	while (EKM_Buffer_readline(&APPL_DMA_LTE_Buffer, commandread, "\r\n"))
 855              		.loc 1 275 8 view .LVU170
 856 0022 0028     		cmp	r0, #0
 857 0024 EFD1     		bne	.L49
 283:../01_Applcation/APPL_DMA_LTE/APPL_DMA_LTE.c **** }
 858              		.loc 1 283 1 view .LVU171
 859 0026 41B0     		add	sp, sp, #260
 860              	.LCFI20:
 861              		.cfi_def_cfa_offset 4
 862              		@ sp needed
 863 0028 5DF804FB 		ldr	pc, [sp], #4
 864              	.L52:
 865              		.align	2
 866              	.L51:
 867 002c 00000000 		.word	.LC23
 868 0030 00000000 		.word	.LANCHOR6
 869 0034 08000000 		.word	.LC21
 870 0038 00000000 		.word	.LANCHOR5
 871              		.cfi_endproc
 872              	.LFE297:
 874              		.section	.text.APPL_DMA_LTE_APP,"ax",%progbits
 875              		.align	1
 876              		.global	APPL_DMA_LTE_APP
 877              		.syntax unified
 878              		.thumb
 879              		.thumb_func
 881              	APPL_DMA_LTE_APP:
 882              	.LVL42:
 883              	.LFB300:
 333:../01_Applcation/APPL_DMA_LTE/APPL_DMA_LTE.c **** {
 884              		.loc 1 333 1 is_stmt 1 view -0
 885              		.cfi_startproc
 886              		@ args = 0, pretend = 0, frame = 0
 887              		@ frame_needed = 0, uses_anonymous_args = 0
 888              		@ link register save eliminated.
 334:../01_Applcation/APPL_DMA_LTE/APPL_DMA_LTE.c **** 	if (argc > 2)
 889              		.loc 1 334 2 view .LVU173
 343:../01_Applcation/APPL_DMA_LTE/APPL_DMA_LTE.c **** 		}
 890              		.loc 1 343 3 view .LVU174
 345:../01_Applcation/APPL_DMA_LTE/APPL_DMA_LTE.c **** 	return 0;
 891              		.loc 1 345 2 view .LVU175
 346:../01_Applcation/APPL_DMA_LTE/APPL_DMA_LTE.c **** }
 892              		.loc 1 346 1 is_stmt 0 view .LVU176
 893 0000 0020     		movs	r0, #0
 894              	.LVL43:
 346:../01_Applcation/APPL_DMA_LTE/APPL_DMA_LTE.c **** }
 895              		.loc 1 346 1 view .LVU177
 896 0002 7047     		bx	lr
 897              		.cfi_endproc
 898              	.LFE300:
 900              		.global	APPL_DMA_LTE_CMD_APP
 901              		.global	APPL_DMA_LTE_CMD_Error
 902              		.global	APPL_DMA_LTE_CMD_PSUTTZ
 903              		.global	APPL_DMA_LTE_CMD_OK
 904              		.global	APPL_DMA_LTE_Buffer
 905              		.global	APPL_DMA_LTE_Buffer_d
ARM GAS  C:\Users\minde\AppData\Local\Temp\ccFRyS8g.s 			page 27


 906              		.global	APPL_DMA_LTE_Step_Init
 907              		.global	APPL_DMA_LTE_Init_Stage
 908              		.global	APPL_DMA_LTE_MQTT_ONLINE
 909              		.global	APPL_DMA_LTE_TimemerCount
 910              		.global	APPL_DMA_LTE_SIM7000G_ErrorCount
 911              		.section	.bss.APPL_DMA_LTE_Buffer,"aw",%nobits
 912              		.align	2
 913              		.set	.LANCHOR5,. + 0
 916              	APPL_DMA_LTE_Buffer:
 917 0000 00000000 		.space	12
 917      00000000 
 917      00000000 
 918              		.section	.bss.APPL_DMA_LTE_Buffer_d,"aw",%nobits
 919              		.align	2
 920              		.set	.LANCHOR4,. + 0
 923              	APPL_DMA_LTE_Buffer_d:
 924 0000 00000000 		.space	128
 924      00000000 
 924      00000000 
 924      00000000 
 924      00000000 
 925              		.section	.bss.APPL_DMA_LTE_CMD_APP,"aw",%nobits
 926              		.align	2
 929              	APPL_DMA_LTE_CMD_APP:
 930 0000 00000000 		.space	16
 930      00000000 
 930      00000000 
 930      00000000 
 931              		.section	.bss.APPL_DMA_LTE_CMD_Error,"aw",%nobits
 932              		.align	2
 933              		.set	.LANCHOR8,. + 0
 936              	APPL_DMA_LTE_CMD_Error:
 937 0000 00000000 		.space	16
 937      00000000 
 937      00000000 
 937      00000000 
 938              		.section	.bss.APPL_DMA_LTE_CMD_OK,"aw",%nobits
 939              		.align	2
 940              		.set	.LANCHOR6,. + 0
 943              	APPL_DMA_LTE_CMD_OK:
 944 0000 00000000 		.space	16
 944      00000000 
 944      00000000 
 944      00000000 
 945              		.section	.bss.APPL_DMA_LTE_CMD_PSUTTZ,"aw",%nobits
 946              		.align	2
 947              		.set	.LANCHOR7,. + 0
 950              	APPL_DMA_LTE_CMD_PSUTTZ:
 951 0000 00000000 		.space	16
 951      00000000 
 951      00000000 
 951      00000000 
 952              		.section	.bss.APPL_DMA_LTE_Init_Stage,"aw",%nobits
 953              		.set	.LANCHOR0,. + 0
 956              	APPL_DMA_LTE_Init_Stage:
 957 0000 00       		.space	1
 958              		.section	.bss.APPL_DMA_LTE_MQTT_ONLINE,"aw",%nobits
ARM GAS  C:\Users\minde\AppData\Local\Temp\ccFRyS8g.s 			page 28


 959              		.align	2
 960              		.set	.LANCHOR2,. + 0
 963              	APPL_DMA_LTE_MQTT_ONLINE:
 964 0000 00000000 		.space	4
 965              		.section	.bss.APPL_DMA_LTE_SIM7000G_ErrorCount,"aw",%nobits
 966              		.align	1
 967              		.set	.LANCHOR3,. + 0
 970              	APPL_DMA_LTE_SIM7000G_ErrorCount:
 971 0000 0000     		.space	2
 972              		.section	.bss.APPL_DMA_LTE_Step_Init,"aw",%nobits
 973              		.align	2
 974              		.set	.LANCHOR1,. + 0
 977              	APPL_DMA_LTE_Step_Init:
 978 0000 00000000 		.space	120
 978      00000000 
 978      00000000 
 978      00000000 
 978      00000000 
 979              		.section	.bss.APPL_DMA_LTE_TimemerCount,"aw",%nobits
 980              		.align	1
 983              	APPL_DMA_LTE_TimemerCount:
 984 0000 0000     		.space	2
 985              		.text
 986              	.Letext0:
 987              		.file 2 "c:\\gnuarm\\arm-none-eabi\\include\\machine\\_default_types.h"
 988              		.file 3 "c:\\gnuarm\\lib\\gcc\\arm-none-eabi\\10.3.1\\include\\stdarg.h"
 989              		.file 4 "c:\\gnuarm\\arm-none-eabi\\include\\stdio.h"
 990              		.file 5 "c:\\gnuarm\\arm-none-eabi\\include\\sys\\_stdint.h"
 991              		.file 6 "../03_Drivers/CMSIS/Device/ST/STM32L4xx/Include/stm32l432xx.h"
 992              		.file 7 "../03_Drivers/STM32L4xx_HAL_Driver/Inc/stm32l4xx_hal_def.h"
 993              		.file 8 "../03_Drivers/STM32L4xx_HAL_Driver/Inc/stm32l4xx_hal_dma.h"
 994              		.file 9 "../03_Drivers/STM32L4xx_HAL_Driver/Inc/stm32l4xx_hal_uart.h"
 995              		.file 10 "../02_OS/EKM_CMD/EKM_CMD.h"
 996              		.file 11 "../02_OS/EKM_Buffer/EKM_Buffer.h"
 997              		.file 12 "../01_Applcation/APPL_DMA_LTE/APPL_DMA_LTE.h"
 998              		.file 13 "../02_OS/Core_UART/usart.h"
 999              		.file 14 "../01_Applcation/Appl_Data/Appl_Data.h"
 1000              		.file 15 "../01_Applcation/Appl_USBService/Appl_USBService.h"
 1001              		.file 16 "c:\\gnuarm\\arm-none-eabi\\include\\string.h"
 1002              		.file 17 "<built-in>"
ARM GAS  C:\Users\minde\AppData\Local\Temp\ccFRyS8g.s 			page 29

