ARM GAS  C:\Users\minde\AppData\Local\Temp\cc7M72NL.s 			page 1


   1              		.cpu cortex-m4
   2              		.arch armv7e-m
   3              		.fpu fpv4-sp-d16
   4              		.eabi_attribute 27, 1
   5              		.eabi_attribute 28, 1
   6              		.eabi_attribute 20, 1
   7              		.eabi_attribute 21, 1
   8              		.eabi_attribute 23, 3
   9              		.eabi_attribute 24, 1
  10              		.eabi_attribute 25, 1
  11              		.eabi_attribute 26, 1
  12              		.eabi_attribute 30, 1
  13              		.eabi_attribute 34, 1
  14              		.eabi_attribute 18, 4
  15              		.file	"Appl_USBService.c"
  16              		.text
  17              	.Ltext0:
  18              		.cfi_sections	.debug_frame
  19              		.section	.text.APPL_USB_LTE_Send,"ax",%progbits
  20              		.align	1
  21              		.global	APPL_USB_LTE_Send
  22              		.syntax unified
  23              		.thumb
  24              		.thumb_func
  26              	APPL_USB_LTE_Send:
  27              	.LVL0:
  28              	.LFB299:
  29              		.file 1 "../01_Applcation/Appl_USBService/Appl_USBService.c"
   1:../01_Applcation/Appl_USBService/Appl_USBService.c **** /*
   2:../01_Applcation/Appl_USBService/Appl_USBService.c ****  * Appl_USBService.c
   3:../01_Applcation/Appl_USBService/Appl_USBService.c ****  *
   4:../01_Applcation/Appl_USBService/Appl_USBService.c ****  *  Created on: Aug 22, 2021
   5:../01_Applcation/Appl_USBService/Appl_USBService.c ****  *      Author: Eakawit
   6:../01_Applcation/Appl_USBService/Appl_USBService.c ****  *      Email: mindek30@gmail.com
   7:../01_Applcation/Appl_USBService/Appl_USBService.c ****  *
   8:../01_Applcation/Appl_USBService/Appl_USBService.c ****  */
   9:../01_Applcation/Appl_USBService/Appl_USBService.c **** 
  10:../01_Applcation/Appl_USBService/Appl_USBService.c **** /*******************************************************************************
  11:../01_Applcation/Appl_USBService/Appl_USBService.c **** *
  12:../01_Applcation/Appl_USBService/Appl_USBService.c **** * INCLUDE
  13:../01_Applcation/Appl_USBService/Appl_USBService.c **** *
  14:../01_Applcation/Appl_USBService/Appl_USBService.c **** ******************************************************************************/
  15:../01_Applcation/Appl_USBService/Appl_USBService.c **** #include <stdio.h>
  16:../01_Applcation/Appl_USBService/Appl_USBService.c **** #include <stdarg.h>
  17:../01_Applcation/Appl_USBService/Appl_USBService.c **** #include <stdlib.h>
  18:../01_Applcation/Appl_USBService/Appl_USBService.c **** #include <stdint.h>
  19:../01_Applcation/Appl_USBService/Appl_USBService.c **** #include <stdbool.h>
  20:../01_Applcation/Appl_USBService/Appl_USBService.c **** #include <string.h>
  21:../01_Applcation/Appl_USBService/Appl_USBService.c **** #include "EKM_Buffer.h"
  22:../01_Applcation/Appl_USBService/Appl_USBService.c **** #include "EKM_CMD.h"
  23:../01_Applcation/Appl_USBService/Appl_USBService.c **** #include "Appl_Data.h"
  24:../01_Applcation/Appl_USBService/Appl_USBService.c **** #include "usbd_cdc_if.h"
  25:../01_Applcation/Appl_USBService/Appl_USBService.c **** #include "Appl_USBService.h"
  26:../01_Applcation/Appl_USBService/Appl_USBService.c **** 
  27:../01_Applcation/Appl_USBService/Appl_USBService.c **** /*******************************************************************************
  28:../01_Applcation/Appl_USBService/Appl_USBService.c **** *
  29:../01_Applcation/Appl_USBService/Appl_USBService.c **** * DEFINE
ARM GAS  C:\Users\minde\AppData\Local\Temp\cc7M72NL.s 			page 2


  30:../01_Applcation/Appl_USBService/Appl_USBService.c **** *
  31:../01_Applcation/Appl_USBService/Appl_USBService.c **** ******************************************************************************/
  32:../01_Applcation/Appl_USBService/Appl_USBService.c **** 
  33:../01_Applcation/Appl_USBService/Appl_USBService.c **** /*******************************************************************************
  34:../01_Applcation/Appl_USBService/Appl_USBService.c **** *
  35:../01_Applcation/Appl_USBService/Appl_USBService.c **** * GOBAL VARIABLE
  36:../01_Applcation/Appl_USBService/Appl_USBService.c **** *
  37:../01_Applcation/Appl_USBService/Appl_USBService.c **** ******************************************************************************/
  38:../01_Applcation/Appl_USBService/Appl_USBService.c **** EKM_Buffer_t APPL_USB_Rx;
  39:../01_Applcation/Appl_USBService/Appl_USBService.c **** 
  40:../01_Applcation/Appl_USBService/Appl_USBService.c **** void APPL_USB_Init(void);
  41:../01_Applcation/Appl_USBService/Appl_USBService.c **** void APPL_USB_LineProcess(void);
  42:../01_Applcation/Appl_USBService/Appl_USBService.c **** void APPL_USB_printf(const char *format, ...);
  43:../01_Applcation/Appl_USBService/Appl_USBService.c **** int APPL_USB_IDN(int argc, char *argv[]);
  44:../01_Applcation/Appl_USBService/Appl_USBService.c **** int APPL_USB_HELP(int argc, char *argv[]);
  45:../01_Applcation/Appl_USBService/Appl_USBService.c **** int APPL_USB_Status(int argc, char *argv[]);
  46:../01_Applcation/Appl_USBService/Appl_USBService.c **** int APPL_USB_Address(int argc, char *argv[]);
  47:../01_Applcation/Appl_USBService/Appl_USBService.c **** int APPL_USB_LTE_Send(int argc, char *argv[]);
  48:../01_Applcation/Appl_USBService/Appl_USBService.c **** 
  49:../01_Applcation/Appl_USBService/Appl_USBService.c **** /*******************************************************************************
  50:../01_Applcation/Appl_USBService/Appl_USBService.c **** *
  51:../01_Applcation/Appl_USBService/Appl_USBService.c **** * PRIVATE VARIABLE
  52:../01_Applcation/Appl_USBService/Appl_USBService.c **** *
  53:../01_Applcation/Appl_USBService/Appl_USBService.c **** ******************************************************************************/
  54:../01_Applcation/Appl_USBService/Appl_USBService.c **** uint8_t APPL_USB_Data[100];
  55:../01_Applcation/Appl_USBService/Appl_USBService.c **** EKM_CMD_tCmdLineEntry APPL_USB_CMD_IDN;
  56:../01_Applcation/Appl_USBService/Appl_USBService.c **** EKM_CMD_tCmdLineEntry APPL_USB_CMD_HELP;
  57:../01_Applcation/Appl_USBService/Appl_USBService.c **** EKM_CMD_tCmdLineEntry APPL_USB_CMD_Status;
  58:../01_Applcation/Appl_USBService/Appl_USBService.c **** EKM_CMD_tCmdLineEntry APPL_USB_CMD_Address;
  59:../01_Applcation/Appl_USBService/Appl_USBService.c **** EKM_CMD_tCmdLineEntry APPL_USB_CMD_LTE_Send;
  60:../01_Applcation/Appl_USBService/Appl_USBService.c **** 
  61:../01_Applcation/Appl_USBService/Appl_USBService.c **** /*******************************************************************************
  62:../01_Applcation/Appl_USBService/Appl_USBService.c **** * Function: APPL_USB_Init
  63:../01_Applcation/Appl_USBService/Appl_USBService.c **** *
  64:../01_Applcation/Appl_USBService/Appl_USBService.c **** * Parameters:      -
  65:../01_Applcation/Appl_USBService/Appl_USBService.c **** * Returned value:  -
  66:../01_Applcation/Appl_USBService/Appl_USBService.c **** *
  67:../01_Applcation/Appl_USBService/Appl_USBService.c **** * Description:
  68:../01_Applcation/Appl_USBService/Appl_USBService.c **** *
  69:../01_Applcation/Appl_USBService/Appl_USBService.c **** * Calling:
  70:../01_Applcation/Appl_USBService/Appl_USBService.c **** ******************************************************************************/
  71:../01_Applcation/Appl_USBService/Appl_USBService.c **** void APPL_USB_Init(void)
  72:../01_Applcation/Appl_USBService/Appl_USBService.c **** {
  73:../01_Applcation/Appl_USBService/Appl_USBService.c ****     APPL_USB_CMD_IDN.EKM_CMD_pcCmd = "IDN?";
  74:../01_Applcation/Appl_USBService/Appl_USBService.c ****     APPL_USB_CMD_IDN.EKM_CMD_pcHelp = "defined in IEEE Std 488.2-1992";
  75:../01_Applcation/Appl_USBService/Appl_USBService.c ****     APPL_USB_CMD_IDN.EKM_CMD_pfnCmd = &APPL_USB_IDN;
  76:../01_Applcation/Appl_USBService/Appl_USBService.c ****     APPL_USB_CMD_IDN.next = &APPL_USB_CMD_HELP;
  77:../01_Applcation/Appl_USBService/Appl_USBService.c **** 
  78:../01_Applcation/Appl_USBService/Appl_USBService.c ****     APPL_USB_CMD_HELP.EKM_CMD_pcCmd = "help";
  79:../01_Applcation/Appl_USBService/Appl_USBService.c ****     APPL_USB_CMD_HELP.EKM_CMD_pcHelp = "Help command";
  80:../01_Applcation/Appl_USBService/Appl_USBService.c ****     APPL_USB_CMD_HELP.EKM_CMD_pfnCmd = &APPL_USB_HELP;
  81:../01_Applcation/Appl_USBService/Appl_USBService.c ****     APPL_USB_CMD_HELP.next = &APPL_USB_CMD_Status;
  82:../01_Applcation/Appl_USBService/Appl_USBService.c **** 
  83:../01_Applcation/Appl_USBService/Appl_USBService.c ****     APPL_USB_CMD_Status.EKM_CMD_pcCmd = "status";
  84:../01_Applcation/Appl_USBService/Appl_USBService.c ****     APPL_USB_CMD_Status.EKM_CMD_pcHelp = "status of device";
  85:../01_Applcation/Appl_USBService/Appl_USBService.c ****     APPL_USB_CMD_Status.EKM_CMD_pfnCmd = &APPL_USB_Status;
  86:../01_Applcation/Appl_USBService/Appl_USBService.c ****     APPL_USB_CMD_Status.next = &APPL_USB_CMD_Address;
ARM GAS  C:\Users\minde\AppData\Local\Temp\cc7M72NL.s 			page 3


  87:../01_Applcation/Appl_USBService/Appl_USBService.c **** 
  88:../01_Applcation/Appl_USBService/Appl_USBService.c ****     APPL_USB_CMD_Address.EKM_CMD_pcCmd = "RS485";
  89:../01_Applcation/Appl_USBService/Appl_USBService.c ****     APPL_USB_CMD_Address.EKM_CMD_pcHelp = "RS485 To Device";
  90:../01_Applcation/Appl_USBService/Appl_USBService.c ****     APPL_USB_CMD_Address.EKM_CMD_pfnCmd = &APPL_USB_Address;
  91:../01_Applcation/Appl_USBService/Appl_USBService.c ****     APPL_USB_CMD_Address.next = &APPL_USB_CMD_LTE_Send;
  92:../01_Applcation/Appl_USBService/Appl_USBService.c **** 
  93:../01_Applcation/Appl_USBService/Appl_USBService.c ****     APPL_USB_CMD_LTE_Send.EKM_CMD_pcCmd = "LTE";
  94:../01_Applcation/Appl_USBService/Appl_USBService.c ****     APPL_USB_CMD_LTE_Send.EKM_CMD_pcHelp = "AT Command To SIMCOM7000G";
  95:../01_Applcation/Appl_USBService/Appl_USBService.c ****     APPL_USB_CMD_LTE_Send.EKM_CMD_pfnCmd = &APPL_USB_LTE_Send;
  96:../01_Applcation/Appl_USBService/Appl_USBService.c ****     APPL_USB_CMD_LTE_Send.next = (void *)0;
  97:../01_Applcation/Appl_USBService/Appl_USBService.c **** 
  98:../01_Applcation/Appl_USBService/Appl_USBService.c ****     EKM_Buffer_Setup(&APPL_USB_Rx, 100, APPL_USB_Data);
  99:../01_Applcation/Appl_USBService/Appl_USBService.c **** }
 100:../01_Applcation/Appl_USBService/Appl_USBService.c **** 
 101:../01_Applcation/Appl_USBService/Appl_USBService.c **** /*******************************************************************************
 102:../01_Applcation/Appl_USBService/Appl_USBService.c **** * Function: APPL_USB_LineProcess
 103:../01_Applcation/Appl_USBService/Appl_USBService.c **** *
 104:../01_Applcation/Appl_USBService/Appl_USBService.c **** * Parameters:      -
 105:../01_Applcation/Appl_USBService/Appl_USBService.c **** * Returned value:  -
 106:../01_Applcation/Appl_USBService/Appl_USBService.c **** *
 107:../01_Applcation/Appl_USBService/Appl_USBService.c **** * Description:
 108:../01_Applcation/Appl_USBService/Appl_USBService.c **** *
 109:../01_Applcation/Appl_USBService/Appl_USBService.c **** * Calling:
 110:../01_Applcation/Appl_USBService/Appl_USBService.c **** ******************************************************************************/
 111:../01_Applcation/Appl_USBService/Appl_USBService.c **** void APPL_USB_LineProcess(void)
 112:../01_Applcation/Appl_USBService/Appl_USBService.c **** {
 113:../01_Applcation/Appl_USBService/Appl_USBService.c ****     if (EKM_CMD_RXPeek(APPL_USB_Rx.buffer, 0x0D, APPL_USB_Rx.write) > 0)
 114:../01_Applcation/Appl_USBService/Appl_USBService.c ****     {
 115:../01_Applcation/Appl_USBService/Appl_USBService.c ****         //APPL_USB_printf("Command = %s", APPL_USB_Rx.buffer);
 116:../01_Applcation/Appl_USBService/Appl_USBService.c ****         if (EKM_CMD_LineProcess((char *)APPL_USB_Rx.buffer, &APPL_USB_CMD_IDN, ' ') == EKM_CMD_LINE
 117:../01_Applcation/Appl_USBService/Appl_USBService.c ****             APPL_USB_printf("Command not found");
 118:../01_Applcation/Appl_USBService/Appl_USBService.c ****         EKM_Buffer_Reset(&APPL_USB_Rx);
 119:../01_Applcation/Appl_USBService/Appl_USBService.c ****     }
 120:../01_Applcation/Appl_USBService/Appl_USBService.c **** }
 121:../01_Applcation/Appl_USBService/Appl_USBService.c **** 
 122:../01_Applcation/Appl_USBService/Appl_USBService.c **** /*******************************************************************************
 123:../01_Applcation/Appl_USBService/Appl_USBService.c **** * Function: APPL_USB_printf
 124:../01_Applcation/Appl_USBService/Appl_USBService.c **** *
 125:../01_Applcation/Appl_USBService/Appl_USBService.c **** * Parameters:      -
 126:../01_Applcation/Appl_USBService/Appl_USBService.c **** * Returned value:  -
 127:../01_Applcation/Appl_USBService/Appl_USBService.c **** *
 128:../01_Applcation/Appl_USBService/Appl_USBService.c **** * Description:
 129:../01_Applcation/Appl_USBService/Appl_USBService.c **** *
 130:../01_Applcation/Appl_USBService/Appl_USBService.c **** * Calling:
 131:../01_Applcation/Appl_USBService/Appl_USBService.c **** ******************************************************************************/
 132:../01_Applcation/Appl_USBService/Appl_USBService.c **** void APPL_USB_printf(const char *format, ...)
 133:../01_Applcation/Appl_USBService/Appl_USBService.c **** {
 134:../01_Applcation/Appl_USBService/Appl_USBService.c ****     // there was an error reading.
 135:../01_Applcation/Appl_USBService/Appl_USBService.c ****     uint8_t SerialBuffer[100];
 136:../01_Applcation/Appl_USBService/Appl_USBService.c ****     memset(SerialBuffer, 0, 100);
 137:../01_Applcation/Appl_USBService/Appl_USBService.c ****     va_list args;
 138:../01_Applcation/Appl_USBService/Appl_USBService.c ****     va_start(args, format);
 139:../01_Applcation/Appl_USBService/Appl_USBService.c ****     vsprintf((char *)SerialBuffer, format, args);
 140:../01_Applcation/Appl_USBService/Appl_USBService.c ****     va_end(args);
 141:../01_Applcation/Appl_USBService/Appl_USBService.c ****     CDC_Transmit_FS(SerialBuffer, strlen((char *)SerialBuffer));
 142:../01_Applcation/Appl_USBService/Appl_USBService.c ****     HAL_Delay(1);
 143:../01_Applcation/Appl_USBService/Appl_USBService.c **** }
ARM GAS  C:\Users\minde\AppData\Local\Temp\cc7M72NL.s 			page 4


 144:../01_Applcation/Appl_USBService/Appl_USBService.c **** 
 145:../01_Applcation/Appl_USBService/Appl_USBService.c **** /*******************************************************************************
 146:../01_Applcation/Appl_USBService/Appl_USBService.c **** * Function: APPL_USB_IDN
 147:../01_Applcation/Appl_USBService/Appl_USBService.c **** *
 148:../01_Applcation/Appl_USBService/Appl_USBService.c **** * Parameters:      -
 149:../01_Applcation/Appl_USBService/Appl_USBService.c **** * Returned value:  -
 150:../01_Applcation/Appl_USBService/Appl_USBService.c **** *
 151:../01_Applcation/Appl_USBService/Appl_USBService.c **** * Description:
 152:../01_Applcation/Appl_USBService/Appl_USBService.c **** *
 153:../01_Applcation/Appl_USBService/Appl_USBService.c **** * Calling:
 154:../01_Applcation/Appl_USBService/Appl_USBService.c **** ******************************************************************************/
 155:../01_Applcation/Appl_USBService/Appl_USBService.c **** int APPL_USB_IDN(int argc, char *argv[])
 156:../01_Applcation/Appl_USBService/Appl_USBService.c **** {
 157:../01_Applcation/Appl_USBService/Appl_USBService.c ****     APPL_USB_printf("UU Monitoring Version 1\r\n");
 158:../01_Applcation/Appl_USBService/Appl_USBService.c ****     APPL_USB_printf("Firmware Version %d\r\n", 1);
 159:../01_Applcation/Appl_USBService/Appl_USBService.c ****     return 0;
 160:../01_Applcation/Appl_USBService/Appl_USBService.c **** }
 161:../01_Applcation/Appl_USBService/Appl_USBService.c **** 
 162:../01_Applcation/Appl_USBService/Appl_USBService.c **** /*******************************************************************************
 163:../01_Applcation/Appl_USBService/Appl_USBService.c **** * Function: APPL_USB_HELP
 164:../01_Applcation/Appl_USBService/Appl_USBService.c **** *
 165:../01_Applcation/Appl_USBService/Appl_USBService.c **** * Parameters:      -
 166:../01_Applcation/Appl_USBService/Appl_USBService.c **** * Returned value:  -
 167:../01_Applcation/Appl_USBService/Appl_USBService.c **** *
 168:../01_Applcation/Appl_USBService/Appl_USBService.c **** * Description:
 169:../01_Applcation/Appl_USBService/Appl_USBService.c **** *
 170:../01_Applcation/Appl_USBService/Appl_USBService.c **** * Calling:
 171:../01_Applcation/Appl_USBService/Appl_USBService.c **** ******************************************************************************/
 172:../01_Applcation/Appl_USBService/Appl_USBService.c **** int APPL_USB_HELP(int argc, char *argv[])
 173:../01_Applcation/Appl_USBService/Appl_USBService.c **** {
 174:../01_Applcation/Appl_USBService/Appl_USBService.c ****     EKM_CMD_tCmdLineEntry *psCmdEntry;
 175:../01_Applcation/Appl_USBService/Appl_USBService.c ****     psCmdEntry = &APPL_USB_CMD_IDN;
 176:../01_Applcation/Appl_USBService/Appl_USBService.c ****     APPL_USB_printf("Command\t:Description\n\r");
 177:../01_Applcation/Appl_USBService/Appl_USBService.c ****     while (psCmdEntry != ((void *)0))
 178:../01_Applcation/Appl_USBService/Appl_USBService.c ****     {
 179:../01_Applcation/Appl_USBService/Appl_USBService.c ****         APPL_USB_printf("%s\t:%s\n\r", psCmdEntry->EKM_CMD_pcCmd, psCmdEntry->EKM_CMD_pcHelp);
 180:../01_Applcation/Appl_USBService/Appl_USBService.c ****         psCmdEntry = psCmdEntry->next;
 181:../01_Applcation/Appl_USBService/Appl_USBService.c ****     }
 182:../01_Applcation/Appl_USBService/Appl_USBService.c ****     return 0;
 183:../01_Applcation/Appl_USBService/Appl_USBService.c **** }
 184:../01_Applcation/Appl_USBService/Appl_USBService.c **** 
 185:../01_Applcation/Appl_USBService/Appl_USBService.c **** /*******************************************************************************
 186:../01_Applcation/Appl_USBService/Appl_USBService.c **** * Function: APPL_USB_Status
 187:../01_Applcation/Appl_USBService/Appl_USBService.c **** *
 188:../01_Applcation/Appl_USBService/Appl_USBService.c **** * Parameters:      -
 189:../01_Applcation/Appl_USBService/Appl_USBService.c **** * Returned value:  -
 190:../01_Applcation/Appl_USBService/Appl_USBService.c **** *
 191:../01_Applcation/Appl_USBService/Appl_USBService.c **** * Description:
 192:../01_Applcation/Appl_USBService/Appl_USBService.c **** *
 193:../01_Applcation/Appl_USBService/Appl_USBService.c **** * Calling:
 194:../01_Applcation/Appl_USBService/Appl_USBService.c **** ******************************************************************************/
 195:../01_Applcation/Appl_USBService/Appl_USBService.c **** int APPL_USB_Status(int argc, char *argv[])
 196:../01_Applcation/Appl_USBService/Appl_USBService.c **** {
 197:../01_Applcation/Appl_USBService/Appl_USBService.c ****     APPL_USB_printf("Status Report\r\n");
 198:../01_Applcation/Appl_USBService/Appl_USBService.c ****     return 0;
 199:../01_Applcation/Appl_USBService/Appl_USBService.c **** }
 200:../01_Applcation/Appl_USBService/Appl_USBService.c **** 
ARM GAS  C:\Users\minde\AppData\Local\Temp\cc7M72NL.s 			page 5


 201:../01_Applcation/Appl_USBService/Appl_USBService.c **** /*******************************************************************************
 202:../01_Applcation/Appl_USBService/Appl_USBService.c **** * Function: APPL_USB_Address
 203:../01_Applcation/Appl_USBService/Appl_USBService.c **** *
 204:../01_Applcation/Appl_USBService/Appl_USBService.c **** * Parameters:      -
 205:../01_Applcation/Appl_USBService/Appl_USBService.c **** * Returned value:  -
 206:../01_Applcation/Appl_USBService/Appl_USBService.c **** *
 207:../01_Applcation/Appl_USBService/Appl_USBService.c **** * Description:
 208:../01_Applcation/Appl_USBService/Appl_USBService.c **** *
 209:../01_Applcation/Appl_USBService/Appl_USBService.c **** * Calling:
 210:../01_Applcation/Appl_USBService/Appl_USBService.c **** ******************************************************************************/
 211:../01_Applcation/Appl_USBService/Appl_USBService.c **** int APPL_USB_Address(int argc, char *argv[])
 212:../01_Applcation/Appl_USBService/Appl_USBService.c **** {
 213:../01_Applcation/Appl_USBService/Appl_USBService.c ****     if(argc > 1){
 214:../01_Applcation/Appl_USBService/Appl_USBService.c ****         APPL_USB_printf("RS485 Command =  %s\r\n",argv[1]);
 215:../01_Applcation/Appl_USBService/Appl_USBService.c ****     }
 216:../01_Applcation/Appl_USBService/Appl_USBService.c ****     APPL_Data_RS485_Send();
 217:../01_Applcation/Appl_USBService/Appl_USBService.c ****     return 0;
 218:../01_Applcation/Appl_USBService/Appl_USBService.c **** }
 219:../01_Applcation/Appl_USBService/Appl_USBService.c **** 
 220:../01_Applcation/Appl_USBService/Appl_USBService.c **** /*******************************************************************************
 221:../01_Applcation/Appl_USBService/Appl_USBService.c **** * Function: APPL_USB_LTE_Send
 222:../01_Applcation/Appl_USBService/Appl_USBService.c **** *
 223:../01_Applcation/Appl_USBService/Appl_USBService.c **** * Parameters:      -
 224:../01_Applcation/Appl_USBService/Appl_USBService.c **** * Returned value:  -
 225:../01_Applcation/Appl_USBService/Appl_USBService.c **** *
 226:../01_Applcation/Appl_USBService/Appl_USBService.c **** * Description:
 227:../01_Applcation/Appl_USBService/Appl_USBService.c **** *
 228:../01_Applcation/Appl_USBService/Appl_USBService.c **** * Calling:
 229:../01_Applcation/Appl_USBService/Appl_USBService.c **** ******************************************************************************/
 230:../01_Applcation/Appl_USBService/Appl_USBService.c **** int APPL_USB_LTE_Send(int argc, char *argv[])
 231:../01_Applcation/Appl_USBService/Appl_USBService.c **** {
  30              		.loc 1 231 1 view -0
  31              		.cfi_startproc
  32              		@ args = 0, pretend = 0, frame = 0
  33              		@ frame_needed = 0, uses_anonymous_args = 0
  34              		@ link register save eliminated.
 232:../01_Applcation/Appl_USBService/Appl_USBService.c ****     if(argc > 1){
  35              		.loc 1 232 5 view .LVU1
 233:../01_Applcation/Appl_USBService/Appl_USBService.c ****         //APPL_USB_printf("LTE Command =  %s\r\n",argv[1]);
 234:../01_Applcation/Appl_USBService/Appl_USBService.c ****     }
  36              		.loc 1 234 5 view .LVU2
 235:../01_Applcation/Appl_USBService/Appl_USBService.c ****     return 0;
  37              		.loc 1 235 5 view .LVU3
 236:../01_Applcation/Appl_USBService/Appl_USBService.c **** }
  38              		.loc 1 236 1 is_stmt 0 view .LVU4
  39 0000 0020     		movs	r0, #0
  40              	.LVL1:
  41              		.loc 1 236 1 view .LVU5
  42 0002 7047     		bx	lr
  43              		.cfi_endproc
  44              	.LFE299:
  46              		.section	.rodata.APPL_USB_Init.str1.4,"aMS",%progbits,1
  47              		.align	2
  48              	.LC0:
  49 0000 49444E3F 		.ascii	"IDN?\000"
  49      00
  50 0005 000000   		.align	2
ARM GAS  C:\Users\minde\AppData\Local\Temp\cc7M72NL.s 			page 6


  51              	.LC1:
  52 0008 64656669 		.ascii	"defined in IEEE Std 488.2-1992\000"
  52      6E656420 
  52      696E2049 
  52      45454520 
  52      53746420 
  53 0027 00       		.align	2
  54              	.LC2:
  55 0028 68656C70 		.ascii	"help\000"
  55      00
  56 002d 000000   		.align	2
  57              	.LC3:
  58 0030 48656C70 		.ascii	"Help command\000"
  58      20636F6D 
  58      6D616E64 
  58      00
  59 003d 000000   		.align	2
  60              	.LC4:
  61 0040 73746174 		.ascii	"status\000"
  61      757300
  62 0047 00       		.align	2
  63              	.LC5:
  64 0048 73746174 		.ascii	"status of device\000"
  64      7573206F 
  64      66206465 
  64      76696365 
  64      00
  65 0059 000000   		.align	2
  66              	.LC6:
  67 005c 52533438 		.ascii	"RS485\000"
  67      3500
  68 0062 0000     		.align	2
  69              	.LC7:
  70 0064 52533438 		.ascii	"RS485 To Device\000"
  70      3520546F 
  70      20446576 
  70      69636500 
  71              		.align	2
  72              	.LC8:
  73 0074 4C544500 		.ascii	"LTE\000"
  74              		.align	2
  75              	.LC9:
  76 0078 41542043 		.ascii	"AT Command To SIMCOM7000G\000"
  76      6F6D6D61 
  76      6E642054 
  76      6F205349 
  76      4D434F4D 
  77              		.section	.text.APPL_USB_Init,"ax",%progbits
  78              		.align	1
  79              		.global	APPL_USB_Init
  80              		.syntax unified
  81              		.thumb
  82              		.thumb_func
  84              	APPL_USB_Init:
  85              	.LFB292:
  72:../01_Applcation/Appl_USBService/Appl_USBService.c ****     APPL_USB_CMD_IDN.EKM_CMD_pcCmd = "IDN?";
  86              		.loc 1 72 1 is_stmt 1 view -0
ARM GAS  C:\Users\minde\AppData\Local\Temp\cc7M72NL.s 			page 7


  87              		.cfi_startproc
  88              		@ args = 0, pretend = 0, frame = 0
  89              		@ frame_needed = 0, uses_anonymous_args = 0
  90 0000 08B5     		push	{r3, lr}
  91              	.LCFI0:
  92              		.cfi_def_cfa_offset 8
  93              		.cfi_offset 3, -8
  94              		.cfi_offset 14, -4
  73:../01_Applcation/Appl_USBService/Appl_USBService.c ****     APPL_USB_CMD_IDN.EKM_CMD_pcHelp = "defined in IEEE Std 488.2-1992";
  95              		.loc 1 73 5 view .LVU7
  73:../01_Applcation/Appl_USBService/Appl_USBService.c ****     APPL_USB_CMD_IDN.EKM_CMD_pcHelp = "defined in IEEE Std 488.2-1992";
  96              		.loc 1 73 36 is_stmt 0 view .LVU8
  97 0002 174B     		ldr	r3, .L4
  98 0004 174A     		ldr	r2, .L4+4
  99 0006 1A60     		str	r2, [r3]
  74:../01_Applcation/Appl_USBService/Appl_USBService.c ****     APPL_USB_CMD_IDN.EKM_CMD_pfnCmd = &APPL_USB_IDN;
 100              		.loc 1 74 5 is_stmt 1 view .LVU9
  74:../01_Applcation/Appl_USBService/Appl_USBService.c ****     APPL_USB_CMD_IDN.EKM_CMD_pfnCmd = &APPL_USB_IDN;
 101              		.loc 1 74 37 is_stmt 0 view .LVU10
 102 0008 174A     		ldr	r2, .L4+8
 103 000a 9A60     		str	r2, [r3, #8]
  75:../01_Applcation/Appl_USBService/Appl_USBService.c ****     APPL_USB_CMD_IDN.next = &APPL_USB_CMD_HELP;
 104              		.loc 1 75 5 is_stmt 1 view .LVU11
  75:../01_Applcation/Appl_USBService/Appl_USBService.c ****     APPL_USB_CMD_IDN.next = &APPL_USB_CMD_HELP;
 105              		.loc 1 75 37 is_stmt 0 view .LVU12
 106 000c 174A     		ldr	r2, .L4+12
 107 000e 5A60     		str	r2, [r3, #4]
  76:../01_Applcation/Appl_USBService/Appl_USBService.c **** 
 108              		.loc 1 76 5 is_stmt 1 view .LVU13
  76:../01_Applcation/Appl_USBService/Appl_USBService.c **** 
 109              		.loc 1 76 27 is_stmt 0 view .LVU14
 110 0010 174A     		ldr	r2, .L4+16
 111 0012 DA60     		str	r2, [r3, #12]
  78:../01_Applcation/Appl_USBService/Appl_USBService.c ****     APPL_USB_CMD_HELP.EKM_CMD_pcHelp = "Help command";
 112              		.loc 1 78 5 is_stmt 1 view .LVU15
  78:../01_Applcation/Appl_USBService/Appl_USBService.c ****     APPL_USB_CMD_HELP.EKM_CMD_pcHelp = "Help command";
 113              		.loc 1 78 37 is_stmt 0 view .LVU16
 114 0014 174B     		ldr	r3, .L4+20
 115 0016 1360     		str	r3, [r2]
  79:../01_Applcation/Appl_USBService/Appl_USBService.c ****     APPL_USB_CMD_HELP.EKM_CMD_pfnCmd = &APPL_USB_HELP;
 116              		.loc 1 79 5 is_stmt 1 view .LVU17
  79:../01_Applcation/Appl_USBService/Appl_USBService.c ****     APPL_USB_CMD_HELP.EKM_CMD_pfnCmd = &APPL_USB_HELP;
 117              		.loc 1 79 38 is_stmt 0 view .LVU18
 118 0018 174B     		ldr	r3, .L4+24
 119 001a 9360     		str	r3, [r2, #8]
  80:../01_Applcation/Appl_USBService/Appl_USBService.c ****     APPL_USB_CMD_HELP.next = &APPL_USB_CMD_Status;
 120              		.loc 1 80 5 is_stmt 1 view .LVU19
  80:../01_Applcation/Appl_USBService/Appl_USBService.c ****     APPL_USB_CMD_HELP.next = &APPL_USB_CMD_Status;
 121              		.loc 1 80 38 is_stmt 0 view .LVU20
 122 001c 174B     		ldr	r3, .L4+28
 123 001e 5360     		str	r3, [r2, #4]
  81:../01_Applcation/Appl_USBService/Appl_USBService.c **** 
 124              		.loc 1 81 5 is_stmt 1 view .LVU21
  81:../01_Applcation/Appl_USBService/Appl_USBService.c **** 
 125              		.loc 1 81 28 is_stmt 0 view .LVU22
 126 0020 174B     		ldr	r3, .L4+32
 127 0022 D360     		str	r3, [r2, #12]
ARM GAS  C:\Users\minde\AppData\Local\Temp\cc7M72NL.s 			page 8


  83:../01_Applcation/Appl_USBService/Appl_USBService.c ****     APPL_USB_CMD_Status.EKM_CMD_pcHelp = "status of device";
 128              		.loc 1 83 5 is_stmt 1 view .LVU23
  83:../01_Applcation/Appl_USBService/Appl_USBService.c ****     APPL_USB_CMD_Status.EKM_CMD_pcHelp = "status of device";
 129              		.loc 1 83 39 is_stmt 0 view .LVU24
 130 0024 174A     		ldr	r2, .L4+36
 131 0026 1A60     		str	r2, [r3]
  84:../01_Applcation/Appl_USBService/Appl_USBService.c ****     APPL_USB_CMD_Status.EKM_CMD_pfnCmd = &APPL_USB_Status;
 132              		.loc 1 84 5 is_stmt 1 view .LVU25
  84:../01_Applcation/Appl_USBService/Appl_USBService.c ****     APPL_USB_CMD_Status.EKM_CMD_pfnCmd = &APPL_USB_Status;
 133              		.loc 1 84 40 is_stmt 0 view .LVU26
 134 0028 174A     		ldr	r2, .L4+40
 135 002a 9A60     		str	r2, [r3, #8]
  85:../01_Applcation/Appl_USBService/Appl_USBService.c ****     APPL_USB_CMD_Status.next = &APPL_USB_CMD_Address;
 136              		.loc 1 85 5 is_stmt 1 view .LVU27
  85:../01_Applcation/Appl_USBService/Appl_USBService.c ****     APPL_USB_CMD_Status.next = &APPL_USB_CMD_Address;
 137              		.loc 1 85 40 is_stmt 0 view .LVU28
 138 002c 174A     		ldr	r2, .L4+44
 139 002e 5A60     		str	r2, [r3, #4]
  86:../01_Applcation/Appl_USBService/Appl_USBService.c **** 
 140              		.loc 1 86 5 is_stmt 1 view .LVU29
  86:../01_Applcation/Appl_USBService/Appl_USBService.c **** 
 141              		.loc 1 86 30 is_stmt 0 view .LVU30
 142 0030 174A     		ldr	r2, .L4+48
 143 0032 DA60     		str	r2, [r3, #12]
  88:../01_Applcation/Appl_USBService/Appl_USBService.c ****     APPL_USB_CMD_Address.EKM_CMD_pcHelp = "RS485 To Device";
 144              		.loc 1 88 5 is_stmt 1 view .LVU31
  88:../01_Applcation/Appl_USBService/Appl_USBService.c ****     APPL_USB_CMD_Address.EKM_CMD_pcHelp = "RS485 To Device";
 145              		.loc 1 88 40 is_stmt 0 view .LVU32
 146 0034 174B     		ldr	r3, .L4+52
 147 0036 1360     		str	r3, [r2]
  89:../01_Applcation/Appl_USBService/Appl_USBService.c ****     APPL_USB_CMD_Address.EKM_CMD_pfnCmd = &APPL_USB_Address;
 148              		.loc 1 89 5 is_stmt 1 view .LVU33
  89:../01_Applcation/Appl_USBService/Appl_USBService.c ****     APPL_USB_CMD_Address.EKM_CMD_pfnCmd = &APPL_USB_Address;
 149              		.loc 1 89 41 is_stmt 0 view .LVU34
 150 0038 174B     		ldr	r3, .L4+56
 151 003a 9360     		str	r3, [r2, #8]
  90:../01_Applcation/Appl_USBService/Appl_USBService.c ****     APPL_USB_CMD_Address.next = &APPL_USB_CMD_LTE_Send;
 152              		.loc 1 90 5 is_stmt 1 view .LVU35
  90:../01_Applcation/Appl_USBService/Appl_USBService.c ****     APPL_USB_CMD_Address.next = &APPL_USB_CMD_LTE_Send;
 153              		.loc 1 90 41 is_stmt 0 view .LVU36
 154 003c 174B     		ldr	r3, .L4+60
 155 003e 5360     		str	r3, [r2, #4]
  91:../01_Applcation/Appl_USBService/Appl_USBService.c **** 
 156              		.loc 1 91 5 is_stmt 1 view .LVU37
  91:../01_Applcation/Appl_USBService/Appl_USBService.c **** 
 157              		.loc 1 91 31 is_stmt 0 view .LVU38
 158 0040 174B     		ldr	r3, .L4+64
 159 0042 D360     		str	r3, [r2, #12]
  93:../01_Applcation/Appl_USBService/Appl_USBService.c ****     APPL_USB_CMD_LTE_Send.EKM_CMD_pcHelp = "AT Command To SIMCOM7000G";
 160              		.loc 1 93 5 is_stmt 1 view .LVU39
  93:../01_Applcation/Appl_USBService/Appl_USBService.c ****     APPL_USB_CMD_LTE_Send.EKM_CMD_pcHelp = "AT Command To SIMCOM7000G";
 161              		.loc 1 93 41 is_stmt 0 view .LVU40
 162 0044 174A     		ldr	r2, .L4+68
 163 0046 1A60     		str	r2, [r3]
  94:../01_Applcation/Appl_USBService/Appl_USBService.c ****     APPL_USB_CMD_LTE_Send.EKM_CMD_pfnCmd = &APPL_USB_LTE_Send;
 164              		.loc 1 94 5 is_stmt 1 view .LVU41
  94:../01_Applcation/Appl_USBService/Appl_USBService.c ****     APPL_USB_CMD_LTE_Send.EKM_CMD_pfnCmd = &APPL_USB_LTE_Send;
ARM GAS  C:\Users\minde\AppData\Local\Temp\cc7M72NL.s 			page 9


 165              		.loc 1 94 42 is_stmt 0 view .LVU42
 166 0048 174A     		ldr	r2, .L4+72
 167 004a 9A60     		str	r2, [r3, #8]
  95:../01_Applcation/Appl_USBService/Appl_USBService.c ****     APPL_USB_CMD_LTE_Send.next = (void *)0;
 168              		.loc 1 95 5 is_stmt 1 view .LVU43
  95:../01_Applcation/Appl_USBService/Appl_USBService.c ****     APPL_USB_CMD_LTE_Send.next = (void *)0;
 169              		.loc 1 95 42 is_stmt 0 view .LVU44
 170 004c 174A     		ldr	r2, .L4+76
 171 004e 5A60     		str	r2, [r3, #4]
  96:../01_Applcation/Appl_USBService/Appl_USBService.c **** 
 172              		.loc 1 96 5 is_stmt 1 view .LVU45
  96:../01_Applcation/Appl_USBService/Appl_USBService.c **** 
 173              		.loc 1 96 32 is_stmt 0 view .LVU46
 174 0050 0022     		movs	r2, #0
 175 0052 DA60     		str	r2, [r3, #12]
  98:../01_Applcation/Appl_USBService/Appl_USBService.c **** }
 176              		.loc 1 98 5 is_stmt 1 view .LVU47
 177 0054 164A     		ldr	r2, .L4+80
 178 0056 6421     		movs	r1, #100
 179 0058 1648     		ldr	r0, .L4+84
 180 005a FFF7FEFF 		bl	EKM_Buffer_Setup
 181              	.LVL2:
  99:../01_Applcation/Appl_USBService/Appl_USBService.c **** 
 182              		.loc 1 99 1 is_stmt 0 view .LVU48
 183 005e 08BD     		pop	{r3, pc}
 184              	.L5:
 185              		.align	2
 186              	.L4:
 187 0060 00000000 		.word	.LANCHOR0
 188 0064 00000000 		.word	.LC0
 189 0068 08000000 		.word	.LC1
 190 006c 00000000 		.word	APPL_USB_IDN
 191 0070 00000000 		.word	.LANCHOR1
 192 0074 28000000 		.word	.LC2
 193 0078 30000000 		.word	.LC3
 194 007c 00000000 		.word	APPL_USB_HELP
 195 0080 00000000 		.word	.LANCHOR2
 196 0084 40000000 		.word	.LC4
 197 0088 48000000 		.word	.LC5
 198 008c 00000000 		.word	APPL_USB_Status
 199 0090 00000000 		.word	.LANCHOR3
 200 0094 5C000000 		.word	.LC6
 201 0098 64000000 		.word	.LC7
 202 009c 00000000 		.word	APPL_USB_Address
 203 00a0 00000000 		.word	.LANCHOR4
 204 00a4 74000000 		.word	.LC8
 205 00a8 78000000 		.word	.LC9
 206 00ac 00000000 		.word	APPL_USB_LTE_Send
 207 00b0 00000000 		.word	.LANCHOR5
 208 00b4 00000000 		.word	.LANCHOR6
 209              		.cfi_endproc
 210              	.LFE292:
 212              		.section	.text.APPL_USB_printf,"ax",%progbits
 213              		.align	1
 214              		.global	APPL_USB_printf
 215              		.syntax unified
 216              		.thumb
ARM GAS  C:\Users\minde\AppData\Local\Temp\cc7M72NL.s 			page 10


 217              		.thumb_func
 219              	APPL_USB_printf:
 220              	.LVL3:
 221              	.LFB294:
 133:../01_Applcation/Appl_USBService/Appl_USBService.c ****     // there was an error reading.
 222              		.loc 1 133 1 is_stmt 1 view -0
 223              		.cfi_startproc
 224              		@ args = 4, pretend = 16, frame = 104
 225              		@ frame_needed = 0, uses_anonymous_args = 1
 133:../01_Applcation/Appl_USBService/Appl_USBService.c ****     // there was an error reading.
 226              		.loc 1 133 1 is_stmt 0 view .LVU50
 227 0000 0FB4     		push	{r0, r1, r2, r3}
 228              	.LCFI1:
 229              		.cfi_def_cfa_offset 16
 230              		.cfi_offset 0, -16
 231              		.cfi_offset 1, -12
 232              		.cfi_offset 2, -8
 233              		.cfi_offset 3, -4
 234 0002 30B5     		push	{r4, r5, lr}
 235              	.LCFI2:
 236              		.cfi_def_cfa_offset 28
 237              		.cfi_offset 4, -28
 238              		.cfi_offset 5, -24
 239              		.cfi_offset 14, -20
 240 0004 9BB0     		sub	sp, sp, #108
 241              	.LCFI3:
 242              		.cfi_def_cfa_offset 136
 243 0006 1EAC     		add	r4, sp, #120
 244 0008 54F8045B 		ldr	r5, [r4], #4
 135:../01_Applcation/Appl_USBService/Appl_USBService.c ****     memset(SerialBuffer, 0, 100);
 245              		.loc 1 135 5 is_stmt 1 view .LVU51
 136:../01_Applcation/Appl_USBService/Appl_USBService.c ****     va_list args;
 246              		.loc 1 136 5 view .LVU52
 247 000c 6422     		movs	r2, #100
 248 000e 0021     		movs	r1, #0
 249 0010 01A8     		add	r0, sp, #4
 250 0012 FFF7FEFF 		bl	memset
 251              	.LVL4:
 137:../01_Applcation/Appl_USBService/Appl_USBService.c ****     va_start(args, format);
 252              		.loc 1 137 5 view .LVU53
 138:../01_Applcation/Appl_USBService/Appl_USBService.c ****     vsprintf((char *)SerialBuffer, format, args);
 253              		.loc 1 138 5 view .LVU54
 254 0016 0094     		str	r4, [sp]
 139:../01_Applcation/Appl_USBService/Appl_USBService.c ****     va_end(args);
 255              		.loc 1 139 5 view .LVU55
 256 0018 2246     		mov	r2, r4
 257 001a 2946     		mov	r1, r5
 258 001c 01A8     		add	r0, sp, #4
 259 001e FFF7FEFF 		bl	vsprintf
 260              	.LVL5:
 140:../01_Applcation/Appl_USBService/Appl_USBService.c ****     CDC_Transmit_FS(SerialBuffer, strlen((char *)SerialBuffer));
 261              		.loc 1 140 5 view .LVU56
 141:../01_Applcation/Appl_USBService/Appl_USBService.c ****     HAL_Delay(1);
 262              		.loc 1 141 5 view .LVU57
 141:../01_Applcation/Appl_USBService/Appl_USBService.c ****     HAL_Delay(1);
 263              		.loc 1 141 35 is_stmt 0 view .LVU58
 264 0022 01A8     		add	r0, sp, #4
ARM GAS  C:\Users\minde\AppData\Local\Temp\cc7M72NL.s 			page 11


 265 0024 FFF7FEFF 		bl	strlen
 266              	.LVL6:
 141:../01_Applcation/Appl_USBService/Appl_USBService.c ****     HAL_Delay(1);
 267              		.loc 1 141 5 view .LVU59
 268 0028 81B2     		uxth	r1, r0
 269 002a 01A8     		add	r0, sp, #4
 270 002c FFF7FEFF 		bl	CDC_Transmit_FS
 271              	.LVL7:
 142:../01_Applcation/Appl_USBService/Appl_USBService.c **** }
 272              		.loc 1 142 5 is_stmt 1 view .LVU60
 273 0030 0120     		movs	r0, #1
 274 0032 FFF7FEFF 		bl	HAL_Delay
 275              	.LVL8:
 143:../01_Applcation/Appl_USBService/Appl_USBService.c **** 
 276              		.loc 1 143 1 is_stmt 0 view .LVU61
 277 0036 1BB0     		add	sp, sp, #108
 278              	.LCFI4:
 279              		.cfi_def_cfa_offset 28
 280              		@ sp needed
 281 0038 BDE83040 		pop	{r4, r5, lr}
 282              	.LCFI5:
 283              		.cfi_restore 14
 284              		.cfi_restore 5
 285              		.cfi_restore 4
 286              		.cfi_def_cfa_offset 16
 287 003c 04B0     		add	sp, sp, #16
 288              	.LCFI6:
 289              		.cfi_restore 3
 290              		.cfi_restore 2
 291              		.cfi_restore 1
 292              		.cfi_restore 0
 293              		.cfi_def_cfa_offset 0
 294 003e 7047     		bx	lr
 295              		.cfi_endproc
 296              	.LFE294:
 298              		.section	.rodata.APPL_USB_LineProcess.str1.4,"aMS",%progbits,1
 299              		.align	2
 300              	.LC10:
 301 0000 436F6D6D 		.ascii	"Command not found\000"
 301      616E6420 
 301      6E6F7420 
 301      666F756E 
 301      6400
 302              		.section	.text.APPL_USB_LineProcess,"ax",%progbits
 303              		.align	1
 304              		.global	APPL_USB_LineProcess
 305              		.syntax unified
 306              		.thumb
 307              		.thumb_func
 309              	APPL_USB_LineProcess:
 310              	.LFB293:
 112:../01_Applcation/Appl_USBService/Appl_USBService.c ****     if (EKM_CMD_RXPeek(APPL_USB_Rx.buffer, 0x0D, APPL_USB_Rx.write) > 0)
 311              		.loc 1 112 1 is_stmt 1 view -0
 312              		.cfi_startproc
 313              		@ args = 0, pretend = 0, frame = 0
 314              		@ frame_needed = 0, uses_anonymous_args = 0
 315 0000 08B5     		push	{r3, lr}
ARM GAS  C:\Users\minde\AppData\Local\Temp\cc7M72NL.s 			page 12


 316              	.LCFI7:
 317              		.cfi_def_cfa_offset 8
 318              		.cfi_offset 3, -8
 319              		.cfi_offset 14, -4
 113:../01_Applcation/Appl_USBService/Appl_USBService.c ****     {
 320              		.loc 1 113 5 view .LVU63
 113:../01_Applcation/Appl_USBService/Appl_USBService.c ****     {
 321              		.loc 1 113 35 is_stmt 0 view .LVU64
 322 0002 0D4B     		ldr	r3, .L14
 113:../01_Applcation/Appl_USBService/Appl_USBService.c ****     {
 323              		.loc 1 113 9 view .LVU65
 324 0004 5A78     		ldrb	r2, [r3, #1]	@ zero_extendqisi2
 325 0006 0D21     		movs	r1, #13
 326 0008 9868     		ldr	r0, [r3, #8]
 327 000a FFF7FEFF 		bl	EKM_CMD_RXPeek
 328              	.LVL9:
 113:../01_Applcation/Appl_USBService/Appl_USBService.c ****     {
 329              		.loc 1 113 8 view .LVU66
 330 000e 0028     		cmp	r0, #0
 331 0010 00DC     		bgt	.L12
 332              	.L8:
 120:../01_Applcation/Appl_USBService/Appl_USBService.c **** 
 333              		.loc 1 120 1 view .LVU67
 334 0012 08BD     		pop	{r3, pc}
 335              	.L12:
 116:../01_Applcation/Appl_USBService/Appl_USBService.c ****             APPL_USB_printf("Command not found");
 336              		.loc 1 116 9 is_stmt 1 view .LVU68
 116:../01_Applcation/Appl_USBService/Appl_USBService.c ****             APPL_USB_printf("Command not found");
 337              		.loc 1 116 13 is_stmt 0 view .LVU69
 338 0014 2022     		movs	r2, #32
 339 0016 0949     		ldr	r1, .L14+4
 340 0018 074B     		ldr	r3, .L14
 341 001a 9868     		ldr	r0, [r3, #8]
 342 001c FFF7FEFF 		bl	EKM_CMD_LineProcess
 343              	.LVL10:
 116:../01_Applcation/Appl_USBService/Appl_USBService.c ****             APPL_USB_printf("Command not found");
 344              		.loc 1 116 12 view .LVU70
 345 0020 B0F1FF3F 		cmp	r0, #-1
 346 0024 03D0     		beq	.L13
 347              	.L10:
 118:../01_Applcation/Appl_USBService/Appl_USBService.c ****     }
 348              		.loc 1 118 9 is_stmt 1 view .LVU71
 349 0026 0448     		ldr	r0, .L14
 350 0028 FFF7FEFF 		bl	EKM_Buffer_Reset
 351              	.LVL11:
 120:../01_Applcation/Appl_USBService/Appl_USBService.c **** 
 352              		.loc 1 120 1 is_stmt 0 view .LVU72
 353 002c F1E7     		b	.L8
 354              	.L13:
 117:../01_Applcation/Appl_USBService/Appl_USBService.c ****         EKM_Buffer_Reset(&APPL_USB_Rx);
 355              		.loc 1 117 13 is_stmt 1 view .LVU73
 356 002e 0448     		ldr	r0, .L14+8
 357 0030 FFF7FEFF 		bl	APPL_USB_printf
 358              	.LVL12:
 359 0034 F7E7     		b	.L10
 360              	.L15:
 361 0036 00BF     		.align	2
ARM GAS  C:\Users\minde\AppData\Local\Temp\cc7M72NL.s 			page 13


 362              	.L14:
 363 0038 00000000 		.word	.LANCHOR6
 364 003c 00000000 		.word	.LANCHOR0
 365 0040 00000000 		.word	.LC10
 366              		.cfi_endproc
 367              	.LFE293:
 369              		.section	.rodata.APPL_USB_IDN.str1.4,"aMS",%progbits,1
 370              		.align	2
 371              	.LC11:
 372 0000 5555204D 		.ascii	"UU Monitoring Version 1\015\012\000"
 372      6F6E6974 
 372      6F72696E 
 372      67205665 
 372      7273696F 
 373 001a 0000     		.align	2
 374              	.LC12:
 375 001c 4669726D 		.ascii	"Firmware Version %d\015\012\000"
 375      77617265 
 375      20566572 
 375      73696F6E 
 375      2025640D 
 376              		.section	.text.APPL_USB_IDN,"ax",%progbits
 377              		.align	1
 378              		.global	APPL_USB_IDN
 379              		.syntax unified
 380              		.thumb
 381              		.thumb_func
 383              	APPL_USB_IDN:
 384              	.LVL13:
 385              	.LFB295:
 156:../01_Applcation/Appl_USBService/Appl_USBService.c ****     APPL_USB_printf("UU Monitoring Version 1\r\n");
 386              		.loc 1 156 1 view -0
 387              		.cfi_startproc
 388              		@ args = 0, pretend = 0, frame = 0
 389              		@ frame_needed = 0, uses_anonymous_args = 0
 156:../01_Applcation/Appl_USBService/Appl_USBService.c ****     APPL_USB_printf("UU Monitoring Version 1\r\n");
 390              		.loc 1 156 1 is_stmt 0 view .LVU75
 391 0000 08B5     		push	{r3, lr}
 392              	.LCFI8:
 393              		.cfi_def_cfa_offset 8
 394              		.cfi_offset 3, -8
 395              		.cfi_offset 14, -4
 157:../01_Applcation/Appl_USBService/Appl_USBService.c ****     APPL_USB_printf("Firmware Version %d\r\n", 1);
 396              		.loc 1 157 5 is_stmt 1 view .LVU76
 397 0002 0448     		ldr	r0, .L18
 398              	.LVL14:
 157:../01_Applcation/Appl_USBService/Appl_USBService.c ****     APPL_USB_printf("Firmware Version %d\r\n", 1);
 399              		.loc 1 157 5 is_stmt 0 view .LVU77
 400 0004 FFF7FEFF 		bl	APPL_USB_printf
 401              	.LVL15:
 158:../01_Applcation/Appl_USBService/Appl_USBService.c ****     return 0;
 402              		.loc 1 158 5 is_stmt 1 view .LVU78
 403 0008 0121     		movs	r1, #1
 404 000a 0348     		ldr	r0, .L18+4
 405 000c FFF7FEFF 		bl	APPL_USB_printf
 406              	.LVL16:
 159:../01_Applcation/Appl_USBService/Appl_USBService.c **** }
ARM GAS  C:\Users\minde\AppData\Local\Temp\cc7M72NL.s 			page 14


 407              		.loc 1 159 5 view .LVU79
 160:../01_Applcation/Appl_USBService/Appl_USBService.c **** 
 408              		.loc 1 160 1 is_stmt 0 view .LVU80
 409 0010 0020     		movs	r0, #0
 410 0012 08BD     		pop	{r3, pc}
 411              	.L19:
 412              		.align	2
 413              	.L18:
 414 0014 00000000 		.word	.LC11
 415 0018 1C000000 		.word	.LC12
 416              		.cfi_endproc
 417              	.LFE295:
 419              		.section	.rodata.APPL_USB_HELP.str1.4,"aMS",%progbits,1
 420              		.align	2
 421              	.LC13:
 422 0000 436F6D6D 		.ascii	"Command\011:Description\012\015\000"
 422      616E6409 
 422      3A446573 
 422      63726970 
 422      74696F6E 
 423 0017 00       		.align	2
 424              	.LC14:
 425 0018 2573093A 		.ascii	"%s\011:%s\012\015\000"
 425      25730A0D 
 425      00
 426              		.section	.text.APPL_USB_HELP,"ax",%progbits
 427              		.align	1
 428              		.global	APPL_USB_HELP
 429              		.syntax unified
 430              		.thumb
 431              		.thumb_func
 433              	APPL_USB_HELP:
 434              	.LVL17:
 435              	.LFB296:
 173:../01_Applcation/Appl_USBService/Appl_USBService.c ****     EKM_CMD_tCmdLineEntry *psCmdEntry;
 436              		.loc 1 173 1 is_stmt 1 view -0
 437              		.cfi_startproc
 438              		@ args = 0, pretend = 0, frame = 0
 439              		@ frame_needed = 0, uses_anonymous_args = 0
 173:../01_Applcation/Appl_USBService/Appl_USBService.c ****     EKM_CMD_tCmdLineEntry *psCmdEntry;
 440              		.loc 1 173 1 is_stmt 0 view .LVU82
 441 0000 10B5     		push	{r4, lr}
 442              	.LCFI9:
 443              		.cfi_def_cfa_offset 8
 444              		.cfi_offset 4, -8
 445              		.cfi_offset 14, -4
 174:../01_Applcation/Appl_USBService/Appl_USBService.c ****     psCmdEntry = &APPL_USB_CMD_IDN;
 446              		.loc 1 174 5 is_stmt 1 view .LVU83
 175:../01_Applcation/Appl_USBService/Appl_USBService.c ****     APPL_USB_printf("Command\t:Description\n\r");
 447              		.loc 1 175 5 view .LVU84
 448              	.LVL18:
 176:../01_Applcation/Appl_USBService/Appl_USBService.c ****     while (psCmdEntry != ((void *)0))
 449              		.loc 1 176 5 view .LVU85
 450 0002 0748     		ldr	r0, .L24
 451              	.LVL19:
 176:../01_Applcation/Appl_USBService/Appl_USBService.c ****     while (psCmdEntry != ((void *)0))
 452              		.loc 1 176 5 is_stmt 0 view .LVU86
ARM GAS  C:\Users\minde\AppData\Local\Temp\cc7M72NL.s 			page 15


 453 0004 FFF7FEFF 		bl	APPL_USB_printf
 454              	.LVL20:
 177:../01_Applcation/Appl_USBService/Appl_USBService.c ****     {
 455              		.loc 1 177 5 is_stmt 1 view .LVU87
 175:../01_Applcation/Appl_USBService/Appl_USBService.c ****     APPL_USB_printf("Command\t:Description\n\r");
 456              		.loc 1 175 16 is_stmt 0 view .LVU88
 457 0008 064C     		ldr	r4, .L24+4
 177:../01_Applcation/Appl_USBService/Appl_USBService.c ****     {
 458              		.loc 1 177 11 view .LVU89
 459 000a 05E0     		b	.L21
 460              	.LVL21:
 461              	.L22:
 179:../01_Applcation/Appl_USBService/Appl_USBService.c ****         psCmdEntry = psCmdEntry->next;
 462              		.loc 1 179 9 is_stmt 1 view .LVU90
 463 000c A268     		ldr	r2, [r4, #8]
 464 000e 2168     		ldr	r1, [r4]
 465 0010 0548     		ldr	r0, .L24+8
 466 0012 FFF7FEFF 		bl	APPL_USB_printf
 467              	.LVL22:
 180:../01_Applcation/Appl_USBService/Appl_USBService.c ****     }
 468              		.loc 1 180 9 view .LVU91
 180:../01_Applcation/Appl_USBService/Appl_USBService.c ****     }
 469              		.loc 1 180 20 is_stmt 0 view .LVU92
 470 0016 E468     		ldr	r4, [r4, #12]
 471              	.LVL23:
 472              	.L21:
 177:../01_Applcation/Appl_USBService/Appl_USBService.c ****     {
 473              		.loc 1 177 11 is_stmt 1 view .LVU93
 474 0018 002C     		cmp	r4, #0
 475 001a F7D1     		bne	.L22
 182:../01_Applcation/Appl_USBService/Appl_USBService.c **** }
 476              		.loc 1 182 5 view .LVU94
 183:../01_Applcation/Appl_USBService/Appl_USBService.c **** 
 477              		.loc 1 183 1 is_stmt 0 view .LVU95
 478 001c 0020     		movs	r0, #0
 479 001e 10BD     		pop	{r4, pc}
 480              	.LVL24:
 481              	.L25:
 183:../01_Applcation/Appl_USBService/Appl_USBService.c **** 
 482              		.loc 1 183 1 view .LVU96
 483              		.align	2
 484              	.L24:
 485 0020 00000000 		.word	.LC13
 486 0024 00000000 		.word	.LANCHOR0
 487 0028 18000000 		.word	.LC14
 488              		.cfi_endproc
 489              	.LFE296:
 491              		.section	.rodata.APPL_USB_Status.str1.4,"aMS",%progbits,1
 492              		.align	2
 493              	.LC15:
 494 0000 53746174 		.ascii	"Status Report\015\012\000"
 494      75732052 
 494      65706F72 
 494      740D0A00 
 495              		.section	.text.APPL_USB_Status,"ax",%progbits
 496              		.align	1
 497              		.global	APPL_USB_Status
ARM GAS  C:\Users\minde\AppData\Local\Temp\cc7M72NL.s 			page 16


 498              		.syntax unified
 499              		.thumb
 500              		.thumb_func
 502              	APPL_USB_Status:
 503              	.LVL25:
 504              	.LFB297:
 196:../01_Applcation/Appl_USBService/Appl_USBService.c ****     APPL_USB_printf("Status Report\r\n");
 505              		.loc 1 196 1 is_stmt 1 view -0
 506              		.cfi_startproc
 507              		@ args = 0, pretend = 0, frame = 0
 508              		@ frame_needed = 0, uses_anonymous_args = 0
 196:../01_Applcation/Appl_USBService/Appl_USBService.c ****     APPL_USB_printf("Status Report\r\n");
 509              		.loc 1 196 1 is_stmt 0 view .LVU98
 510 0000 08B5     		push	{r3, lr}
 511              	.LCFI10:
 512              		.cfi_def_cfa_offset 8
 513              		.cfi_offset 3, -8
 514              		.cfi_offset 14, -4
 197:../01_Applcation/Appl_USBService/Appl_USBService.c ****     return 0;
 515              		.loc 1 197 5 is_stmt 1 view .LVU99
 516 0002 0248     		ldr	r0, .L28
 517              	.LVL26:
 197:../01_Applcation/Appl_USBService/Appl_USBService.c ****     return 0;
 518              		.loc 1 197 5 is_stmt 0 view .LVU100
 519 0004 FFF7FEFF 		bl	APPL_USB_printf
 520              	.LVL27:
 198:../01_Applcation/Appl_USBService/Appl_USBService.c **** }
 521              		.loc 1 198 5 is_stmt 1 view .LVU101
 199:../01_Applcation/Appl_USBService/Appl_USBService.c **** 
 522              		.loc 1 199 1 is_stmt 0 view .LVU102
 523 0008 0020     		movs	r0, #0
 524 000a 08BD     		pop	{r3, pc}
 525              	.L29:
 526              		.align	2
 527              	.L28:
 528 000c 00000000 		.word	.LC15
 529              		.cfi_endproc
 530              	.LFE297:
 532              		.section	.rodata.APPL_USB_Address.str1.4,"aMS",%progbits,1
 533              		.align	2
 534              	.LC16:
 535 0000 52533438 		.ascii	"RS485 Command =  %s\015\012\000"
 535      3520436F 
 535      6D6D616E 
 535      64203D20 
 535      2025730D 
 536              		.section	.text.APPL_USB_Address,"ax",%progbits
 537              		.align	1
 538              		.global	APPL_USB_Address
 539              		.syntax unified
 540              		.thumb
 541              		.thumb_func
 543              	APPL_USB_Address:
 544              	.LVL28:
 545              	.LFB298:
 212:../01_Applcation/Appl_USBService/Appl_USBService.c ****     if(argc > 1){
 546              		.loc 1 212 1 is_stmt 1 view -0
ARM GAS  C:\Users\minde\AppData\Local\Temp\cc7M72NL.s 			page 17


 547              		.cfi_startproc
 548              		@ args = 0, pretend = 0, frame = 0
 549              		@ frame_needed = 0, uses_anonymous_args = 0
 212:../01_Applcation/Appl_USBService/Appl_USBService.c ****     if(argc > 1){
 550              		.loc 1 212 1 is_stmt 0 view .LVU104
 551 0000 08B5     		push	{r3, lr}
 552              	.LCFI11:
 553              		.cfi_def_cfa_offset 8
 554              		.cfi_offset 3, -8
 555              		.cfi_offset 14, -4
 213:../01_Applcation/Appl_USBService/Appl_USBService.c ****         APPL_USB_printf("RS485 Command =  %s\r\n",argv[1]);
 556              		.loc 1 213 5 is_stmt 1 view .LVU105
 213:../01_Applcation/Appl_USBService/Appl_USBService.c ****         APPL_USB_printf("RS485 Command =  %s\r\n",argv[1]);
 557              		.loc 1 213 7 is_stmt 0 view .LVU106
 558 0002 0128     		cmp	r0, #1
 559 0004 03DC     		bgt	.L33
 560              	.LVL29:
 561              	.L31:
 216:../01_Applcation/Appl_USBService/Appl_USBService.c ****     return 0;
 562              		.loc 1 216 5 is_stmt 1 view .LVU107
 563 0006 FFF7FEFF 		bl	APPL_Data_RS485_Send
 564              	.LVL30:
 217:../01_Applcation/Appl_USBService/Appl_USBService.c **** }
 565              		.loc 1 217 5 view .LVU108
 218:../01_Applcation/Appl_USBService/Appl_USBService.c **** 
 566              		.loc 1 218 1 is_stmt 0 view .LVU109
 567 000a 0020     		movs	r0, #0
 568 000c 08BD     		pop	{r3, pc}
 569              	.LVL31:
 570              	.L33:
 214:../01_Applcation/Appl_USBService/Appl_USBService.c ****     }
 571              		.loc 1 214 9 is_stmt 1 view .LVU110
 572 000e 4968     		ldr	r1, [r1, #4]
 573              	.LVL32:
 214:../01_Applcation/Appl_USBService/Appl_USBService.c ****     }
 574              		.loc 1 214 9 is_stmt 0 view .LVU111
 575 0010 0148     		ldr	r0, .L34
 576              	.LVL33:
 214:../01_Applcation/Appl_USBService/Appl_USBService.c ****     }
 577              		.loc 1 214 9 view .LVU112
 578 0012 FFF7FEFF 		bl	APPL_USB_printf
 579              	.LVL34:
 580 0016 F6E7     		b	.L31
 581              	.L35:
 582              		.align	2
 583              	.L34:
 584 0018 00000000 		.word	.LC16
 585              		.cfi_endproc
 586              	.LFE298:
 588              		.global	APPL_USB_CMD_LTE_Send
 589              		.global	APPL_USB_CMD_Address
 590              		.global	APPL_USB_CMD_Status
 591              		.global	APPL_USB_CMD_HELP
 592              		.global	APPL_USB_CMD_IDN
 593              		.global	APPL_USB_Data
 594              		.global	APPL_USB_Rx
 595              		.section	.bss.APPL_USB_CMD_Address,"aw",%nobits
ARM GAS  C:\Users\minde\AppData\Local\Temp\cc7M72NL.s 			page 18


 596              		.align	2
 597              		.set	.LANCHOR3,. + 0
 600              	APPL_USB_CMD_Address:
 601 0000 00000000 		.space	16
 601      00000000 
 601      00000000 
 601      00000000 
 602              		.section	.bss.APPL_USB_CMD_HELP,"aw",%nobits
 603              		.align	2
 604              		.set	.LANCHOR1,. + 0
 607              	APPL_USB_CMD_HELP:
 608 0000 00000000 		.space	16
 608      00000000 
 608      00000000 
 608      00000000 
 609              		.section	.bss.APPL_USB_CMD_IDN,"aw",%nobits
 610              		.align	2
 611              		.set	.LANCHOR0,. + 0
 614              	APPL_USB_CMD_IDN:
 615 0000 00000000 		.space	16
 615      00000000 
 615      00000000 
 615      00000000 
 616              		.section	.bss.APPL_USB_CMD_LTE_Send,"aw",%nobits
 617              		.align	2
 618              		.set	.LANCHOR4,. + 0
 621              	APPL_USB_CMD_LTE_Send:
 622 0000 00000000 		.space	16
 622      00000000 
 622      00000000 
 622      00000000 
 623              		.section	.bss.APPL_USB_CMD_Status,"aw",%nobits
 624              		.align	2
 625              		.set	.LANCHOR2,. + 0
 628              	APPL_USB_CMD_Status:
 629 0000 00000000 		.space	16
 629      00000000 
 629      00000000 
 629      00000000 
 630              		.section	.bss.APPL_USB_Data,"aw",%nobits
 631              		.align	2
 632              		.set	.LANCHOR5,. + 0
 635              	APPL_USB_Data:
 636 0000 00000000 		.space	100
 636      00000000 
 636      00000000 
 636      00000000 
 636      00000000 
 637              		.section	.bss.APPL_USB_Rx,"aw",%nobits
 638              		.align	2
 639              		.set	.LANCHOR6,. + 0
 642              	APPL_USB_Rx:
 643 0000 00000000 		.space	12
 643      00000000 
 643      00000000 
 644              		.text
 645              	.Letext0:
ARM GAS  C:\Users\minde\AppData\Local\Temp\cc7M72NL.s 			page 19


 646              		.file 2 "c:\\gnuarm\\arm-none-eabi\\include\\machine\\_default_types.h"
 647              		.file 3 "c:\\gnuarm\\lib\\gcc\\arm-none-eabi\\10.3.1\\include\\stdarg.h"
 648              		.file 4 "c:\\gnuarm\\arm-none-eabi\\include\\stdio.h"
 649              		.file 5 "c:\\gnuarm\\arm-none-eabi\\include\\sys\\_stdint.h"
 650              		.file 6 "../02_OS/EKM_Buffer/EKM_Buffer.h"
 651              		.file 7 "../02_OS/EKM_CMD/EKM_CMD.h"
 652              		.file 8 "../01_Applcation/Appl_USBService/Appl_USBService.h"
 653              		.file 9 "../01_Applcation/Appl_Data/Appl_Data.h"
 654              		.file 10 "c:\\gnuarm\\arm-none-eabi\\include\\string.h"
 655              		.file 11 "../02_OS/USB_DEVICE/App/usbd_cdc_if.h"
 656              		.file 12 "../03_Drivers/STM32L4xx_HAL_Driver/Inc/stm32l4xx_hal.h"
 657              		.file 13 "<built-in>"
ARM GAS  C:\Users\minde\AppData\Local\Temp\cc7M72NL.s 			page 20

