ARM GAS  C:\Users\minde\AppData\Local\Temp\ccIwWLY5.s 			page 1


   1              		.cpu cortex-m4
   2              		.arch armv7e-m
   3              		.fpu fpv4-sp-d16
   4              		.eabi_attribute 27, 1
   5              		.eabi_attribute 28, 1
   6              		.eabi_attribute 20, 1
   7              		.eabi_attribute 21, 1
   8              		.eabi_attribute 23, 3
   9              		.eabi_attribute 24, 1
  10              		.eabi_attribute 25, 1
  11              		.eabi_attribute 26, 1
  12              		.eabi_attribute 30, 1
  13              		.eabi_attribute 34, 1
  14              		.eabi_attribute 18, 4
  15              		.file	"APPL_DMA_LTE.c"
  16              		.text
  17              	.Ltext0:
  18              		.cfi_sections	.debug_frame
  19              		.section	.text.APPL_DMA_LTE_OK,"ax",%progbits
  20              		.align	1
  21              		.global	APPL_DMA_LTE_OK
  22              		.syntax unified
  23              		.thumb
  24              		.thumb_func
  26              	APPL_DMA_LTE_OK:
  27              	.LVL0:
  28              	.LFB298:
  29              		.file 1 "../01_Applcation/APPL_DMA_LTE/APPL_DMA_LTE.c"
   1:../01_Applcation/APPL_DMA_LTE/APPL_DMA_LTE.c **** /*
   2:../01_Applcation/APPL_DMA_LTE/APPL_DMA_LTE.c ****  * APPL_DMA_LTE.c
   3:../01_Applcation/APPL_DMA_LTE/APPL_DMA_LTE.c ****  *
   4:../01_Applcation/APPL_DMA_LTE/APPL_DMA_LTE.c ****  * Created: 22/4/2022 1:46:27
   5:../01_Applcation/APPL_DMA_LTE/APPL_DMA_LTE.c ****  *  Author: Eakawit_kor
   6:../01_Applcation/APPL_DMA_LTE/APPL_DMA_LTE.c ****  */
   7:../01_Applcation/APPL_DMA_LTE/APPL_DMA_LTE.c **** 
   8:../01_Applcation/APPL_DMA_LTE/APPL_DMA_LTE.c **** #include <stdio.h>
   9:../01_Applcation/APPL_DMA_LTE/APPL_DMA_LTE.c **** #include <stdarg.h>
  10:../01_Applcation/APPL_DMA_LTE/APPL_DMA_LTE.c **** #include <stdlib.h>
  11:../01_Applcation/APPL_DMA_LTE/APPL_DMA_LTE.c **** #include <stdint.h>
  12:../01_Applcation/APPL_DMA_LTE/APPL_DMA_LTE.c **** #include <stdbool.h>
  13:../01_Applcation/APPL_DMA_LTE/APPL_DMA_LTE.c **** #include <string.h>
  14:../01_Applcation/APPL_DMA_LTE/APPL_DMA_LTE.c **** #include "main.h"
  15:../01_Applcation/APPL_DMA_LTE/APPL_DMA_LTE.c **** #include "usart.h"
  16:../01_Applcation/APPL_DMA_LTE/APPL_DMA_LTE.c **** #include "EKM_CMD.h"
  17:../01_Applcation/APPL_DMA_LTE/APPL_DMA_LTE.c **** #include "EKM_Buffer.h"
  18:../01_Applcation/APPL_DMA_LTE/APPL_DMA_LTE.c **** #include "APPL_DMA_LTE.h"
  19:../01_Applcation/APPL_DMA_LTE/APPL_DMA_LTE.c **** #include "Appl_Data.h"
  20:../01_Applcation/APPL_DMA_LTE/APPL_DMA_LTE.c **** 
  21:../01_Applcation/APPL_DMA_LTE/APPL_DMA_LTE.c **** /*******************************************************************************
  22:../01_Applcation/APPL_DMA_LTE/APPL_DMA_LTE.c ****  *
  23:../01_Applcation/APPL_DMA_LTE/APPL_DMA_LTE.c ****  * DEFINE
  24:../01_Applcation/APPL_DMA_LTE/APPL_DMA_LTE.c ****  *
  25:../01_Applcation/APPL_DMA_LTE/APPL_DMA_LTE.c ****  ******************************************************************************/
  26:../01_Applcation/APPL_DMA_LTE/APPL_DMA_LTE.c **** 
  27:../01_Applcation/APPL_DMA_LTE/APPL_DMA_LTE.c **** #define APPL_DMA_LTE_BUFFER_MAX 128
  28:../01_Applcation/APPL_DMA_LTE/APPL_DMA_LTE.c **** 
  29:../01_Applcation/APPL_DMA_LTE/APPL_DMA_LTE.c **** //! Structure for an entry in the command list table.
ARM GAS  C:\Users\minde\AppData\Local\Temp\ccIwWLY5.s 			page 2


  30:../01_Applcation/APPL_DMA_LTE/APPL_DMA_LTE.c **** 
  31:../01_Applcation/APPL_DMA_LTE/APPL_DMA_LTE.c **** //*****************************************************************************
  32:../01_Applcation/APPL_DMA_LTE/APPL_DMA_LTE.c **** 
  33:../01_Applcation/APPL_DMA_LTE/APPL_DMA_LTE.c **** // Prototypes for the APIs.
  34:../01_Applcation/APPL_DMA_LTE/APPL_DMA_LTE.c **** 
  35:../01_Applcation/APPL_DMA_LTE/APPL_DMA_LTE.c **** //*****************************************************************************
  36:../01_Applcation/APPL_DMA_LTE/APPL_DMA_LTE.c **** 
  37:../01_Applcation/APPL_DMA_LTE/APPL_DMA_LTE.c **** /*******************************************************************************
  38:../01_Applcation/APPL_DMA_LTE/APPL_DMA_LTE.c ****  *
  39:../01_Applcation/APPL_DMA_LTE/APPL_DMA_LTE.c ****  * PRIVATE VARIABLE
  40:../01_Applcation/APPL_DMA_LTE/APPL_DMA_LTE.c ****  *
  41:../01_Applcation/APPL_DMA_LTE/APPL_DMA_LTE.c ****  ******************************************************************************/
  42:../01_Applcation/APPL_DMA_LTE/APPL_DMA_LTE.c **** 
  43:../01_Applcation/APPL_DMA_LTE/APPL_DMA_LTE.c **** uint16_t APPL_DMA_LTE_SIM7000G_ErrorCount = 0;
  44:../01_Applcation/APPL_DMA_LTE/APPL_DMA_LTE.c **** uint16_t APPL_DMA_LTE_TimemerCount = 0;
  45:../01_Applcation/APPL_DMA_LTE/APPL_DMA_LTE.c **** 
  46:../01_Applcation/APPL_DMA_LTE/APPL_DMA_LTE.c **** int APPL_DMA_LTE_MQTT_ONLINE = 0;
  47:../01_Applcation/APPL_DMA_LTE/APPL_DMA_LTE.c **** 
  48:../01_Applcation/APPL_DMA_LTE/APPL_DMA_LTE.c **** uint8_t APPL_DMA_LTE_Init_Stage = 0;
  49:../01_Applcation/APPL_DMA_LTE/APPL_DMA_LTE.c **** APPL_DMA_LTE_t APPL_DMA_LTE_Step_Init[15];
  50:../01_Applcation/APPL_DMA_LTE/APPL_DMA_LTE.c **** 
  51:../01_Applcation/APPL_DMA_LTE/APPL_DMA_LTE.c **** uint8_t APPL_DMA_LTE_Buffer_d[APPL_DMA_LTE_BUFFER_MAX];
  52:../01_Applcation/APPL_DMA_LTE/APPL_DMA_LTE.c **** EKM_Buffer_t APPL_DMA_LTE_Buffer;
  53:../01_Applcation/APPL_DMA_LTE/APPL_DMA_LTE.c **** 
  54:../01_Applcation/APPL_DMA_LTE/APPL_DMA_LTE.c **** void APPL_DMA_LTE_Init(void);
  55:../01_Applcation/APPL_DMA_LTE/APPL_DMA_LTE.c **** void APPL_DMA_LTE_SIM7000G_Init(void);
  56:../01_Applcation/APPL_DMA_LTE/APPL_DMA_LTE.c **** void APPL_DMA_LTE_printf(const char *format, ...);
  57:../01_Applcation/APPL_DMA_LTE/APPL_DMA_LTE.c **** void APPL_DMA_LTE_MQTT_PUBLISH_Raw(const char *MQTT_Topic, uint8_t *data, uint8_t len);
  58:../01_Applcation/APPL_DMA_LTE/APPL_DMA_LTE.c **** void APPL_DMA_LTE_MQTT_PUBLISH(const char *MQTT_Topic, const char *format, ...);
  59:../01_Applcation/APPL_DMA_LTE/APPL_DMA_LTE.c **** void APPL_DMA_LTE_LineProcess(void);
  60:../01_Applcation/APPL_DMA_LTE/APPL_DMA_LTE.c **** void APPL_DMA_LTE_SIM7000G_Error_Handel(void);
  61:../01_Applcation/APPL_DMA_LTE/APPL_DMA_LTE.c **** 
  62:../01_Applcation/APPL_DMA_LTE/APPL_DMA_LTE.c **** EKM_CMD_tCmdLineEntry APPL_DMA_LTE_CMD_OK;
  63:../01_Applcation/APPL_DMA_LTE/APPL_DMA_LTE.c **** EKM_CMD_tCmdLineEntry APPL_DMA_LTE_CMD_Error;
  64:../01_Applcation/APPL_DMA_LTE/APPL_DMA_LTE.c **** EKM_CMD_tCmdLineEntry APPL_DMA_LTE_CMD_APP;
  65:../01_Applcation/APPL_DMA_LTE/APPL_DMA_LTE.c **** EKM_CMD_tCmdLineEntry APPL_DMA_LTE_CMD_PAPP;
  66:../01_Applcation/APPL_DMA_LTE/APPL_DMA_LTE.c **** 
  67:../01_Applcation/APPL_DMA_LTE/APPL_DMA_LTE.c **** int APPL_DMA_LTE_OK(int argc, char *argv[]);
  68:../01_Applcation/APPL_DMA_LTE/APPL_DMA_LTE.c **** int APPL_DMA_LTE_Error(int argc, char *argv[]);
  69:../01_Applcation/APPL_DMA_LTE/APPL_DMA_LTE.c **** int APPL_DMA_LTE_APP(int argc, char *argv[]);
  70:../01_Applcation/APPL_DMA_LTE/APPL_DMA_LTE.c **** 
  71:../01_Applcation/APPL_DMA_LTE/APPL_DMA_LTE.c **** /*******************************************************************************
  72:../01_Applcation/APPL_DMA_LTE/APPL_DMA_LTE.c ****  * Function: APPL_DMA_LTE_Init
  73:../01_Applcation/APPL_DMA_LTE/APPL_DMA_LTE.c ****  *
  74:../01_Applcation/APPL_DMA_LTE/APPL_DMA_LTE.c ****  * Parameters:      -
  75:../01_Applcation/APPL_DMA_LTE/APPL_DMA_LTE.c ****  * Returned value:  -
  76:../01_Applcation/APPL_DMA_LTE/APPL_DMA_LTE.c ****  *
  77:../01_Applcation/APPL_DMA_LTE/APPL_DMA_LTE.c ****  * Description:
  78:../01_Applcation/APPL_DMA_LTE/APPL_DMA_LTE.c ****  *
  79:../01_Applcation/APPL_DMA_LTE/APPL_DMA_LTE.c ****  * Calling:
  80:../01_Applcation/APPL_DMA_LTE/APPL_DMA_LTE.c ****  ******************************************************************************/
  81:../01_Applcation/APPL_DMA_LTE/APPL_DMA_LTE.c **** void APPL_DMA_LTE_Init(void)
  82:../01_Applcation/APPL_DMA_LTE/APPL_DMA_LTE.c **** {
  83:../01_Applcation/APPL_DMA_LTE/APPL_DMA_LTE.c **** 	APPL_DMA_LTE_MQTT_ONLINE = 0;
  84:../01_Applcation/APPL_DMA_LTE/APPL_DMA_LTE.c **** 	APPL_DMA_LTE_SIM7000G_ErrorCount = 0;
  85:../01_Applcation/APPL_DMA_LTE/APPL_DMA_LTE.c **** 	EKM_Buffer_Setup(&APPL_DMA_LTE_Buffer, APPL_DMA_LTE_BUFFER_MAX, APPL_DMA_LTE_Buffer_d);
  86:../01_Applcation/APPL_DMA_LTE/APPL_DMA_LTE.c **** 	EKM_Buffer_Reset(&APPL_DMA_LTE_Buffer);
ARM GAS  C:\Users\minde\AppData\Local\Temp\ccIwWLY5.s 			page 3


  87:../01_Applcation/APPL_DMA_LTE/APPL_DMA_LTE.c **** 
  88:../01_Applcation/APPL_DMA_LTE/APPL_DMA_LTE.c **** 	APPL_DMA_LTE_CMD_OK.EKM_CMD_pcCmd = "ok";
  89:../01_Applcation/APPL_DMA_LTE/APPL_DMA_LTE.c **** 	APPL_DMA_LTE_CMD_OK.EKM_CMD_pcHelp = "ok function";
  90:../01_Applcation/APPL_DMA_LTE/APPL_DMA_LTE.c **** 	APPL_DMA_LTE_CMD_OK.EKM_CMD_pfnCmd = &APPL_DMA_LTE_OK;
  91:../01_Applcation/APPL_DMA_LTE/APPL_DMA_LTE.c **** 	APPL_DMA_LTE_CMD_OK.next = (void *)0;
  92:../01_Applcation/APPL_DMA_LTE/APPL_DMA_LTE.c **** 
  93:../01_Applcation/APPL_DMA_LTE/APPL_DMA_LTE.c **** 	APPL_data.deviceID = 0;
  94:../01_Applcation/APPL_DMA_LTE/APPL_DMA_LTE.c **** 
  95:../01_Applcation/APPL_DMA_LTE/APPL_DMA_LTE.c **** 	APPL_DMA_LTE_Step_Init[0].Command = "ATE0\r\n";
  96:../01_Applcation/APPL_DMA_LTE/APPL_DMA_LTE.c **** 	APPL_DMA_LTE_Step_Init[1].Command = "AT+SMCONF=\"CLIENTID\",\"id\"\r\n";
  97:../01_Applcation/APPL_DMA_LTE/APPL_DMA_LTE.c **** 	APPL_DMA_LTE_Step_Init[2].Command = "AT+SMCONF=\"KEEPTIME\",60\r\n";
  98:../01_Applcation/APPL_DMA_LTE/APPL_DMA_LTE.c **** 	APPL_DMA_LTE_Step_Init[3].Command = "AT+SMCONF=\"URL\",\"203.151.79.149\",\"1883\"\r\n";
  99:../01_Applcation/APPL_DMA_LTE/APPL_DMA_LTE.c **** 	APPL_DMA_LTE_Step_Init[4].Command = "AT+SMCONF=\"USERNAME\",\"1111\"\r\n";
 100:../01_Applcation/APPL_DMA_LTE/APPL_DMA_LTE.c **** 	APPL_DMA_LTE_Step_Init[5].Command = "AT+SMCONF=\"PASSWORD\",\"1111\"\r\n";
 101:../01_Applcation/APPL_DMA_LTE/APPL_DMA_LTE.c **** 	APPL_DMA_LTE_Step_Init[6].Command = "AT+SMCONF=\"CLEANSS\",1\r\n";
 102:../01_Applcation/APPL_DMA_LTE/APPL_DMA_LTE.c **** 	APPL_DMA_LTE_Step_Init[7].Command = "AT+SMCONF=\"QOS\",0\r\n";
 103:../01_Applcation/APPL_DMA_LTE/APPL_DMA_LTE.c **** 	APPL_DMA_LTE_Step_Init[8].Command = "AT+SMCONF=\"RETAIN\",0\r\n";
 104:../01_Applcation/APPL_DMA_LTE/APPL_DMA_LTE.c **** 	APPL_DMA_LTE_Step_Init[9].Command = "AT+CMNB=3\r\n";
 105:../01_Applcation/APPL_DMA_LTE/APPL_DMA_LTE.c **** 	APPL_DMA_LTE_Step_Init[10].Command = "AT+CNACT=1,\"cmnet\"\r\n";
 106:../01_Applcation/APPL_DMA_LTE/APPL_DMA_LTE.c **** 
 107:../01_Applcation/APPL_DMA_LTE/APPL_DMA_LTE.c **** 	APPL_DMA_LTE_MQTT_ONLINE = 1;
 108:../01_Applcation/APPL_DMA_LTE/APPL_DMA_LTE.c **** 
 109:../01_Applcation/APPL_DMA_LTE/APPL_DMA_LTE.c **** 	for (int i = 0; i < 10; i++)
 110:../01_Applcation/APPL_DMA_LTE/APPL_DMA_LTE.c **** 	{
 111:../01_Applcation/APPL_DMA_LTE/APPL_DMA_LTE.c **** 		APPL_DMA_LTE_Step_Init[i].Return_Stage = 1;
 112:../01_Applcation/APPL_DMA_LTE/APPL_DMA_LTE.c **** 	}
 113:../01_Applcation/APPL_DMA_LTE/APPL_DMA_LTE.c **** 	APPL_DMA_LTE_Step_Init[0].Return_Stage = 2;
 114:../01_Applcation/APPL_DMA_LTE/APPL_DMA_LTE.c **** }
 115:../01_Applcation/APPL_DMA_LTE/APPL_DMA_LTE.c **** 
 116:../01_Applcation/APPL_DMA_LTE/APPL_DMA_LTE.c **** /*******************************************************************************
 117:../01_Applcation/APPL_DMA_LTE/APPL_DMA_LTE.c ****  * Function: APPL_DMA_LTE_printString
 118:../01_Applcation/APPL_DMA_LTE/APPL_DMA_LTE.c ****  *
 119:../01_Applcation/APPL_DMA_LTE/APPL_DMA_LTE.c ****  * Parameters:      -
 120:../01_Applcation/APPL_DMA_LTE/APPL_DMA_LTE.c ****  * Returned value:  -
 121:../01_Applcation/APPL_DMA_LTE/APPL_DMA_LTE.c ****  *
 122:../01_Applcation/APPL_DMA_LTE/APPL_DMA_LTE.c ****  * Description:
 123:../01_Applcation/APPL_DMA_LTE/APPL_DMA_LTE.c ****  *
 124:../01_Applcation/APPL_DMA_LTE/APPL_DMA_LTE.c ****  * Calling:
 125:../01_Applcation/APPL_DMA_LTE/APPL_DMA_LTE.c ****  ******************************************************************************/
 126:../01_Applcation/APPL_DMA_LTE/APPL_DMA_LTE.c **** /*void APPL_DMA_LTE_printString(const uint8_t myString[]) {
 127:../01_Applcation/APPL_DMA_LTE/APPL_DMA_LTE.c **** 	uint8_t i = 0;
 128:../01_Applcation/APPL_DMA_LTE/APPL_DMA_LTE.c **** 	while (myString[i]) {
 129:../01_Applcation/APPL_DMA_LTE/APPL_DMA_LTE.c **** 		while (!(REG_USART0_CSR & US_CSR_TXRDY));
 130:../01_Applcation/APPL_DMA_LTE/APPL_DMA_LTE.c **** 		while (!(REG_USART0_CSR & US_CSR_TXEMPTY));
 131:../01_Applcation/APPL_DMA_LTE/APPL_DMA_LTE.c **** 		REG_USART0_THR |=myString[i];
 132:../01_Applcation/APPL_DMA_LTE/APPL_DMA_LTE.c **** 		i++;
 133:../01_Applcation/APPL_DMA_LTE/APPL_DMA_LTE.c **** 	}
 134:../01_Applcation/APPL_DMA_LTE/APPL_DMA_LTE.c **** }
 135:../01_Applcation/APPL_DMA_LTE/APPL_DMA_LTE.c **** */
 136:../01_Applcation/APPL_DMA_LTE/APPL_DMA_LTE.c **** /*******************************************************************************
 137:../01_Applcation/APPL_DMA_LTE/APPL_DMA_LTE.c ****  * Function: APPL_DMA_LTE_printf
 138:../01_Applcation/APPL_DMA_LTE/APPL_DMA_LTE.c ****  *
 139:../01_Applcation/APPL_DMA_LTE/APPL_DMA_LTE.c ****  * Parameters:      -
 140:../01_Applcation/APPL_DMA_LTE/APPL_DMA_LTE.c ****  * Returned value:  -
 141:../01_Applcation/APPL_DMA_LTE/APPL_DMA_LTE.c ****  *
 142:../01_Applcation/APPL_DMA_LTE/APPL_DMA_LTE.c ****  * Description:
 143:../01_Applcation/APPL_DMA_LTE/APPL_DMA_LTE.c ****  *
ARM GAS  C:\Users\minde\AppData\Local\Temp\ccIwWLY5.s 			page 4


 144:../01_Applcation/APPL_DMA_LTE/APPL_DMA_LTE.c ****  * Calling:
 145:../01_Applcation/APPL_DMA_LTE/APPL_DMA_LTE.c ****  ******************************************************************************/
 146:../01_Applcation/APPL_DMA_LTE/APPL_DMA_LTE.c **** void APPL_DMA_LTE_printf(const char *format, ...)
 147:../01_Applcation/APPL_DMA_LTE/APPL_DMA_LTE.c **** {
 148:../01_Applcation/APPL_DMA_LTE/APPL_DMA_LTE.c **** 	// there was an error reading.
 149:../01_Applcation/APPL_DMA_LTE/APPL_DMA_LTE.c **** 	uint8_t SerialBuffer[255];
 150:../01_Applcation/APPL_DMA_LTE/APPL_DMA_LTE.c **** 	memset(SerialBuffer, 0, 255);
 151:../01_Applcation/APPL_DMA_LTE/APPL_DMA_LTE.c **** 	va_list args;
 152:../01_Applcation/APPL_DMA_LTE/APPL_DMA_LTE.c **** 	va_start(args, format);
 153:../01_Applcation/APPL_DMA_LTE/APPL_DMA_LTE.c **** 	vsprintf((char *)SerialBuffer, format, args);
 154:../01_Applcation/APPL_DMA_LTE/APPL_DMA_LTE.c **** 	va_end(args);
 155:../01_Applcation/APPL_DMA_LTE/APPL_DMA_LTE.c **** 	HAL_UART_Transmit(&huart1, SerialBuffer, strlen((char *)SerialBuffer), 10);
 156:../01_Applcation/APPL_DMA_LTE/APPL_DMA_LTE.c **** 	// APPL_DMA_LTE_printString(SerialBuffer);
 157:../01_Applcation/APPL_DMA_LTE/APPL_DMA_LTE.c **** }
 158:../01_Applcation/APPL_DMA_LTE/APPL_DMA_LTE.c **** 
 159:../01_Applcation/APPL_DMA_LTE/APPL_DMA_LTE.c **** /*******************************************************************************
 160:../01_Applcation/APPL_DMA_LTE/APPL_DMA_LTE.c ****  * Function: APPL_DMA_LTE_MQTT_PUBLISH
 161:../01_Applcation/APPL_DMA_LTE/APPL_DMA_LTE.c ****  *
 162:../01_Applcation/APPL_DMA_LTE/APPL_DMA_LTE.c ****  * Parameters:      -
 163:../01_Applcation/APPL_DMA_LTE/APPL_DMA_LTE.c ****  * Returned value:  -
 164:../01_Applcation/APPL_DMA_LTE/APPL_DMA_LTE.c ****  *
 165:../01_Applcation/APPL_DMA_LTE/APPL_DMA_LTE.c ****  * Description:
 166:../01_Applcation/APPL_DMA_LTE/APPL_DMA_LTE.c ****  *
 167:../01_Applcation/APPL_DMA_LTE/APPL_DMA_LTE.c ****  * Calling:
 168:../01_Applcation/APPL_DMA_LTE/APPL_DMA_LTE.c ****  ******************************************************************************/
 169:../01_Applcation/APPL_DMA_LTE/APPL_DMA_LTE.c **** void APPL_DMA_LTE_MQTT_PUBLISH(const char *MQTT_Topic, const char *format, ...)
 170:../01_Applcation/APPL_DMA_LTE/APPL_DMA_LTE.c **** {
 171:../01_Applcation/APPL_DMA_LTE/APPL_DMA_LTE.c **** 	if (APPL_DMA_LTE_MQTT_ONLINE == 1)
 172:../01_Applcation/APPL_DMA_LTE/APPL_DMA_LTE.c **** 	{
 173:../01_Applcation/APPL_DMA_LTE/APPL_DMA_LTE.c **** 		// there was an error reading.
 174:../01_Applcation/APPL_DMA_LTE/APPL_DMA_LTE.c **** 		uint8_t SerialBuffer[255];
 175:../01_Applcation/APPL_DMA_LTE/APPL_DMA_LTE.c **** 		memset(SerialBuffer, 0, 255);
 176:../01_Applcation/APPL_DMA_LTE/APPL_DMA_LTE.c **** 		va_list args;
 177:../01_Applcation/APPL_DMA_LTE/APPL_DMA_LTE.c **** 		va_start(args, format);
 178:../01_Applcation/APPL_DMA_LTE/APPL_DMA_LTE.c **** 		vsprintf((char *)SerialBuffer, format, args);
 179:../01_Applcation/APPL_DMA_LTE/APPL_DMA_LTE.c **** 		va_end(args);
 180:../01_Applcation/APPL_DMA_LTE/APPL_DMA_LTE.c **** 		APPL_DMA_LTE_printf("AT+SMPUB=\"UUMON/%d/%s\",%d,0,0\r\n", APPL_data.deviceID, MQTT_Topic, strlen
 181:../01_Applcation/APPL_DMA_LTE/APPL_DMA_LTE.c **** 		APPL_DMA_LTE_printf("%s\r\n", SerialBuffer);
 182:../01_Applcation/APPL_DMA_LTE/APPL_DMA_LTE.c **** 	}
 183:../01_Applcation/APPL_DMA_LTE/APPL_DMA_LTE.c **** }
 184:../01_Applcation/APPL_DMA_LTE/APPL_DMA_LTE.c **** 
 185:../01_Applcation/APPL_DMA_LTE/APPL_DMA_LTE.c **** /*******************************************************************************
 186:../01_Applcation/APPL_DMA_LTE/APPL_DMA_LTE.c ****  * Function: APPL_DMA_LTE_MQTT_PUBLISH_Raw
 187:../01_Applcation/APPL_DMA_LTE/APPL_DMA_LTE.c ****  *
 188:../01_Applcation/APPL_DMA_LTE/APPL_DMA_LTE.c ****  * Parameters:      -
 189:../01_Applcation/APPL_DMA_LTE/APPL_DMA_LTE.c ****  * Returned value:  -
 190:../01_Applcation/APPL_DMA_LTE/APPL_DMA_LTE.c ****  *
 191:../01_Applcation/APPL_DMA_LTE/APPL_DMA_LTE.c ****  * Description:
 192:../01_Applcation/APPL_DMA_LTE/APPL_DMA_LTE.c ****  *
 193:../01_Applcation/APPL_DMA_LTE/APPL_DMA_LTE.c ****  * Calling:
 194:../01_Applcation/APPL_DMA_LTE/APPL_DMA_LTE.c ****  ******************************************************************************/
 195:../01_Applcation/APPL_DMA_LTE/APPL_DMA_LTE.c **** void APPL_DMA_LTE_MQTT_PUBLISH_Raw(const char *MQTT_Topic, uint8_t *data, uint8_t len)
 196:../01_Applcation/APPL_DMA_LTE/APPL_DMA_LTE.c **** {
 197:../01_Applcation/APPL_DMA_LTE/APPL_DMA_LTE.c **** 	if (APPL_DMA_LTE_MQTT_ONLINE == 1)
 198:../01_Applcation/APPL_DMA_LTE/APPL_DMA_LTE.c **** 	{
 199:../01_Applcation/APPL_DMA_LTE/APPL_DMA_LTE.c **** 		// there was an error reading.
 200:../01_Applcation/APPL_DMA_LTE/APPL_DMA_LTE.c **** 		APPL_DMA_LTE_printf("AT+SMPUB=\"UUMON/%d/%s\",%d,0,0\r\n", 
ARM GAS  C:\Users\minde\AppData\Local\Temp\ccIwWLY5.s 			page 5


 201:../01_Applcation/APPL_DMA_LTE/APPL_DMA_LTE.c **** 							APPL_data.deviceID,
 202:../01_Applcation/APPL_DMA_LTE/APPL_DMA_LTE.c **** 							MQTT_Topic,
 203:../01_Applcation/APPL_DMA_LTE/APPL_DMA_LTE.c **** 							(3 * len) + 2);
 204:../01_Applcation/APPL_DMA_LTE/APPL_DMA_LTE.c **** 		for (int i = 0; i < len; i++)
 205:../01_Applcation/APPL_DMA_LTE/APPL_DMA_LTE.c **** 		{
 206:../01_Applcation/APPL_DMA_LTE/APPL_DMA_LTE.c **** 			APPL_DMA_LTE_printf("%02x ", data[i]);
 207:../01_Applcation/APPL_DMA_LTE/APPL_DMA_LTE.c **** 		}
 208:../01_Applcation/APPL_DMA_LTE/APPL_DMA_LTE.c **** 		APPL_DMA_LTE_printf("\r\n");
 209:../01_Applcation/APPL_DMA_LTE/APPL_DMA_LTE.c **** 	}
 210:../01_Applcation/APPL_DMA_LTE/APPL_DMA_LTE.c **** }
 211:../01_Applcation/APPL_DMA_LTE/APPL_DMA_LTE.c **** 
 212:../01_Applcation/APPL_DMA_LTE/APPL_DMA_LTE.c **** /*******************************************************************************
 213:../01_Applcation/APPL_DMA_LTE/APPL_DMA_LTE.c ****  * Function: APPL_DMA_LTE_SIM7000G_Init
 214:../01_Applcation/APPL_DMA_LTE/APPL_DMA_LTE.c ****  *
 215:../01_Applcation/APPL_DMA_LTE/APPL_DMA_LTE.c ****  * Parameters:      -
 216:../01_Applcation/APPL_DMA_LTE/APPL_DMA_LTE.c ****  * Returned value:  -
 217:../01_Applcation/APPL_DMA_LTE/APPL_DMA_LTE.c ****  *
 218:../01_Applcation/APPL_DMA_LTE/APPL_DMA_LTE.c ****  * Description:
 219:../01_Applcation/APPL_DMA_LTE/APPL_DMA_LTE.c ****  *
 220:../01_Applcation/APPL_DMA_LTE/APPL_DMA_LTE.c ****  * Calling:
 221:../01_Applcation/APPL_DMA_LTE/APPL_DMA_LTE.c ****  ******************************************************************************/
 222:../01_Applcation/APPL_DMA_LTE/APPL_DMA_LTE.c **** void APPL_DMA_LTE_SIM7000G_Init(void)
 223:../01_Applcation/APPL_DMA_LTE/APPL_DMA_LTE.c **** {
 224:../01_Applcation/APPL_DMA_LTE/APPL_DMA_LTE.c **** 	if (APPL_DMA_LTE_Step_Init[APPL_DMA_LTE_Init_Stage].Return_Stage == 0)
 225:../01_Applcation/APPL_DMA_LTE/APPL_DMA_LTE.c **** 	{
 226:../01_Applcation/APPL_DMA_LTE/APPL_DMA_LTE.c **** 		APPL_DMA_LTE_Init_Stage++;
 227:../01_Applcation/APPL_DMA_LTE/APPL_DMA_LTE.c **** 	}
 228:../01_Applcation/APPL_DMA_LTE/APPL_DMA_LTE.c **** 	if (APPL_DMA_LTE_Init_Stage < 15)
 229:../01_Applcation/APPL_DMA_LTE/APPL_DMA_LTE.c **** 	{
 230:../01_Applcation/APPL_DMA_LTE/APPL_DMA_LTE.c **** 		APPL_DMA_LTE_printf("%s", APPL_DMA_LTE_Step_Init[APPL_DMA_LTE_Init_Stage].Command);
 231:../01_Applcation/APPL_DMA_LTE/APPL_DMA_LTE.c **** 	}
 232:../01_Applcation/APPL_DMA_LTE/APPL_DMA_LTE.c **** }
 233:../01_Applcation/APPL_DMA_LTE/APPL_DMA_LTE.c **** 
 234:../01_Applcation/APPL_DMA_LTE/APPL_DMA_LTE.c **** /*******************************************************************************
 235:../01_Applcation/APPL_DMA_LTE/APPL_DMA_LTE.c ****  * Function: APPL_DMA_LTE_SIM7000G_Error_Handel
 236:../01_Applcation/APPL_DMA_LTE/APPL_DMA_LTE.c ****  *
 237:../01_Applcation/APPL_DMA_LTE/APPL_DMA_LTE.c ****  * Parameters:      -
 238:../01_Applcation/APPL_DMA_LTE/APPL_DMA_LTE.c ****  * Returned value:  -
 239:../01_Applcation/APPL_DMA_LTE/APPL_DMA_LTE.c ****  *
 240:../01_Applcation/APPL_DMA_LTE/APPL_DMA_LTE.c ****  * Description:
 241:../01_Applcation/APPL_DMA_LTE/APPL_DMA_LTE.c ****  *
 242:../01_Applcation/APPL_DMA_LTE/APPL_DMA_LTE.c ****  * Calling:
 243:../01_Applcation/APPL_DMA_LTE/APPL_DMA_LTE.c ****  ******************************************************************************/
 244:../01_Applcation/APPL_DMA_LTE/APPL_DMA_LTE.c **** void APPL_DMA_LTE_SIM7000G_Error_Handel(void)
 245:../01_Applcation/APPL_DMA_LTE/APPL_DMA_LTE.c **** {
 246:../01_Applcation/APPL_DMA_LTE/APPL_DMA_LTE.c **** }
 247:../01_Applcation/APPL_DMA_LTE/APPL_DMA_LTE.c **** 
 248:../01_Applcation/APPL_DMA_LTE/APPL_DMA_LTE.c **** /*******************************************************************************
 249:../01_Applcation/APPL_DMA_LTE/APPL_DMA_LTE.c ****  * Function: APPL_DMA_LTE_LineProcess
 250:../01_Applcation/APPL_DMA_LTE/APPL_DMA_LTE.c ****  *
 251:../01_Applcation/APPL_DMA_LTE/APPL_DMA_LTE.c ****  * Parameters:      -
 252:../01_Applcation/APPL_DMA_LTE/APPL_DMA_LTE.c ****  * Returned value:  -
 253:../01_Applcation/APPL_DMA_LTE/APPL_DMA_LTE.c ****  *
 254:../01_Applcation/APPL_DMA_LTE/APPL_DMA_LTE.c ****  * Description:
 255:../01_Applcation/APPL_DMA_LTE/APPL_DMA_LTE.c ****  *
 256:../01_Applcation/APPL_DMA_LTE/APPL_DMA_LTE.c ****  * Calling:
 257:../01_Applcation/APPL_DMA_LTE/APPL_DMA_LTE.c ****  ******************************************************************************/
ARM GAS  C:\Users\minde\AppData\Local\Temp\ccIwWLY5.s 			page 6


 258:../01_Applcation/APPL_DMA_LTE/APPL_DMA_LTE.c **** void APPL_DMA_LTE_LineProcess(void)
 259:../01_Applcation/APPL_DMA_LTE/APPL_DMA_LTE.c **** {
 260:../01_Applcation/APPL_DMA_LTE/APPL_DMA_LTE.c **** 	// APPL_DMA_LTE_printf("Command = %s", APPL_DMA_RS48_Rx.buffer);
 261:../01_Applcation/APPL_DMA_LTE/APPL_DMA_LTE.c **** 	if (EKM_CMD_RXPeek(APPL_DMA_LTE_Buffer.buffer, 0x0A, APPL_DMA_LTE_Buffer.write) > 0)
 262:../01_Applcation/APPL_DMA_LTE/APPL_DMA_LTE.c **** 	{
 263:../01_Applcation/APPL_DMA_LTE/APPL_DMA_LTE.c **** 		// APPL_DMA_RS485_printf("Command = %s", APPL_DMA_LTE_Buffer.buffer);
 264:../01_Applcation/APPL_DMA_LTE/APPL_DMA_LTE.c **** 		if (EKM_CMD_LineProcess((char *)APPL_DMA_LTE_Buffer.buffer, &APPL_DMA_LTE_CMD_OK, ' ') == EKM_CMD
 265:../01_Applcation/APPL_DMA_LTE/APPL_DMA_LTE.c **** 			// APPL_DMA_LTE_printf("Command not found");
 266:../01_Applcation/APPL_DMA_LTE/APPL_DMA_LTE.c **** 			EKM_Buffer_Reset(&APPL_DMA_LTE_Buffer);
 267:../01_Applcation/APPL_DMA_LTE/APPL_DMA_LTE.c **** 	}
 268:../01_Applcation/APPL_DMA_LTE/APPL_DMA_LTE.c **** }
 269:../01_Applcation/APPL_DMA_LTE/APPL_DMA_LTE.c **** 
 270:../01_Applcation/APPL_DMA_LTE/APPL_DMA_LTE.c **** /*******************************************************************************
 271:../01_Applcation/APPL_DMA_LTE/APPL_DMA_LTE.c ****  * Function: APPL_DMA_LTE_OK
 272:../01_Applcation/APPL_DMA_LTE/APPL_DMA_LTE.c ****  *
 273:../01_Applcation/APPL_DMA_LTE/APPL_DMA_LTE.c ****  * Parameters:      -
 274:../01_Applcation/APPL_DMA_LTE/APPL_DMA_LTE.c ****  * Returned value:  -
 275:../01_Applcation/APPL_DMA_LTE/APPL_DMA_LTE.c ****  *
 276:../01_Applcation/APPL_DMA_LTE/APPL_DMA_LTE.c ****  * Description:
 277:../01_Applcation/APPL_DMA_LTE/APPL_DMA_LTE.c ****  *
 278:../01_Applcation/APPL_DMA_LTE/APPL_DMA_LTE.c ****  * Calling:
 279:../01_Applcation/APPL_DMA_LTE/APPL_DMA_LTE.c ****  ******************************************************************************/
 280:../01_Applcation/APPL_DMA_LTE/APPL_DMA_LTE.c **** int APPL_DMA_LTE_OK(int argc, char *argv[])
 281:../01_Applcation/APPL_DMA_LTE/APPL_DMA_LTE.c **** {
  30              		.loc 1 281 1 view -0
  31              		.cfi_startproc
  32              		@ args = 0, pretend = 0, frame = 0
  33              		@ frame_needed = 0, uses_anonymous_args = 0
  34              		@ link register save eliminated.
 282:../01_Applcation/APPL_DMA_LTE/APPL_DMA_LTE.c **** 	APPL_DMA_LTE_Step_Init[APPL_DMA_LTE_Init_Stage].Return_Stage = 0;
  35              		.loc 1 282 2 view .LVU1
  36              		.loc 1 282 49 is_stmt 0 view .LVU2
  37 0000 034B     		ldr	r3, .L2
  38 0002 1A78     		ldrb	r2, [r3]	@ zero_extendqisi2
  39              		.loc 1 282 63 view .LVU3
  40 0004 034B     		ldr	r3, .L2+4
  41 0006 03EBC203 		add	r3, r3, r2, lsl #3
  42 000a 0020     		movs	r0, #0
  43              	.LVL1:
  44              		.loc 1 282 63 view .LVU4
  45 000c 1871     		strb	r0, [r3, #4]
 283:../01_Applcation/APPL_DMA_LTE/APPL_DMA_LTE.c **** 	return 0;
  46              		.loc 1 283 2 is_stmt 1 view .LVU5
 284:../01_Applcation/APPL_DMA_LTE/APPL_DMA_LTE.c **** }
  47              		.loc 1 284 1 is_stmt 0 view .LVU6
  48 000e 7047     		bx	lr
  49              	.L3:
  50              		.align	2
  51              	.L2:
  52 0010 00000000 		.word	.LANCHOR0
  53 0014 00000000 		.word	.LANCHOR1
  54              		.cfi_endproc
  55              	.LFE298:
  57              		.section	.rodata.APPL_DMA_LTE_Init.str1.4,"aMS",%progbits,1
  58              		.align	2
  59              	.LC0:
  60 0000 6F6B00   		.ascii	"ok\000"
ARM GAS  C:\Users\minde\AppData\Local\Temp\ccIwWLY5.s 			page 7


  61 0003 00       		.align	2
  62              	.LC1:
  63 0004 6F6B2066 		.ascii	"ok function\000"
  63      756E6374 
  63      696F6E00 
  64              		.align	2
  65              	.LC2:
  66 0010 41544530 		.ascii	"ATE0\015\012\000"
  66      0D0A00
  67 0017 00       		.align	2
  68              	.LC3:
  69 0018 41542B53 		.ascii	"AT+SMCONF=\"CLIENTID\",\"id\"\015\012\000"
  69      4D434F4E 
  69      463D2243 
  69      4C49454E 
  69      54494422 
  70              		.align	2
  71              	.LC4:
  72 0034 41542B53 		.ascii	"AT+SMCONF=\"KEEPTIME\",60\015\012\000"
  72      4D434F4E 
  72      463D224B 
  72      45455054 
  72      494D4522 
  73 004e 0000     		.align	2
  74              	.LC5:
  75 0050 41542B53 		.ascii	"AT+SMCONF=\"URL\",\"203.151.79.149\",\"1883\"\015\012"
  75      4D434F4E 
  75      463D2255 
  75      524C222C 
  75      22323033 
  76 0079 00       		.ascii	"\000"
  77 007a 0000     		.align	2
  78              	.LC6:
  79 007c 41542B53 		.ascii	"AT+SMCONF=\"USERNAME\",\"1111\"\015\012\000"
  79      4D434F4E 
  79      463D2255 
  79      5345524E 
  79      414D4522 
  80 009a 0000     		.align	2
  81              	.LC7:
  82 009c 41542B53 		.ascii	"AT+SMCONF=\"PASSWORD\",\"1111\"\015\012\000"
  82      4D434F4E 
  82      463D2250 
  82      41535357 
  82      4F524422 
  83 00ba 0000     		.align	2
  84              	.LC8:
  85 00bc 41542B53 		.ascii	"AT+SMCONF=\"CLEANSS\",1\015\012\000"
  85      4D434F4E 
  85      463D2243 
  85      4C45414E 
  85      5353222C 
  86              		.align	2
  87              	.LC9:
  88 00d4 41542B53 		.ascii	"AT+SMCONF=\"QOS\",0\015\012\000"
  88      4D434F4E 
  88      463D2251 
ARM GAS  C:\Users\minde\AppData\Local\Temp\ccIwWLY5.s 			page 8


  88      4F53222C 
  88      300D0A00 
  89              		.align	2
  90              	.LC10:
  91 00e8 41542B53 		.ascii	"AT+SMCONF=\"RETAIN\",0\015\012\000"
  91      4D434F4E 
  91      463D2252 
  91      45544149 
  91      4E222C30 
  92 00ff 00       		.align	2
  93              	.LC11:
  94 0100 41542B43 		.ascii	"AT+CMNB=3\015\012\000"
  94      4D4E423D 
  94      330D0A00 
  95              		.align	2
  96              	.LC12:
  97 010c 41542B43 		.ascii	"AT+CNACT=1,\"cmnet\"\015\012\000"
  97      4E414354 
  97      3D312C22 
  97      636D6E65 
  97      74220D0A 
  98              		.section	.text.APPL_DMA_LTE_Init,"ax",%progbits
  99              		.align	1
 100              		.global	APPL_DMA_LTE_Init
 101              		.syntax unified
 102              		.thumb
 103              		.thumb_func
 105              	APPL_DMA_LTE_Init:
 106              	.LFB291:
  82:../01_Applcation/APPL_DMA_LTE/APPL_DMA_LTE.c **** 	APPL_DMA_LTE_MQTT_ONLINE = 0;
 107              		.loc 1 82 1 is_stmt 1 view -0
 108              		.cfi_startproc
 109              		@ args = 0, pretend = 0, frame = 0
 110              		@ frame_needed = 0, uses_anonymous_args = 0
 111 0000 70B5     		push	{r4, r5, r6, lr}
 112              	.LCFI0:
 113              		.cfi_def_cfa_offset 16
 114              		.cfi_offset 4, -16
 115              		.cfi_offset 5, -12
 116              		.cfi_offset 6, -8
 117              		.cfi_offset 14, -4
  83:../01_Applcation/APPL_DMA_LTE/APPL_DMA_LTE.c **** 	APPL_DMA_LTE_SIM7000G_ErrorCount = 0;
 118              		.loc 1 83 2 view .LVU8
  83:../01_Applcation/APPL_DMA_LTE/APPL_DMA_LTE.c **** 	APPL_DMA_LTE_SIM7000G_ErrorCount = 0;
 119              		.loc 1 83 27 is_stmt 0 view .LVU9
 120 0002 1F4D     		ldr	r5, .L8
 121 0004 0024     		movs	r4, #0
 122 0006 2C60     		str	r4, [r5]
  84:../01_Applcation/APPL_DMA_LTE/APPL_DMA_LTE.c **** 	EKM_Buffer_Setup(&APPL_DMA_LTE_Buffer, APPL_DMA_LTE_BUFFER_MAX, APPL_DMA_LTE_Buffer_d);
 123              		.loc 1 84 2 is_stmt 1 view .LVU10
  84:../01_Applcation/APPL_DMA_LTE/APPL_DMA_LTE.c **** 	EKM_Buffer_Setup(&APPL_DMA_LTE_Buffer, APPL_DMA_LTE_BUFFER_MAX, APPL_DMA_LTE_Buffer_d);
 124              		.loc 1 84 35 is_stmt 0 view .LVU11
 125 0008 1E4B     		ldr	r3, .L8+4
 126 000a 1C80     		strh	r4, [r3]	@ movhi
  85:../01_Applcation/APPL_DMA_LTE/APPL_DMA_LTE.c **** 	EKM_Buffer_Reset(&APPL_DMA_LTE_Buffer);
 127              		.loc 1 85 2 is_stmt 1 view .LVU12
 128 000c 1E4E     		ldr	r6, .L8+8
ARM GAS  C:\Users\minde\AppData\Local\Temp\ccIwWLY5.s 			page 9


 129 000e 1F4A     		ldr	r2, .L8+12
 130 0010 8021     		movs	r1, #128
 131 0012 3046     		mov	r0, r6
 132 0014 FFF7FEFF 		bl	EKM_Buffer_Setup
 133              	.LVL2:
  86:../01_Applcation/APPL_DMA_LTE/APPL_DMA_LTE.c **** 
 134              		.loc 1 86 2 view .LVU13
 135 0018 3046     		mov	r0, r6
 136 001a FFF7FEFF 		bl	EKM_Buffer_Reset
 137              	.LVL3:
  88:../01_Applcation/APPL_DMA_LTE/APPL_DMA_LTE.c **** 	APPL_DMA_LTE_CMD_OK.EKM_CMD_pcHelp = "ok function";
 138              		.loc 1 88 2 view .LVU14
  88:../01_Applcation/APPL_DMA_LTE/APPL_DMA_LTE.c **** 	APPL_DMA_LTE_CMD_OK.EKM_CMD_pcHelp = "ok function";
 139              		.loc 1 88 36 is_stmt 0 view .LVU15
 140 001e 1C4B     		ldr	r3, .L8+16
 141 0020 1C4A     		ldr	r2, .L8+20
 142 0022 1A60     		str	r2, [r3]
  89:../01_Applcation/APPL_DMA_LTE/APPL_DMA_LTE.c **** 	APPL_DMA_LTE_CMD_OK.EKM_CMD_pfnCmd = &APPL_DMA_LTE_OK;
 143              		.loc 1 89 2 is_stmt 1 view .LVU16
  89:../01_Applcation/APPL_DMA_LTE/APPL_DMA_LTE.c **** 	APPL_DMA_LTE_CMD_OK.EKM_CMD_pfnCmd = &APPL_DMA_LTE_OK;
 144              		.loc 1 89 37 is_stmt 0 view .LVU17
 145 0024 1C4A     		ldr	r2, .L8+24
 146 0026 9A60     		str	r2, [r3, #8]
  90:../01_Applcation/APPL_DMA_LTE/APPL_DMA_LTE.c **** 	APPL_DMA_LTE_CMD_OK.next = (void *)0;
 147              		.loc 1 90 2 is_stmt 1 view .LVU18
  90:../01_Applcation/APPL_DMA_LTE/APPL_DMA_LTE.c **** 	APPL_DMA_LTE_CMD_OK.next = (void *)0;
 148              		.loc 1 90 37 is_stmt 0 view .LVU19
 149 0028 1C4A     		ldr	r2, .L8+28
 150 002a 5A60     		str	r2, [r3, #4]
  91:../01_Applcation/APPL_DMA_LTE/APPL_DMA_LTE.c **** 
 151              		.loc 1 91 2 is_stmt 1 view .LVU20
  91:../01_Applcation/APPL_DMA_LTE/APPL_DMA_LTE.c **** 
 152              		.loc 1 91 27 is_stmt 0 view .LVU21
 153 002c DC60     		str	r4, [r3, #12]
  93:../01_Applcation/APPL_DMA_LTE/APPL_DMA_LTE.c **** 
 154              		.loc 1 93 2 is_stmt 1 view .LVU22
  93:../01_Applcation/APPL_DMA_LTE/APPL_DMA_LTE.c **** 
 155              		.loc 1 93 21 is_stmt 0 view .LVU23
 156 002e 1C4B     		ldr	r3, .L8+32
 157 0030 5C80     		strh	r4, [r3, #2]	@ movhi
  95:../01_Applcation/APPL_DMA_LTE/APPL_DMA_LTE.c **** 	APPL_DMA_LTE_Step_Init[1].Command = "AT+SMCONF=\"CLIENTID\",\"id\"\r\n";
 158              		.loc 1 95 2 is_stmt 1 view .LVU24
  95:../01_Applcation/APPL_DMA_LTE/APPL_DMA_LTE.c **** 	APPL_DMA_LTE_Step_Init[1].Command = "AT+SMCONF=\"CLIENTID\",\"id\"\r\n";
 159              		.loc 1 95 36 is_stmt 0 view .LVU25
 160 0032 1C4B     		ldr	r3, .L8+36
 161 0034 1C4A     		ldr	r2, .L8+40
 162 0036 1A60     		str	r2, [r3]
  96:../01_Applcation/APPL_DMA_LTE/APPL_DMA_LTE.c **** 	APPL_DMA_LTE_Step_Init[2].Command = "AT+SMCONF=\"KEEPTIME\",60\r\n";
 163              		.loc 1 96 2 is_stmt 1 view .LVU26
  96:../01_Applcation/APPL_DMA_LTE/APPL_DMA_LTE.c **** 	APPL_DMA_LTE_Step_Init[2].Command = "AT+SMCONF=\"KEEPTIME\",60\r\n";
 164              		.loc 1 96 36 is_stmt 0 view .LVU27
 165 0038 1C4A     		ldr	r2, .L8+44
 166 003a 9A60     		str	r2, [r3, #8]
  97:../01_Applcation/APPL_DMA_LTE/APPL_DMA_LTE.c **** 	APPL_DMA_LTE_Step_Init[3].Command = "AT+SMCONF=\"URL\",\"203.151.79.149\",\"1883\"\r\n";
 167              		.loc 1 97 2 is_stmt 1 view .LVU28
  97:../01_Applcation/APPL_DMA_LTE/APPL_DMA_LTE.c **** 	APPL_DMA_LTE_Step_Init[3].Command = "AT+SMCONF=\"URL\",\"203.151.79.149\",\"1883\"\r\n";
 168              		.loc 1 97 36 is_stmt 0 view .LVU29
ARM GAS  C:\Users\minde\AppData\Local\Temp\ccIwWLY5.s 			page 10


 169 003c 1C4A     		ldr	r2, .L8+48
 170 003e 1A61     		str	r2, [r3, #16]
  98:../01_Applcation/APPL_DMA_LTE/APPL_DMA_LTE.c **** 	APPL_DMA_LTE_Step_Init[4].Command = "AT+SMCONF=\"USERNAME\",\"1111\"\r\n";
 171              		.loc 1 98 2 is_stmt 1 view .LVU30
  98:../01_Applcation/APPL_DMA_LTE/APPL_DMA_LTE.c **** 	APPL_DMA_LTE_Step_Init[4].Command = "AT+SMCONF=\"USERNAME\",\"1111\"\r\n";
 172              		.loc 1 98 36 is_stmt 0 view .LVU31
 173 0040 1C4A     		ldr	r2, .L8+52
 174 0042 9A61     		str	r2, [r3, #24]
  99:../01_Applcation/APPL_DMA_LTE/APPL_DMA_LTE.c **** 	APPL_DMA_LTE_Step_Init[5].Command = "AT+SMCONF=\"PASSWORD\",\"1111\"\r\n";
 175              		.loc 1 99 2 is_stmt 1 view .LVU32
  99:../01_Applcation/APPL_DMA_LTE/APPL_DMA_LTE.c **** 	APPL_DMA_LTE_Step_Init[5].Command = "AT+SMCONF=\"PASSWORD\",\"1111\"\r\n";
 176              		.loc 1 99 36 is_stmt 0 view .LVU33
 177 0044 1C4A     		ldr	r2, .L8+56
 178 0046 1A62     		str	r2, [r3, #32]
 100:../01_Applcation/APPL_DMA_LTE/APPL_DMA_LTE.c **** 	APPL_DMA_LTE_Step_Init[6].Command = "AT+SMCONF=\"CLEANSS\",1\r\n";
 179              		.loc 1 100 2 is_stmt 1 view .LVU34
 100:../01_Applcation/APPL_DMA_LTE/APPL_DMA_LTE.c **** 	APPL_DMA_LTE_Step_Init[6].Command = "AT+SMCONF=\"CLEANSS\",1\r\n";
 180              		.loc 1 100 36 is_stmt 0 view .LVU35
 181 0048 1C4A     		ldr	r2, .L8+60
 182 004a 9A62     		str	r2, [r3, #40]
 101:../01_Applcation/APPL_DMA_LTE/APPL_DMA_LTE.c **** 	APPL_DMA_LTE_Step_Init[7].Command = "AT+SMCONF=\"QOS\",0\r\n";
 183              		.loc 1 101 2 is_stmt 1 view .LVU36
 101:../01_Applcation/APPL_DMA_LTE/APPL_DMA_LTE.c **** 	APPL_DMA_LTE_Step_Init[7].Command = "AT+SMCONF=\"QOS\",0\r\n";
 184              		.loc 1 101 36 is_stmt 0 view .LVU37
 185 004c 1C4A     		ldr	r2, .L8+64
 186 004e 1A63     		str	r2, [r3, #48]
 102:../01_Applcation/APPL_DMA_LTE/APPL_DMA_LTE.c **** 	APPL_DMA_LTE_Step_Init[8].Command = "AT+SMCONF=\"RETAIN\",0\r\n";
 187              		.loc 1 102 2 is_stmt 1 view .LVU38
 102:../01_Applcation/APPL_DMA_LTE/APPL_DMA_LTE.c **** 	APPL_DMA_LTE_Step_Init[8].Command = "AT+SMCONF=\"RETAIN\",0\r\n";
 188              		.loc 1 102 36 is_stmt 0 view .LVU39
 189 0050 1C4A     		ldr	r2, .L8+68
 190 0052 9A63     		str	r2, [r3, #56]
 103:../01_Applcation/APPL_DMA_LTE/APPL_DMA_LTE.c **** 	APPL_DMA_LTE_Step_Init[9].Command = "AT+CMNB=3\r\n";
 191              		.loc 1 103 2 is_stmt 1 view .LVU40
 103:../01_Applcation/APPL_DMA_LTE/APPL_DMA_LTE.c **** 	APPL_DMA_LTE_Step_Init[9].Command = "AT+CMNB=3\r\n";
 192              		.loc 1 103 36 is_stmt 0 view .LVU41
 193 0054 1C4A     		ldr	r2, .L8+72
 194 0056 1A64     		str	r2, [r3, #64]
 104:../01_Applcation/APPL_DMA_LTE/APPL_DMA_LTE.c **** 	APPL_DMA_LTE_Step_Init[10].Command = "AT+CNACT=1,\"cmnet\"\r\n";
 195              		.loc 1 104 2 is_stmt 1 view .LVU42
 104:../01_Applcation/APPL_DMA_LTE/APPL_DMA_LTE.c **** 	APPL_DMA_LTE_Step_Init[10].Command = "AT+CNACT=1,\"cmnet\"\r\n";
 196              		.loc 1 104 36 is_stmt 0 view .LVU43
 197 0058 1C4A     		ldr	r2, .L8+76
 198 005a 9A64     		str	r2, [r3, #72]
 105:../01_Applcation/APPL_DMA_LTE/APPL_DMA_LTE.c **** 
 199              		.loc 1 105 2 is_stmt 1 view .LVU44
 105:../01_Applcation/APPL_DMA_LTE/APPL_DMA_LTE.c **** 
 200              		.loc 1 105 37 is_stmt 0 view .LVU45
 201 005c 1C4A     		ldr	r2, .L8+80
 202 005e 1A65     		str	r2, [r3, #80]
 107:../01_Applcation/APPL_DMA_LTE/APPL_DMA_LTE.c **** 
 203              		.loc 1 107 2 is_stmt 1 view .LVU46
 107:../01_Applcation/APPL_DMA_LTE/APPL_DMA_LTE.c **** 
 204              		.loc 1 107 27 is_stmt 0 view .LVU47
 205 0060 0123     		movs	r3, #1
 206 0062 2B60     		str	r3, [r5]
 109:../01_Applcation/APPL_DMA_LTE/APPL_DMA_LTE.c **** 	{
ARM GAS  C:\Users\minde\AppData\Local\Temp\ccIwWLY5.s 			page 11


 207              		.loc 1 109 2 is_stmt 1 view .LVU48
 208              	.LBB2:
 109:../01_Applcation/APPL_DMA_LTE/APPL_DMA_LTE.c **** 	{
 209              		.loc 1 109 7 view .LVU49
 210              	.LVL4:
 109:../01_Applcation/APPL_DMA_LTE/APPL_DMA_LTE.c **** 	{
 211              		.loc 1 109 11 is_stmt 0 view .LVU50
 212 0064 2346     		mov	r3, r4
 109:../01_Applcation/APPL_DMA_LTE/APPL_DMA_LTE.c **** 	{
 213              		.loc 1 109 2 view .LVU51
 214 0066 05E0     		b	.L5
 215              	.LVL5:
 216              	.L6:
 111:../01_Applcation/APPL_DMA_LTE/APPL_DMA_LTE.c **** 	}
 217              		.loc 1 111 3 is_stmt 1 discriminator 3 view .LVU52
 111:../01_Applcation/APPL_DMA_LTE/APPL_DMA_LTE.c **** 	}
 218              		.loc 1 111 42 is_stmt 0 discriminator 3 view .LVU53
 219 0068 0E4A     		ldr	r2, .L8+36
 220 006a 02EBC302 		add	r2, r2, r3, lsl #3
 221 006e 0121     		movs	r1, #1
 222 0070 1171     		strb	r1, [r2, #4]
 109:../01_Applcation/APPL_DMA_LTE/APPL_DMA_LTE.c **** 	{
 223              		.loc 1 109 26 is_stmt 1 discriminator 3 view .LVU54
 109:../01_Applcation/APPL_DMA_LTE/APPL_DMA_LTE.c **** 	{
 224              		.loc 1 109 27 is_stmt 0 discriminator 3 view .LVU55
 225 0072 0B44     		add	r3, r3, r1
 226              	.LVL6:
 227              	.L5:
 109:../01_Applcation/APPL_DMA_LTE/APPL_DMA_LTE.c **** 	{
 228              		.loc 1 109 18 is_stmt 1 discriminator 1 view .LVU56
 109:../01_Applcation/APPL_DMA_LTE/APPL_DMA_LTE.c **** 	{
 229              		.loc 1 109 2 is_stmt 0 discriminator 1 view .LVU57
 230 0074 092B     		cmp	r3, #9
 231 0076 F7DD     		ble	.L6
 232              	.LBE2:
 113:../01_Applcation/APPL_DMA_LTE/APPL_DMA_LTE.c **** }
 233              		.loc 1 113 2 is_stmt 1 view .LVU58
 113:../01_Applcation/APPL_DMA_LTE/APPL_DMA_LTE.c **** }
 234              		.loc 1 113 41 is_stmt 0 view .LVU59
 235 0078 0A4B     		ldr	r3, .L8+36
 236              	.LVL7:
 113:../01_Applcation/APPL_DMA_LTE/APPL_DMA_LTE.c **** }
 237              		.loc 1 113 41 view .LVU60
 238 007a 0222     		movs	r2, #2
 239 007c 1A71     		strb	r2, [r3, #4]
 114:../01_Applcation/APPL_DMA_LTE/APPL_DMA_LTE.c **** 
 240              		.loc 1 114 1 view .LVU61
 241 007e 70BD     		pop	{r4, r5, r6, pc}
 242              	.L9:
 243              		.align	2
 244              	.L8:
 245 0080 00000000 		.word	.LANCHOR2
 246 0084 00000000 		.word	.LANCHOR3
 247 0088 00000000 		.word	.LANCHOR5
 248 008c 00000000 		.word	.LANCHOR4
 249 0090 00000000 		.word	.LANCHOR6
 250 0094 00000000 		.word	.LC0
ARM GAS  C:\Users\minde\AppData\Local\Temp\ccIwWLY5.s 			page 12


 251 0098 04000000 		.word	.LC1
 252 009c 00000000 		.word	APPL_DMA_LTE_OK
 253 00a0 00000000 		.word	APPL_data
 254 00a4 00000000 		.word	.LANCHOR1
 255 00a8 10000000 		.word	.LC2
 256 00ac 18000000 		.word	.LC3
 257 00b0 34000000 		.word	.LC4
 258 00b4 50000000 		.word	.LC5
 259 00b8 7C000000 		.word	.LC6
 260 00bc 9C000000 		.word	.LC7
 261 00c0 BC000000 		.word	.LC8
 262 00c4 D4000000 		.word	.LC9
 263 00c8 E8000000 		.word	.LC10
 264 00cc 00010000 		.word	.LC11
 265 00d0 0C010000 		.word	.LC12
 266              		.cfi_endproc
 267              	.LFE291:
 269              		.section	.text.APPL_DMA_LTE_printf,"ax",%progbits
 270              		.align	1
 271              		.global	APPL_DMA_LTE_printf
 272              		.syntax unified
 273              		.thumb
 274              		.thumb_func
 276              	APPL_DMA_LTE_printf:
 277              	.LVL8:
 278              	.LFB292:
 147:../01_Applcation/APPL_DMA_LTE/APPL_DMA_LTE.c **** 	// there was an error reading.
 279              		.loc 1 147 1 is_stmt 1 view -0
 280              		.cfi_startproc
 281              		@ args = 4, pretend = 16, frame = 264
 282              		@ frame_needed = 0, uses_anonymous_args = 1
 147:../01_Applcation/APPL_DMA_LTE/APPL_DMA_LTE.c **** 	// there was an error reading.
 283              		.loc 1 147 1 is_stmt 0 view .LVU63
 284 0000 0FB4     		push	{r0, r1, r2, r3}
 285              	.LCFI1:
 286              		.cfi_def_cfa_offset 16
 287              		.cfi_offset 0, -16
 288              		.cfi_offset 1, -12
 289              		.cfi_offset 2, -8
 290              		.cfi_offset 3, -4
 291 0002 30B5     		push	{r4, r5, lr}
 292              	.LCFI2:
 293              		.cfi_def_cfa_offset 28
 294              		.cfi_offset 4, -28
 295              		.cfi_offset 5, -24
 296              		.cfi_offset 14, -20
 297 0004 C3B0     		sub	sp, sp, #268
 298              	.LCFI3:
 299              		.cfi_def_cfa_offset 296
 300 0006 46AC     		add	r4, sp, #280
 301 0008 54F8045B 		ldr	r5, [r4], #4
 149:../01_Applcation/APPL_DMA_LTE/APPL_DMA_LTE.c **** 	memset(SerialBuffer, 0, 255);
 302              		.loc 1 149 2 is_stmt 1 view .LVU64
 150:../01_Applcation/APPL_DMA_LTE/APPL_DMA_LTE.c **** 	va_list args;
 303              		.loc 1 150 2 view .LVU65
 304 000c FF22     		movs	r2, #255
 305 000e 0021     		movs	r1, #0
ARM GAS  C:\Users\minde\AppData\Local\Temp\ccIwWLY5.s 			page 13


 306 0010 02A8     		add	r0, sp, #8
 307 0012 FFF7FEFF 		bl	memset
 308              	.LVL9:
 151:../01_Applcation/APPL_DMA_LTE/APPL_DMA_LTE.c **** 	va_start(args, format);
 309              		.loc 1 151 2 view .LVU66
 152:../01_Applcation/APPL_DMA_LTE/APPL_DMA_LTE.c **** 	vsprintf((char *)SerialBuffer, format, args);
 310              		.loc 1 152 2 view .LVU67
 311 0016 0194     		str	r4, [sp, #4]
 153:../01_Applcation/APPL_DMA_LTE/APPL_DMA_LTE.c **** 	va_end(args);
 312              		.loc 1 153 2 view .LVU68
 313 0018 2246     		mov	r2, r4
 314 001a 2946     		mov	r1, r5
 315 001c 02A8     		add	r0, sp, #8
 316 001e FFF7FEFF 		bl	vsprintf
 317              	.LVL10:
 154:../01_Applcation/APPL_DMA_LTE/APPL_DMA_LTE.c **** 	HAL_UART_Transmit(&huart1, SerialBuffer, strlen((char *)SerialBuffer), 10);
 318              		.loc 1 154 2 view .LVU69
 155:../01_Applcation/APPL_DMA_LTE/APPL_DMA_LTE.c **** 	// APPL_DMA_LTE_printString(SerialBuffer);
 319              		.loc 1 155 2 view .LVU70
 155:../01_Applcation/APPL_DMA_LTE/APPL_DMA_LTE.c **** 	// APPL_DMA_LTE_printString(SerialBuffer);
 320              		.loc 1 155 43 is_stmt 0 view .LVU71
 321 0022 02A8     		add	r0, sp, #8
 322 0024 FFF7FEFF 		bl	strlen
 323              	.LVL11:
 155:../01_Applcation/APPL_DMA_LTE/APPL_DMA_LTE.c **** 	// APPL_DMA_LTE_printString(SerialBuffer);
 324              		.loc 1 155 2 view .LVU72
 325 0028 0A23     		movs	r3, #10
 326 002a 82B2     		uxth	r2, r0
 327 002c 02A9     		add	r1, sp, #8
 328 002e 0448     		ldr	r0, .L12
 329 0030 FFF7FEFF 		bl	HAL_UART_Transmit
 330              	.LVL12:
 157:../01_Applcation/APPL_DMA_LTE/APPL_DMA_LTE.c **** 
 331              		.loc 1 157 1 view .LVU73
 332 0034 43B0     		add	sp, sp, #268
 333              	.LCFI4:
 334              		.cfi_def_cfa_offset 28
 335              		@ sp needed
 336 0036 BDE83040 		pop	{r4, r5, lr}
 337              	.LCFI5:
 338              		.cfi_restore 14
 339              		.cfi_restore 5
 340              		.cfi_restore 4
 341              		.cfi_def_cfa_offset 16
 342 003a 04B0     		add	sp, sp, #16
 343              	.LCFI6:
 344              		.cfi_restore 3
 345              		.cfi_restore 2
 346              		.cfi_restore 1
 347              		.cfi_restore 0
 348              		.cfi_def_cfa_offset 0
 349 003c 7047     		bx	lr
 350              	.L13:
 351 003e 00BF     		.align	2
 352              	.L12:
 353 0040 00000000 		.word	huart1
 354              		.cfi_endproc
ARM GAS  C:\Users\minde\AppData\Local\Temp\ccIwWLY5.s 			page 14


 355              	.LFE292:
 357              		.section	.rodata.APPL_DMA_LTE_MQTT_PUBLISH.str1.4,"aMS",%progbits,1
 358              		.align	2
 359              	.LC13:
 360 0000 41542B53 		.ascii	"AT+SMPUB=\"UUMON/%d/%s\",%d,0,0\015\012\000"
 360      4D505542 
 360      3D225555 
 360      4D4F4E2F 
 360      25642F25 
 361              		.align	2
 362              	.LC14:
 363 0020 25730D0A 		.ascii	"%s\015\012\000"
 363      00
 364              		.section	.text.APPL_DMA_LTE_MQTT_PUBLISH,"ax",%progbits
 365              		.align	1
 366              		.global	APPL_DMA_LTE_MQTT_PUBLISH
 367              		.syntax unified
 368              		.thumb
 369              		.thumb_func
 371              	APPL_DMA_LTE_MQTT_PUBLISH:
 372              	.LVL13:
 373              	.LFB293:
 170:../01_Applcation/APPL_DMA_LTE/APPL_DMA_LTE.c **** 	if (APPL_DMA_LTE_MQTT_ONLINE == 1)
 374              		.loc 1 170 1 is_stmt 1 view -0
 375              		.cfi_startproc
 376              		@ args = 4, pretend = 12, frame = 264
 377              		@ frame_needed = 0, uses_anonymous_args = 1
 170:../01_Applcation/APPL_DMA_LTE/APPL_DMA_LTE.c **** 	if (APPL_DMA_LTE_MQTT_ONLINE == 1)
 378              		.loc 1 170 1 is_stmt 0 view .LVU75
 379 0000 0EB4     		push	{r1, r2, r3}
 380              	.LCFI7:
 381              		.cfi_def_cfa_offset 12
 382              		.cfi_offset 1, -12
 383              		.cfi_offset 2, -8
 384              		.cfi_offset 3, -4
 385 0002 30B5     		push	{r4, r5, lr}
 386              	.LCFI8:
 387              		.cfi_def_cfa_offset 24
 388              		.cfi_offset 4, -24
 389              		.cfi_offset 5, -20
 390              		.cfi_offset 14, -16
 391 0004 C2B0     		sub	sp, sp, #264
 392              	.LCFI9:
 393              		.cfi_def_cfa_offset 288
 171:../01_Applcation/APPL_DMA_LTE/APPL_DMA_LTE.c **** 	{
 394              		.loc 1 171 2 is_stmt 1 view .LVU76
 171:../01_Applcation/APPL_DMA_LTE/APPL_DMA_LTE.c **** 	{
 395              		.loc 1 171 31 is_stmt 0 view .LVU77
 396 0006 124B     		ldr	r3, .L18
 397 0008 1B68     		ldr	r3, [r3]
 171:../01_Applcation/APPL_DMA_LTE/APPL_DMA_LTE.c **** 	{
 398              		.loc 1 171 5 view .LVU78
 399 000a 012B     		cmp	r3, #1
 400 000c 04D0     		beq	.L17
 401              	.LVL14:
 402              	.L14:
 183:../01_Applcation/APPL_DMA_LTE/APPL_DMA_LTE.c **** 
ARM GAS  C:\Users\minde\AppData\Local\Temp\ccIwWLY5.s 			page 15


 403              		.loc 1 183 1 view .LVU79
 404 000e 42B0     		add	sp, sp, #264
 405              	.LCFI10:
 406              		.cfi_remember_state
 407              		.cfi_def_cfa_offset 24
 408              		@ sp needed
 409 0010 BDE83040 		pop	{r4, r5, lr}
 410              	.LCFI11:
 411              		.cfi_restore 14
 412              		.cfi_restore 5
 413              		.cfi_restore 4
 414              		.cfi_def_cfa_offset 12
 415 0014 03B0     		add	sp, sp, #12
 416              	.LCFI12:
 417              		.cfi_restore 3
 418              		.cfi_restore 2
 419              		.cfi_restore 1
 420              		.cfi_def_cfa_offset 0
 421 0016 7047     		bx	lr
 422              	.LVL15:
 423              	.L17:
 424              	.LCFI13:
 425              		.cfi_restore_state
 183:../01_Applcation/APPL_DMA_LTE/APPL_DMA_LTE.c **** 
 426              		.loc 1 183 1 view .LVU80
 427 0018 0446     		mov	r4, r0
 428              	.LBB3:
 174:../01_Applcation/APPL_DMA_LTE/APPL_DMA_LTE.c **** 		memset(SerialBuffer, 0, 255);
 429              		.loc 1 174 3 is_stmt 1 view .LVU81
 175:../01_Applcation/APPL_DMA_LTE/APPL_DMA_LTE.c **** 		va_list args;
 430              		.loc 1 175 3 view .LVU82
 431 001a FF22     		movs	r2, #255
 432 001c 0021     		movs	r1, #0
 433 001e 02A8     		add	r0, sp, #8
 434 0020 FFF7FEFF 		bl	memset
 435              	.LVL16:
 176:../01_Applcation/APPL_DMA_LTE/APPL_DMA_LTE.c **** 		va_start(args, format);
 436              		.loc 1 176 3 view .LVU83
 177:../01_Applcation/APPL_DMA_LTE/APPL_DMA_LTE.c **** 		vsprintf((char *)SerialBuffer, format, args);
 437              		.loc 1 177 3 view .LVU84
 438 0024 46AA     		add	r2, sp, #280
 439 0026 0192     		str	r2, [sp, #4]
 178:../01_Applcation/APPL_DMA_LTE/APPL_DMA_LTE.c **** 		va_end(args);
 440              		.loc 1 178 3 view .LVU85
 441 0028 4599     		ldr	r1, [sp, #276]
 442 002a 02A8     		add	r0, sp, #8
 443 002c FFF7FEFF 		bl	vsprintf
 444              	.LVL17:
 179:../01_Applcation/APPL_DMA_LTE/APPL_DMA_LTE.c **** 		APPL_DMA_LTE_printf("AT+SMPUB=\"UUMON/%d/%s\",%d,0,0\r\n", APPL_data.deviceID, MQTT_Topic, strlen
 445              		.loc 1 179 3 view .LVU86
 180:../01_Applcation/APPL_DMA_LTE/APPL_DMA_LTE.c **** 		APPL_DMA_LTE_printf("%s\r\n", SerialBuffer);
 446              		.loc 1 180 3 view .LVU87
 180:../01_Applcation/APPL_DMA_LTE/APPL_DMA_LTE.c **** 		APPL_DMA_LTE_printf("%s\r\n", SerialBuffer);
 447              		.loc 1 180 71 is_stmt 0 view .LVU88
 448 0030 084B     		ldr	r3, .L18+4
 449 0032 5D88     		ldrh	r5, [r3, #2]
 180:../01_Applcation/APPL_DMA_LTE/APPL_DMA_LTE.c **** 		APPL_DMA_LTE_printf("%s\r\n", SerialBuffer);
ARM GAS  C:\Users\minde\AppData\Local\Temp\ccIwWLY5.s 			page 16


 450              		.loc 1 180 3 view .LVU89
 451 0034 02A8     		add	r0, sp, #8
 452 0036 FFF7FEFF 		bl	strlen
 453              	.LVL18:
 454 003a 0346     		mov	r3, r0
 455 003c 2246     		mov	r2, r4
 456 003e 2946     		mov	r1, r5
 457 0040 0548     		ldr	r0, .L18+8
 458 0042 FFF7FEFF 		bl	APPL_DMA_LTE_printf
 459              	.LVL19:
 181:../01_Applcation/APPL_DMA_LTE/APPL_DMA_LTE.c **** 	}
 460              		.loc 1 181 3 is_stmt 1 view .LVU90
 461 0046 02A9     		add	r1, sp, #8
 462 0048 0448     		ldr	r0, .L18+12
 463 004a FFF7FEFF 		bl	APPL_DMA_LTE_printf
 464              	.LVL20:
 465              	.LBE3:
 183:../01_Applcation/APPL_DMA_LTE/APPL_DMA_LTE.c **** 
 466              		.loc 1 183 1 is_stmt 0 view .LVU91
 467 004e DEE7     		b	.L14
 468              	.L19:
 469              		.align	2
 470              	.L18:
 471 0050 00000000 		.word	.LANCHOR2
 472 0054 00000000 		.word	APPL_data
 473 0058 00000000 		.word	.LC13
 474 005c 20000000 		.word	.LC14
 475              		.cfi_endproc
 476              	.LFE293:
 478              		.section	.rodata.APPL_DMA_LTE_MQTT_PUBLISH_Raw.str1.4,"aMS",%progbits,1
 479              		.align	2
 480              	.LC15:
 481 0000 25303278 		.ascii	"%02x \000"
 481      2000
 482 0006 0000     		.align	2
 483              	.LC16:
 484 0008 0D0A00   		.ascii	"\015\012\000"
 485              		.section	.text.APPL_DMA_LTE_MQTT_PUBLISH_Raw,"ax",%progbits
 486              		.align	1
 487              		.global	APPL_DMA_LTE_MQTT_PUBLISH_Raw
 488              		.syntax unified
 489              		.thumb
 490              		.thumb_func
 492              	APPL_DMA_LTE_MQTT_PUBLISH_Raw:
 493              	.LVL21:
 494              	.LFB294:
 196:../01_Applcation/APPL_DMA_LTE/APPL_DMA_LTE.c **** 	if (APPL_DMA_LTE_MQTT_ONLINE == 1)
 495              		.loc 1 196 1 is_stmt 1 view -0
 496              		.cfi_startproc
 497              		@ args = 0, pretend = 0, frame = 0
 498              		@ frame_needed = 0, uses_anonymous_args = 0
 197:../01_Applcation/APPL_DMA_LTE/APPL_DMA_LTE.c **** 	{
 499              		.loc 1 197 2 view .LVU93
 197:../01_Applcation/APPL_DMA_LTE/APPL_DMA_LTE.c **** 	{
 500              		.loc 1 197 31 is_stmt 0 view .LVU94
 501 0000 0E4B     		ldr	r3, .L29
 502 0002 1B68     		ldr	r3, [r3]
ARM GAS  C:\Users\minde\AppData\Local\Temp\ccIwWLY5.s 			page 17


 197:../01_Applcation/APPL_DMA_LTE/APPL_DMA_LTE.c **** 	{
 503              		.loc 1 197 5 view .LVU95
 504 0004 012B     		cmp	r3, #1
 505 0006 00D0     		beq	.L28
 506 0008 7047     		bx	lr
 507              	.L28:
 196:../01_Applcation/APPL_DMA_LTE/APPL_DMA_LTE.c **** 	if (APPL_DMA_LTE_MQTT_ONLINE == 1)
 508              		.loc 1 196 1 view .LVU96
 509 000a 70B5     		push	{r4, r5, r6, lr}
 510              	.LCFI14:
 511              		.cfi_def_cfa_offset 16
 512              		.cfi_offset 4, -16
 513              		.cfi_offset 5, -12
 514              		.cfi_offset 6, -8
 515              		.cfi_offset 14, -4
 516 000c 0E46     		mov	r6, r1
 517 000e 1546     		mov	r5, r2
 200:../01_Applcation/APPL_DMA_LTE/APPL_DMA_LTE.c **** 							APPL_data.deviceID,
 518              		.loc 1 200 3 is_stmt 1 view .LVU97
 203:../01_Applcation/APPL_DMA_LTE/APPL_DMA_LTE.c **** 		for (int i = 0; i < len; i++)
 519              		.loc 1 203 11 is_stmt 0 view .LVU98
 520 0010 02EB4203 		add	r3, r2, r2, lsl #1
 200:../01_Applcation/APPL_DMA_LTE/APPL_DMA_LTE.c **** 							APPL_data.deviceID,
 521              		.loc 1 200 3 view .LVU99
 522 0014 0233     		adds	r3, r3, #2
 523 0016 0246     		mov	r2, r0
 524              	.LVL22:
 200:../01_Applcation/APPL_DMA_LTE/APPL_DMA_LTE.c **** 							APPL_data.deviceID,
 525              		.loc 1 200 3 view .LVU100
 526 0018 0949     		ldr	r1, .L29+4
 527              	.LVL23:
 200:../01_Applcation/APPL_DMA_LTE/APPL_DMA_LTE.c **** 							APPL_data.deviceID,
 528              		.loc 1 200 3 view .LVU101
 529 001a 4988     		ldrh	r1, [r1, #2]
 530 001c 0948     		ldr	r0, .L29+8
 531              	.LVL24:
 200:../01_Applcation/APPL_DMA_LTE/APPL_DMA_LTE.c **** 							APPL_data.deviceID,
 532              		.loc 1 200 3 view .LVU102
 533 001e FFF7FEFF 		bl	APPL_DMA_LTE_printf
 534              	.LVL25:
 204:../01_Applcation/APPL_DMA_LTE/APPL_DMA_LTE.c **** 		{
 535              		.loc 1 204 3 is_stmt 1 view .LVU103
 536              	.LBB4:
 204:../01_Applcation/APPL_DMA_LTE/APPL_DMA_LTE.c **** 		{
 537              		.loc 1 204 8 view .LVU104
 204:../01_Applcation/APPL_DMA_LTE/APPL_DMA_LTE.c **** 		{
 538              		.loc 1 204 12 is_stmt 0 view .LVU105
 539 0022 0024     		movs	r4, #0
 204:../01_Applcation/APPL_DMA_LTE/APPL_DMA_LTE.c **** 		{
 540              		.loc 1 204 3 view .LVU106
 541 0024 04E0     		b	.L22
 542              	.LVL26:
 543              	.L23:
 206:../01_Applcation/APPL_DMA_LTE/APPL_DMA_LTE.c **** 		}
 544              		.loc 1 206 4 is_stmt 1 discriminator 3 view .LVU107
 545 0026 315D     		ldrb	r1, [r6, r4]	@ zero_extendqisi2
 546 0028 0748     		ldr	r0, .L29+12
ARM GAS  C:\Users\minde\AppData\Local\Temp\ccIwWLY5.s 			page 18


 547 002a FFF7FEFF 		bl	APPL_DMA_LTE_printf
 548              	.LVL27:
 204:../01_Applcation/APPL_DMA_LTE/APPL_DMA_LTE.c **** 		{
 549              		.loc 1 204 28 discriminator 3 view .LVU108
 204:../01_Applcation/APPL_DMA_LTE/APPL_DMA_LTE.c **** 		{
 550              		.loc 1 204 29 is_stmt 0 discriminator 3 view .LVU109
 551 002e 0134     		adds	r4, r4, #1
 552              	.LVL28:
 553              	.L22:
 204:../01_Applcation/APPL_DMA_LTE/APPL_DMA_LTE.c **** 		{
 554              		.loc 1 204 19 is_stmt 1 discriminator 1 view .LVU110
 204:../01_Applcation/APPL_DMA_LTE/APPL_DMA_LTE.c **** 		{
 555              		.loc 1 204 3 is_stmt 0 discriminator 1 view .LVU111
 556 0030 A542     		cmp	r5, r4
 557 0032 F8DC     		bgt	.L23
 558              	.LBE4:
 208:../01_Applcation/APPL_DMA_LTE/APPL_DMA_LTE.c **** 	}
 559              		.loc 1 208 3 is_stmt 1 view .LVU112
 560 0034 0548     		ldr	r0, .L29+16
 561 0036 FFF7FEFF 		bl	APPL_DMA_LTE_printf
 562              	.LVL29:
 210:../01_Applcation/APPL_DMA_LTE/APPL_DMA_LTE.c **** 
 563              		.loc 1 210 1 is_stmt 0 view .LVU113
 564 003a 70BD     		pop	{r4, r5, r6, pc}
 565              	.LVL30:
 566              	.L30:
 210:../01_Applcation/APPL_DMA_LTE/APPL_DMA_LTE.c **** 
 567              		.loc 1 210 1 view .LVU114
 568              		.align	2
 569              	.L29:
 570 003c 00000000 		.word	.LANCHOR2
 571 0040 00000000 		.word	APPL_data
 572 0044 00000000 		.word	.LC13
 573 0048 00000000 		.word	.LC15
 574 004c 08000000 		.word	.LC16
 575              		.cfi_endproc
 576              	.LFE294:
 578              		.section	.rodata.APPL_DMA_LTE_SIM7000G_Init.str1.4,"aMS",%progbits,1
 579              		.align	2
 580              	.LC17:
 581 0000 257300   		.ascii	"%s\000"
 582              		.section	.text.APPL_DMA_LTE_SIM7000G_Init,"ax",%progbits
 583              		.align	1
 584              		.global	APPL_DMA_LTE_SIM7000G_Init
 585              		.syntax unified
 586              		.thumb
 587              		.thumb_func
 589              	APPL_DMA_LTE_SIM7000G_Init:
 590              	.LFB295:
 223:../01_Applcation/APPL_DMA_LTE/APPL_DMA_LTE.c **** 	if (APPL_DMA_LTE_Step_Init[APPL_DMA_LTE_Init_Stage].Return_Stage == 0)
 591              		.loc 1 223 1 is_stmt 1 view -0
 592              		.cfi_startproc
 593              		@ args = 0, pretend = 0, frame = 0
 594              		@ frame_needed = 0, uses_anonymous_args = 0
 595 0000 08B5     		push	{r3, lr}
 596              	.LCFI15:
 597              		.cfi_def_cfa_offset 8
ARM GAS  C:\Users\minde\AppData\Local\Temp\ccIwWLY5.s 			page 19


 598              		.cfi_offset 3, -8
 599              		.cfi_offset 14, -4
 224:../01_Applcation/APPL_DMA_LTE/APPL_DMA_LTE.c **** 	{
 600              		.loc 1 224 2 view .LVU116
 224:../01_Applcation/APPL_DMA_LTE/APPL_DMA_LTE.c **** 	{
 601              		.loc 1 224 53 is_stmt 0 view .LVU117
 602 0002 0B4B     		ldr	r3, .L36
 603 0004 1A78     		ldrb	r2, [r3]	@ zero_extendqisi2
 604 0006 0B4B     		ldr	r3, .L36+4
 605 0008 03EBC203 		add	r3, r3, r2, lsl #3
 606 000c 1B79     		ldrb	r3, [r3, #4]	@ zero_extendqisi2
 224:../01_Applcation/APPL_DMA_LTE/APPL_DMA_LTE.c **** 	{
 607              		.loc 1 224 5 view .LVU118
 608 000e 13B9     		cbnz	r3, .L32
 226:../01_Applcation/APPL_DMA_LTE/APPL_DMA_LTE.c **** 	}
 609              		.loc 1 226 3 is_stmt 1 view .LVU119
 226:../01_Applcation/APPL_DMA_LTE/APPL_DMA_LTE.c **** 	}
 610              		.loc 1 226 26 is_stmt 0 view .LVU120
 611 0010 0132     		adds	r2, r2, #1
 612 0012 074B     		ldr	r3, .L36
 613 0014 1A70     		strb	r2, [r3]
 614              	.L32:
 228:../01_Applcation/APPL_DMA_LTE/APPL_DMA_LTE.c **** 	{
 615              		.loc 1 228 2 is_stmt 1 view .LVU121
 228:../01_Applcation/APPL_DMA_LTE/APPL_DMA_LTE.c **** 	{
 616              		.loc 1 228 30 is_stmt 0 view .LVU122
 617 0016 064B     		ldr	r3, .L36
 618 0018 1B78     		ldrb	r3, [r3]	@ zero_extendqisi2
 228:../01_Applcation/APPL_DMA_LTE/APPL_DMA_LTE.c **** 	{
 619              		.loc 1 228 5 view .LVU123
 620 001a 0E2B     		cmp	r3, #14
 621 001c 00D9     		bls	.L35
 622              	.L31:
 232:../01_Applcation/APPL_DMA_LTE/APPL_DMA_LTE.c **** 
 623              		.loc 1 232 1 view .LVU124
 624 001e 08BD     		pop	{r3, pc}
 625              	.L35:
 230:../01_Applcation/APPL_DMA_LTE/APPL_DMA_LTE.c **** 	}
 626              		.loc 1 230 3 is_stmt 1 view .LVU125
 627 0020 044A     		ldr	r2, .L36+4
 628 0022 52F83310 		ldr	r1, [r2, r3, lsl #3]
 629 0026 0448     		ldr	r0, .L36+8
 630 0028 FFF7FEFF 		bl	APPL_DMA_LTE_printf
 631              	.LVL31:
 232:../01_Applcation/APPL_DMA_LTE/APPL_DMA_LTE.c **** 
 632              		.loc 1 232 1 is_stmt 0 view .LVU126
 633 002c F7E7     		b	.L31
 634              	.L37:
 635 002e 00BF     		.align	2
 636              	.L36:
 637 0030 00000000 		.word	.LANCHOR0
 638 0034 00000000 		.word	.LANCHOR1
 639 0038 00000000 		.word	.LC17
 640              		.cfi_endproc
 641              	.LFE295:
 643              		.section	.text.APPL_DMA_LTE_SIM7000G_Error_Handel,"ax",%progbits
 644              		.align	1
ARM GAS  C:\Users\minde\AppData\Local\Temp\ccIwWLY5.s 			page 20


 645              		.global	APPL_DMA_LTE_SIM7000G_Error_Handel
 646              		.syntax unified
 647              		.thumb
 648              		.thumb_func
 650              	APPL_DMA_LTE_SIM7000G_Error_Handel:
 651              	.LFB296:
 245:../01_Applcation/APPL_DMA_LTE/APPL_DMA_LTE.c **** }
 652              		.loc 1 245 1 is_stmt 1 view -0
 653              		.cfi_startproc
 654              		@ args = 0, pretend = 0, frame = 0
 655              		@ frame_needed = 0, uses_anonymous_args = 0
 656              		@ link register save eliminated.
 246:../01_Applcation/APPL_DMA_LTE/APPL_DMA_LTE.c **** 
 657              		.loc 1 246 1 view .LVU128
 658 0000 7047     		bx	lr
 659              		.cfi_endproc
 660              	.LFE296:
 662              		.section	.text.APPL_DMA_LTE_LineProcess,"ax",%progbits
 663              		.align	1
 664              		.global	APPL_DMA_LTE_LineProcess
 665              		.syntax unified
 666              		.thumb
 667              		.thumb_func
 669              	APPL_DMA_LTE_LineProcess:
 670              	.LFB297:
 259:../01_Applcation/APPL_DMA_LTE/APPL_DMA_LTE.c **** 	// APPL_DMA_LTE_printf("Command = %s", APPL_DMA_RS48_Rx.buffer);
 671              		.loc 1 259 1 view -0
 672              		.cfi_startproc
 673              		@ args = 0, pretend = 0, frame = 0
 674              		@ frame_needed = 0, uses_anonymous_args = 0
 675 0000 08B5     		push	{r3, lr}
 676              	.LCFI16:
 677              		.cfi_def_cfa_offset 8
 678              		.cfi_offset 3, -8
 679              		.cfi_offset 14, -4
 261:../01_Applcation/APPL_DMA_LTE/APPL_DMA_LTE.c **** 	{
 680              		.loc 1 261 2 view .LVU130
 261:../01_Applcation/APPL_DMA_LTE/APPL_DMA_LTE.c **** 	{
 681              		.loc 1 261 40 is_stmt 0 view .LVU131
 682 0002 0B4B     		ldr	r3, .L43
 261:../01_Applcation/APPL_DMA_LTE/APPL_DMA_LTE.c **** 	{
 683              		.loc 1 261 6 view .LVU132
 684 0004 5A78     		ldrb	r2, [r3, #1]	@ zero_extendqisi2
 685 0006 0A21     		movs	r1, #10
 686 0008 9868     		ldr	r0, [r3, #8]
 687 000a FFF7FEFF 		bl	EKM_CMD_RXPeek
 688              	.LVL32:
 261:../01_Applcation/APPL_DMA_LTE/APPL_DMA_LTE.c **** 	{
 689              		.loc 1 261 5 view .LVU133
 690 000e 0028     		cmp	r0, #0
 691 0010 00DC     		bgt	.L42
 692              	.L39:
 268:../01_Applcation/APPL_DMA_LTE/APPL_DMA_LTE.c **** 
 693              		.loc 1 268 1 view .LVU134
 694 0012 08BD     		pop	{r3, pc}
 695              	.L42:
 264:../01_Applcation/APPL_DMA_LTE/APPL_DMA_LTE.c **** 			// APPL_DMA_LTE_printf("Command not found");
ARM GAS  C:\Users\minde\AppData\Local\Temp\ccIwWLY5.s 			page 21


 696              		.loc 1 264 3 is_stmt 1 view .LVU135
 264:../01_Applcation/APPL_DMA_LTE/APPL_DMA_LTE.c **** 			// APPL_DMA_LTE_printf("Command not found");
 697              		.loc 1 264 7 is_stmt 0 view .LVU136
 698 0014 2022     		movs	r2, #32
 699 0016 0749     		ldr	r1, .L43+4
 700 0018 054B     		ldr	r3, .L43
 701 001a 9868     		ldr	r0, [r3, #8]
 702 001c FFF7FEFF 		bl	EKM_CMD_LineProcess
 703              	.LVL33:
 264:../01_Applcation/APPL_DMA_LTE/APPL_DMA_LTE.c **** 			// APPL_DMA_LTE_printf("Command not found");
 704              		.loc 1 264 6 view .LVU137
 705 0020 B0F1FF3F 		cmp	r0, #-1
 706 0024 F5D1     		bne	.L39
 266:../01_Applcation/APPL_DMA_LTE/APPL_DMA_LTE.c **** 	}
 707              		.loc 1 266 4 is_stmt 1 view .LVU138
 708 0026 0248     		ldr	r0, .L43
 709 0028 FFF7FEFF 		bl	EKM_Buffer_Reset
 710              	.LVL34:
 268:../01_Applcation/APPL_DMA_LTE/APPL_DMA_LTE.c **** 
 711              		.loc 1 268 1 is_stmt 0 view .LVU139
 712 002c F1E7     		b	.L39
 713              	.L44:
 714 002e 00BF     		.align	2
 715              	.L43:
 716 0030 00000000 		.word	.LANCHOR5
 717 0034 00000000 		.word	.LANCHOR6
 718              		.cfi_endproc
 719              	.LFE297:
 721              		.section	.text.APPL_DMA_LTE_Error,"ax",%progbits
 722              		.align	1
 723              		.global	APPL_DMA_LTE_Error
 724              		.syntax unified
 725              		.thumb
 726              		.thumb_func
 728              	APPL_DMA_LTE_Error:
 729              	.LVL35:
 730              	.LFB299:
 285:../01_Applcation/APPL_DMA_LTE/APPL_DMA_LTE.c **** 
 286:../01_Applcation/APPL_DMA_LTE/APPL_DMA_LTE.c **** /*******************************************************************************
 287:../01_Applcation/APPL_DMA_LTE/APPL_DMA_LTE.c ****  * Function: APPL_DMA_LTE_Error
 288:../01_Applcation/APPL_DMA_LTE/APPL_DMA_LTE.c ****  *
 289:../01_Applcation/APPL_DMA_LTE/APPL_DMA_LTE.c ****  * Parameters:      -
 290:../01_Applcation/APPL_DMA_LTE/APPL_DMA_LTE.c ****  * Returned value:  -
 291:../01_Applcation/APPL_DMA_LTE/APPL_DMA_LTE.c ****  *
 292:../01_Applcation/APPL_DMA_LTE/APPL_DMA_LTE.c ****  * Description:
 293:../01_Applcation/APPL_DMA_LTE/APPL_DMA_LTE.c ****  *
 294:../01_Applcation/APPL_DMA_LTE/APPL_DMA_LTE.c ****  * Calling:
 295:../01_Applcation/APPL_DMA_LTE/APPL_DMA_LTE.c ****  ******************************************************************************/
 296:../01_Applcation/APPL_DMA_LTE/APPL_DMA_LTE.c **** int APPL_DMA_LTE_Error(int argc, char *argv[])
 297:../01_Applcation/APPL_DMA_LTE/APPL_DMA_LTE.c **** {
 731              		.loc 1 297 1 is_stmt 1 view -0
 732              		.cfi_startproc
 733              		@ args = 0, pretend = 0, frame = 0
 734              		@ frame_needed = 0, uses_anonymous_args = 0
 735              		@ link register save eliminated.
 298:../01_Applcation/APPL_DMA_LTE/APPL_DMA_LTE.c **** 	if (APPL_DMA_LTE_MQTT_ONLINE == 1)
 736              		.loc 1 298 2 view .LVU141
ARM GAS  C:\Users\minde\AppData\Local\Temp\ccIwWLY5.s 			page 22


 737              		.loc 1 298 31 is_stmt 0 view .LVU142
 738 0000 054B     		ldr	r3, .L48
 739 0002 1B68     		ldr	r3, [r3]
 740              		.loc 1 298 5 view .LVU143
 741 0004 012B     		cmp	r3, #1
 742 0006 01D0     		beq	.L47
 743              	.L46:
 299:../01_Applcation/APPL_DMA_LTE/APPL_DMA_LTE.c **** 	{
 300:../01_Applcation/APPL_DMA_LTE/APPL_DMA_LTE.c **** 		APPL_DMA_LTE_SIM7000G_ErrorCount++;
 301:../01_Applcation/APPL_DMA_LTE/APPL_DMA_LTE.c **** 	}
 302:../01_Applcation/APPL_DMA_LTE/APPL_DMA_LTE.c **** 	return 0;
 744              		.loc 1 302 2 is_stmt 1 view .LVU144
 303:../01_Applcation/APPL_DMA_LTE/APPL_DMA_LTE.c **** }
 745              		.loc 1 303 1 is_stmt 0 view .LVU145
 746 0008 0020     		movs	r0, #0
 747              	.LVL36:
 748              		.loc 1 303 1 view .LVU146
 749 000a 7047     		bx	lr
 750              	.LVL37:
 751              	.L47:
 300:../01_Applcation/APPL_DMA_LTE/APPL_DMA_LTE.c **** 	}
 752              		.loc 1 300 3 is_stmt 1 view .LVU147
 300:../01_Applcation/APPL_DMA_LTE/APPL_DMA_LTE.c **** 	}
 753              		.loc 1 300 35 is_stmt 0 view .LVU148
 754 000c 034A     		ldr	r2, .L48+4
 755 000e 1388     		ldrh	r3, [r2]
 756 0010 0133     		adds	r3, r3, #1
 757 0012 1380     		strh	r3, [r2]	@ movhi
 758 0014 F8E7     		b	.L46
 759              	.L49:
 760 0016 00BF     		.align	2
 761              	.L48:
 762 0018 00000000 		.word	.LANCHOR2
 763 001c 00000000 		.word	.LANCHOR3
 764              		.cfi_endproc
 765              	.LFE299:
 767              		.section	.text.APPL_DMA_LTE_APP,"ax",%progbits
 768              		.align	1
 769              		.global	APPL_DMA_LTE_APP
 770              		.syntax unified
 771              		.thumb
 772              		.thumb_func
 774              	APPL_DMA_LTE_APP:
 775              	.LVL38:
 776              	.LFB300:
 304:../01_Applcation/APPL_DMA_LTE/APPL_DMA_LTE.c **** 
 305:../01_Applcation/APPL_DMA_LTE/APPL_DMA_LTE.c **** /*******************************************************************************
 306:../01_Applcation/APPL_DMA_LTE/APPL_DMA_LTE.c ****  * Function: APPL_DMA_LTE_APP
 307:../01_Applcation/APPL_DMA_LTE/APPL_DMA_LTE.c ****  *
 308:../01_Applcation/APPL_DMA_LTE/APPL_DMA_LTE.c ****  * Parameters:      -
 309:../01_Applcation/APPL_DMA_LTE/APPL_DMA_LTE.c ****  * Returned value:  -
 310:../01_Applcation/APPL_DMA_LTE/APPL_DMA_LTE.c ****  *
 311:../01_Applcation/APPL_DMA_LTE/APPL_DMA_LTE.c ****  * Description: APP PDP: DEACTIVE
 312:../01_Applcation/APPL_DMA_LTE/APPL_DMA_LTE.c ****  *
 313:../01_Applcation/APPL_DMA_LTE/APPL_DMA_LTE.c ****  * Calling:
 314:../01_Applcation/APPL_DMA_LTE/APPL_DMA_LTE.c ****  ******************************************************************************/
 315:../01_Applcation/APPL_DMA_LTE/APPL_DMA_LTE.c **** int APPL_DMA_LTE_APP(int argc, char *argv[])
ARM GAS  C:\Users\minde\AppData\Local\Temp\ccIwWLY5.s 			page 23


 316:../01_Applcation/APPL_DMA_LTE/APPL_DMA_LTE.c **** {
 777              		.loc 1 316 1 is_stmt 1 view -0
 778              		.cfi_startproc
 779              		@ args = 0, pretend = 0, frame = 0
 780              		@ frame_needed = 0, uses_anonymous_args = 0
 781              		@ link register save eliminated.
 317:../01_Applcation/APPL_DMA_LTE/APPL_DMA_LTE.c **** 	if (argc > 2)
 782              		.loc 1 317 2 view .LVU150
 318:../01_Applcation/APPL_DMA_LTE/APPL_DMA_LTE.c **** 	{
 319:../01_Applcation/APPL_DMA_LTE/APPL_DMA_LTE.c **** 		if (strstr(argv[2], "DEACTIVE") != NULL)
 320:../01_Applcation/APPL_DMA_LTE/APPL_DMA_LTE.c **** 		{
 321:../01_Applcation/APPL_DMA_LTE/APPL_DMA_LTE.c **** 		}
 322:../01_Applcation/APPL_DMA_LTE/APPL_DMA_LTE.c **** 		else if (strstr(argv[2], "ACTIVE") != NULL)
 323:../01_Applcation/APPL_DMA_LTE/APPL_DMA_LTE.c **** 		{
 324:../01_Applcation/APPL_DMA_LTE/APPL_DMA_LTE.c **** 		}
 783              		.loc 1 324 3 view .LVU151
 325:../01_Applcation/APPL_DMA_LTE/APPL_DMA_LTE.c **** 	}
 326:../01_Applcation/APPL_DMA_LTE/APPL_DMA_LTE.c **** 	return 0;
 784              		.loc 1 326 2 view .LVU152
 327:../01_Applcation/APPL_DMA_LTE/APPL_DMA_LTE.c **** }...
 785              		.loc 1 327 1 is_stmt 0 view .LVU153
 786 0000 0020     		movs	r0, #0
 787              	.LVL39:
 788              		.loc 1 327 1 view .LVU154
 789 0002 7047     		bx	lr
 790              		.cfi_endproc
 791              	.LFE300:
 793              		.global	APPL_DMA_LTE_CMD_PAPP
 794              		.global	APPL_DMA_LTE_CMD_APP
 795              		.global	APPL_DMA_LTE_CMD_Error
 796              		.global	APPL_DMA_LTE_CMD_OK
 797              		.global	APPL_DMA_LTE_Buffer
 798              		.global	APPL_DMA_LTE_Buffer_d
 799              		.global	APPL_DMA_LTE_Step_Init
 800              		.global	APPL_DMA_LTE_Init_Stage
 801              		.global	APPL_DMA_LTE_MQTT_ONLINE
 802              		.global	APPL_DMA_LTE_TimemerCount
 803              		.global	APPL_DMA_LTE_SIM7000G_ErrorCount
 804              		.section	.bss.APPL_DMA_LTE_Buffer,"aw",%nobits
 805              		.align	2
 806              		.set	.LANCHOR5,. + 0
 809              	APPL_DMA_LTE_Buffer:
 810 0000 00000000 		.space	12
 810      00000000 
 810      00000000 
 811              		.section	.bss.APPL_DMA_LTE_Buffer_d,"aw",%nobits
 812              		.align	2
 813              		.set	.LANCHOR4,. + 0
 816              	APPL_DMA_LTE_Buffer_d:
 817 0000 00000000 		.space	128
 817      00000000 
 817      00000000 
 817      00000000 
 817      00000000 
 818              		.section	.bss.APPL_DMA_LTE_CMD_APP,"aw",%nobits
 819              		.align	2
 822              	APPL_DMA_LTE_CMD_APP:
ARM GAS  C:\Users\minde\AppData\Local\Temp\ccIwWLY5.s 			page 24


 823 0000 00000000 		.space	16
 823      00000000 
 823      00000000 
 823      00000000 
 824              		.section	.bss.APPL_DMA_LTE_CMD_Error,"aw",%nobits
 825              		.align	2
 828              	APPL_DMA_LTE_CMD_Error:
 829 0000 00000000 		.space	16
 829      00000000 
 829      00000000 
 829      00000000 
 830              		.section	.bss.APPL_DMA_LTE_CMD_OK,"aw",%nobits
 831              		.align	2
 832              		.set	.LANCHOR6,. + 0
 835              	APPL_DMA_LTE_CMD_OK:
 836 0000 00000000 		.space	16
 836      00000000 
 836      00000000 
 836      00000000 
 837              		.section	.bss.APPL_DMA_LTE_CMD_PAPP,"aw",%nobits
 838              		.align	2
 841              	APPL_DMA_LTE_CMD_PAPP:
 842 0000 00000000 		.space	16
 842      00000000 
 842      00000000 
 842      00000000 
 843              		.section	.bss.APPL_DMA_LTE_Init_Stage,"aw",%nobits
 844              		.set	.LANCHOR0,. + 0
 847              	APPL_DMA_LTE_Init_Stage:
 848 0000 00       		.space	1
 849              		.section	.bss.APPL_DMA_LTE_MQTT_ONLINE,"aw",%nobits
 850              		.align	2
 851              		.set	.LANCHOR2,. + 0
 854              	APPL_DMA_LTE_MQTT_ONLINE:
 855 0000 00000000 		.space	4
 856              		.section	.bss.APPL_DMA_LTE_SIM7000G_ErrorCount,"aw",%nobits
 857              		.align	1
 858              		.set	.LANCHOR3,. + 0
 861              	APPL_DMA_LTE_SIM7000G_ErrorCount:
 862 0000 0000     		.space	2
 863              		.section	.bss.APPL_DMA_LTE_Step_Init,"aw",%nobits
 864              		.align	2
 865              		.set	.LANCHOR1,. + 0
 868              	APPL_DMA_LTE_Step_Init:
 869 0000 00000000 		.space	120
 869      00000000 
 869      00000000 
 869      00000000 
 869      00000000 
 870              		.section	.bss.APPL_DMA_LTE_TimemerCount,"aw",%nobits
 871              		.align	1
 874              	APPL_DMA_LTE_TimemerCount:
 875 0000 0000     		.space	2
 876              		.text
 877              	.Letext0:
 878              		.file 2 "c:\\gnuarm\\arm-none-eabi\\include\\machine\\_default_types.h"
 879              		.file 3 "c:\\gnuarm\\lib\\gcc\\arm-none-eabi\\10.3.1\\include\\stdarg.h"
ARM GAS  C:\Users\minde\AppData\Local\Temp\ccIwWLY5.s 			page 25


 880              		.file 4 "c:\\gnuarm\\arm-none-eabi\\include\\stdio.h"
 881              		.file 5 "c:\\gnuarm\\arm-none-eabi\\include\\sys\\_stdint.h"
 882              		.file 6 "../03_Drivers/CMSIS/Device/ST/STM32L4xx/Include/stm32l432xx.h"
 883              		.file 7 "../03_Drivers/STM32L4xx_HAL_Driver/Inc/stm32l4xx_hal_def.h"
 884              		.file 8 "../03_Drivers/STM32L4xx_HAL_Driver/Inc/stm32l4xx_hal_dma.h"
 885              		.file 9 "../03_Drivers/STM32L4xx_HAL_Driver/Inc/stm32l4xx_hal_uart.h"
 886              		.file 10 "../02_OS/EKM_CMD/EKM_CMD.h"
 887              		.file 11 "../02_OS/EKM_Buffer/EKM_Buffer.h"
 888              		.file 12 "../01_Applcation/APPL_DMA_LTE/APPL_DMA_LTE.h"
 889              		.file 13 "../02_OS/Core_UART/usart.h"
 890              		.file 14 "../01_Applcation/Appl_Data/Appl_Data.h"
 891              		.file 15 "c:\\gnuarm\\arm-none-eabi\\include\\string.h"
 892              		.file 16 "<built-in>"
ARM GAS  C:\Users\minde\AppData\Local\Temp\ccIwWLY5.s 			page 26


DEFINED SYMBOLS
                            *ABS*:00000000 APPL_DMA_LTE.c
C:\Users\minde\AppData\Local\Temp\ccIwWLY5.s:20     .text.APPL_DMA_LTE_OK:00000000 $t
C:\Users\minde\AppData\Local\Temp\ccIwWLY5.s:26     .text.APPL_DMA_LTE_OK:00000000 APPL_DMA_LTE_OK
C:\Users\minde\AppData\Local\Temp\ccIwWLY5.s:52     .text.APPL_DMA_LTE_OK:00000010 $d
C:\Users\minde\AppData\Local\Temp\ccIwWLY5.s:58     .rodata.APPL_DMA_LTE_Init.str1.4:00000000 $d
C:\Users\minde\AppData\Local\Temp\ccIwWLY5.s:99     .text.APPL_DMA_LTE_Init:00000000 $t
C:\Users\minde\AppData\Local\Temp\ccIwWLY5.s:105    .text.APPL_DMA_LTE_Init:00000000 APPL_DMA_LTE_Init
C:\Users\minde\AppData\Local\Temp\ccIwWLY5.s:245    .text.APPL_DMA_LTE_Init:00000080 $d
C:\Users\minde\AppData\Local\Temp\ccIwWLY5.s:270    .text.APPL_DMA_LTE_printf:00000000 $t
C:\Users\minde\AppData\Local\Temp\ccIwWLY5.s:276    .text.APPL_DMA_LTE_printf:00000000 APPL_DMA_LTE_printf
C:\Users\minde\AppData\Local\Temp\ccIwWLY5.s:353    .text.APPL_DMA_LTE_printf:00000040 $d
C:\Users\minde\AppData\Local\Temp\ccIwWLY5.s:358    .rodata.APPL_DMA_LTE_MQTT_PUBLISH.str1.4:00000000 $d
C:\Users\minde\AppData\Local\Temp\ccIwWLY5.s:365    .text.APPL_DMA_LTE_MQTT_PUBLISH:00000000 $t
C:\Users\minde\AppData\Local\Temp\ccIwWLY5.s:371    .text.APPL_DMA_LTE_MQTT_PUBLISH:00000000 APPL_DMA_LTE_MQTT_PUBLISH
C:\Users\minde\AppData\Local\Temp\ccIwWLY5.s:471    .text.APPL_DMA_LTE_MQTT_PUBLISH:00000050 $d
C:\Users\minde\AppData\Local\Temp\ccIwWLY5.s:479    .rodata.APPL_DMA_LTE_MQTT_PUBLISH_Raw.str1.4:00000000 $d
C:\Users\minde\AppData\Local\Temp\ccIwWLY5.s:486    .text.APPL_DMA_LTE_MQTT_PUBLISH_Raw:00000000 $t
C:\Users\minde\AppData\Local\Temp\ccIwWLY5.s:492    .text.APPL_DMA_LTE_MQTT_PUBLISH_Raw:00000000 APPL_DMA_LTE_MQTT_PUBLISH_Raw
C:\Users\minde\AppData\Local\Temp\ccIwWLY5.s:570    .text.APPL_DMA_LTE_MQTT_PUBLISH_Raw:0000003c $d
C:\Users\minde\AppData\Local\Temp\ccIwWLY5.s:579    .rodata.APPL_DMA_LTE_SIM7000G_Init.str1.4:00000000 $d
C:\Users\minde\AppData\Local\Temp\ccIwWLY5.s:583    .text.APPL_DMA_LTE_SIM7000G_Init:00000000 $t
C:\Users\minde\AppData\Local\Temp\ccIwWLY5.s:589    .text.APPL_DMA_LTE_SIM7000G_Init:00000000 APPL_DMA_LTE_SIM7000G_Init
C:\Users\minde\AppData\Local\Temp\ccIwWLY5.s:637    .text.APPL_DMA_LTE_SIM7000G_Init:00000030 $d
C:\Users\minde\AppData\Local\Temp\ccIwWLY5.s:644    .text.APPL_DMA_LTE_SIM7000G_Error_Handel:00000000 $t
C:\Users\minde\AppData\Local\Temp\ccIwWLY5.s:650    .text.APPL_DMA_LTE_SIM7000G_Error_Handel:00000000 APPL_DMA_LTE_SIM7000G_Error_Handel
C:\Users\minde\AppData\Local\Temp\ccIwWLY5.s:663    .text.APPL_DMA_LTE_LineProcess:00000000 $t
C:\Users\minde\AppData\Local\Temp\ccIwWLY5.s:669    .text.APPL_DMA_LTE_LineProcess:00000000 APPL_DMA_LTE_LineProcess
C:\Users\minde\AppData\Local\Temp\ccIwWLY5.s:716    .text.APPL_DMA_LTE_LineProcess:00000030 $d
C:\Users\minde\AppData\Local\Temp\ccIwWLY5.s:722    .text.APPL_DMA_LTE_Error:00000000 $t
C:\Users\minde\AppData\Local\Temp\ccIwWLY5.s:728    .text.APPL_DMA_LTE_Error:00000000 APPL_DMA_LTE_Error
C:\Users\minde\AppData\Local\Temp\ccIwWLY5.s:762    .text.APPL_DMA_LTE_Error:00000018 $d
C:\Users\minde\AppData\Local\Temp\ccIwWLY5.s:768    .text.APPL_DMA_LTE_APP:00000000 $t
C:\Users\minde\AppData\Local\Temp\ccIwWLY5.s:774    .text.APPL_DMA_LTE_APP:00000000 APPL_DMA_LTE_APP
C:\Users\minde\AppData\Local\Temp\ccIwWLY5.s:841    .bss.APPL_DMA_LTE_CMD_PAPP:00000000 APPL_DMA_LTE_CMD_PAPP
C:\Users\minde\AppData\Local\Temp\ccIwWLY5.s:822    .bss.APPL_DMA_LTE_CMD_APP:00000000 APPL_DMA_LTE_CMD_APP
C:\Users\minde\AppData\Local\Temp\ccIwWLY5.s:828    .bss.APPL_DMA_LTE_CMD_Error:00000000 APPL_DMA_LTE_CMD_Error
C:\Users\minde\AppData\Local\Temp\ccIwWLY5.s:835    .bss.APPL_DMA_LTE_CMD_OK:00000000 APPL_DMA_LTE_CMD_OK
C:\Users\minde\AppData\Local\Temp\ccIwWLY5.s:809    .bss.APPL_DMA_LTE_Buffer:00000000 APPL_DMA_LTE_Buffer
C:\Users\minde\AppData\Local\Temp\ccIwWLY5.s:816    .bss.APPL_DMA_LTE_Buffer_d:00000000 APPL_DMA_LTE_Buffer_d
C:\Users\minde\AppData\Local\Temp\ccIwWLY5.s:868    .bss.APPL_DMA_LTE_Step_Init:00000000 APPL_DMA_LTE_Step_Init
C:\Users\minde\AppData\Local\Temp\ccIwWLY5.s:847    .bss.APPL_DMA_LTE_Init_Stage:00000000 APPL_DMA_LTE_Init_Stage
C:\Users\minde\AppData\Local\Temp\ccIwWLY5.s:854    .bss.APPL_DMA_LTE_MQTT_ONLINE:00000000 APPL_DMA_LTE_MQTT_ONLINE
C:\Users\minde\AppData\Local\Temp\ccIwWLY5.s:874    .bss.APPL_DMA_LTE_TimemerCount:00000000 APPL_DMA_LTE_TimemerCount
C:\Users\minde\AppData\Local\Temp\ccIwWLY5.s:861    .bss.APPL_DMA_LTE_SIM7000G_ErrorCount:00000000 APPL_DMA_LTE_SIM7000G_ErrorCount
C:\Users\minde\AppData\Local\Temp\ccIwWLY5.s:805    .bss.APPL_DMA_LTE_Buffer:00000000 $d
C:\Users\minde\AppData\Local\Temp\ccIwWLY5.s:812    .bss.APPL_DMA_LTE_Buffer_d:00000000 $d
C:\Users\minde\AppData\Local\Temp\ccIwWLY5.s:819    .bss.APPL_DMA_LTE_CMD_APP:00000000 $d
C:\Users\minde\AppData\Local\Temp\ccIwWLY5.s:825    .bss.APPL_DMA_LTE_CMD_Error:00000000 $d
C:\Users\minde\AppData\Local\Temp\ccIwWLY5.s:831    .bss.APPL_DMA_LTE_CMD_OK:00000000 $d
C:\Users\minde\AppData\Local\Temp\ccIwWLY5.s:838    .bss.APPL_DMA_LTE_CMD_PAPP:00000000 $d
C:\Users\minde\AppData\Local\Temp\ccIwWLY5.s:848    .bss.APPL_DMA_LTE_Init_Stage:00000000 $d
C:\Users\minde\AppData\Local\Temp\ccIwWLY5.s:850    .bss.APPL_DMA_LTE_MQTT_ONLINE:00000000 $d
C:\Users\minde\AppData\Local\Temp\ccIwWLY5.s:857    .bss.APPL_DMA_LTE_SIM7000G_ErrorCount:00000000 $d
C:\Users\minde\AppData\Local\Temp\ccIwWLY5.s:864    .bss.APPL_DMA_LTE_Step_Init:00000000 $d
C:\Users\minde\AppData\Local\Temp\ccIwWLY5.s:871    .bss.APPL_DMA_LTE_TimemerCount:00000000 $d

ARM GAS  C:\Users\minde\AppData\Local\Temp\ccIwWLY5.s 			page 27


UNDEFINED SYMBOLS
EKM_Buffer_Setup
EKM_Buffer_Reset
APPL_data
memset
vsprintf
strlen
HAL_UART_Transmit
huart1
EKM_CMD_RXPeek
EKM_CMD_LineProcess
