ARM GAS  C:\Users\minde\AppData\Local\Temp\ccgpsWlQ.s 			page 1


   1              		.cpu cortex-m4
   2              		.arch armv7e-m
   3              		.fpu fpv4-sp-d16
   4              		.eabi_attribute 27, 1
   5              		.eabi_attribute 28, 1
   6              		.eabi_attribute 20, 1
   7              		.eabi_attribute 21, 1
   8              		.eabi_attribute 23, 3
   9              		.eabi_attribute 24, 1
  10              		.eabi_attribute 25, 1
  11              		.eabi_attribute 26, 1
  12              		.eabi_attribute 30, 1
  13              		.eabi_attribute 34, 1
  14              		.eabi_attribute 18, 4
  15              		.file	"stm32l4xx_it.c"
  16              		.text
  17              	.Ltext0:
  18              		.cfi_sections	.debug_frame
  19              		.section	.rodata.NMI_Handler.str1.4,"aMS",%progbits,1
  20              		.align	2
  21              	.LC0:
  22 0000 4E4D495F 		.ascii	"NMI_Handler\015\012\000"
  22      48616E64 
  22      6C65720D 
  22      0A00
  23              		.section	.text.NMI_Handler,"ax",%progbits
  24              		.align	1
  25              		.global	NMI_Handler
  26              		.syntax unified
  27              		.thumb
  28              		.thumb_func
  30              	NMI_Handler:
  31              	.LFB288:
  32              		.file 1 "../02_OS/Core_REG/stm32l4xx_it.c"
   1:../02_OS/Core_REG/stm32l4xx_it.c **** /* USER CODE BEGIN Header */
   2:../02_OS/Core_REG/stm32l4xx_it.c **** /**
   3:../02_OS/Core_REG/stm32l4xx_it.c ****   ******************************************************************************
   4:../02_OS/Core_REG/stm32l4xx_it.c ****   * @file    stm32l4xx_it.c
   5:../02_OS/Core_REG/stm32l4xx_it.c ****   * @brief   Interrupt Service Routines.
   6:../02_OS/Core_REG/stm32l4xx_it.c ****   ******************************************************************************
   7:../02_OS/Core_REG/stm32l4xx_it.c ****   * @attention
   8:../02_OS/Core_REG/stm32l4xx_it.c ****   *
   9:../02_OS/Core_REG/stm32l4xx_it.c ****   * Copyright (c) 2022 STMicroelectronics.
  10:../02_OS/Core_REG/stm32l4xx_it.c ****   * All rights reserved.
  11:../02_OS/Core_REG/stm32l4xx_it.c ****   *
  12:../02_OS/Core_REG/stm32l4xx_it.c ****   * This software is licensed under terms that can be found in the LICENSE file
  13:../02_OS/Core_REG/stm32l4xx_it.c ****   * in the root directory of this software component.
  14:../02_OS/Core_REG/stm32l4xx_it.c ****   * If no LICENSE file comes with this software, it is provided AS-IS.
  15:../02_OS/Core_REG/stm32l4xx_it.c ****   *
  16:../02_OS/Core_REG/stm32l4xx_it.c ****   ******************************************************************************
  17:../02_OS/Core_REG/stm32l4xx_it.c ****   */
  18:../02_OS/Core_REG/stm32l4xx_it.c **** /* USER CODE END Header */
  19:../02_OS/Core_REG/stm32l4xx_it.c **** 
  20:../02_OS/Core_REG/stm32l4xx_it.c **** /* Includes ------------------------------------------------------------------*/
  21:../02_OS/Core_REG/stm32l4xx_it.c **** #include "main.h"
  22:../02_OS/Core_REG/stm32l4xx_it.c **** #include "stm32l4xx_it.h"
  23:../02_OS/Core_REG/stm32l4xx_it.c **** #include "EKM_Buffer.h"
ARM GAS  C:\Users\minde\AppData\Local\Temp\ccgpsWlQ.s 			page 2


  24:../02_OS/Core_REG/stm32l4xx_it.c **** #include "APPL_DMA_LTE.h"
  25:../02_OS/Core_REG/stm32l4xx_it.c **** #include "Appl_Data.h"
  26:../02_OS/Core_REG/stm32l4xx_it.c **** /* Private includes ----------------------------------------------------------*/
  27:../02_OS/Core_REG/stm32l4xx_it.c **** /* USER CODE BEGIN Includes */
  28:../02_OS/Core_REG/stm32l4xx_it.c **** /* USER CODE END Includes */
  29:../02_OS/Core_REG/stm32l4xx_it.c **** 
  30:../02_OS/Core_REG/stm32l4xx_it.c **** /* Private typedef -----------------------------------------------------------*/
  31:../02_OS/Core_REG/stm32l4xx_it.c **** /* USER CODE BEGIN TD */
  32:../02_OS/Core_REG/stm32l4xx_it.c **** 
  33:../02_OS/Core_REG/stm32l4xx_it.c **** /* USER CODE END TD */
  34:../02_OS/Core_REG/stm32l4xx_it.c **** 
  35:../02_OS/Core_REG/stm32l4xx_it.c **** /* Private define ------------------------------------------------------------*/
  36:../02_OS/Core_REG/stm32l4xx_it.c **** /* USER CODE BEGIN PD */
  37:../02_OS/Core_REG/stm32l4xx_it.c **** 
  38:../02_OS/Core_REG/stm32l4xx_it.c **** /* USER CODE END PD */
  39:../02_OS/Core_REG/stm32l4xx_it.c **** 
  40:../02_OS/Core_REG/stm32l4xx_it.c **** /* Private macro -------------------------------------------------------------*/
  41:../02_OS/Core_REG/stm32l4xx_it.c **** /* USER CODE BEGIN PM */
  42:../02_OS/Core_REG/stm32l4xx_it.c **** 
  43:../02_OS/Core_REG/stm32l4xx_it.c **** /* USER CODE END PM */
  44:../02_OS/Core_REG/stm32l4xx_it.c **** 
  45:../02_OS/Core_REG/stm32l4xx_it.c **** /* Private variables ---------------------------------------------------------*/
  46:../02_OS/Core_REG/stm32l4xx_it.c **** /* USER CODE BEGIN PV */
  47:../02_OS/Core_REG/stm32l4xx_it.c **** 
  48:../02_OS/Core_REG/stm32l4xx_it.c **** /* USER CODE END PV */
  49:../02_OS/Core_REG/stm32l4xx_it.c **** 
  50:../02_OS/Core_REG/stm32l4xx_it.c **** /* Private function prototypes -----------------------------------------------*/
  51:../02_OS/Core_REG/stm32l4xx_it.c **** /* USER CODE BEGIN PFP */
  52:../02_OS/Core_REG/stm32l4xx_it.c **** 
  53:../02_OS/Core_REG/stm32l4xx_it.c **** /* USER CODE END PFP */
  54:../02_OS/Core_REG/stm32l4xx_it.c **** 
  55:../02_OS/Core_REG/stm32l4xx_it.c **** /* Private user code ---------------------------------------------------------*/
  56:../02_OS/Core_REG/stm32l4xx_it.c **** /* USER CODE BEGIN 0 */
  57:../02_OS/Core_REG/stm32l4xx_it.c **** 
  58:../02_OS/Core_REG/stm32l4xx_it.c **** /* USER CODE END 0 */
  59:../02_OS/Core_REG/stm32l4xx_it.c **** 
  60:../02_OS/Core_REG/stm32l4xx_it.c **** /* External variables --------------------------------------------------------*/
  61:../02_OS/Core_REG/stm32l4xx_it.c **** extern PCD_HandleTypeDef hpcd_USB_FS;
  62:../02_OS/Core_REG/stm32l4xx_it.c **** extern UART_HandleTypeDef huart1;
  63:../02_OS/Core_REG/stm32l4xx_it.c **** extern UART_HandleTypeDef huart2;
  64:../02_OS/Core_REG/stm32l4xx_it.c **** /* USER CODE BEGIN EV */
  65:../02_OS/Core_REG/stm32l4xx_it.c **** extern void APPL_USB_printf(const char *format, ...);
  66:../02_OS/Core_REG/stm32l4xx_it.c **** /* USER CODE END EV */
  67:../02_OS/Core_REG/stm32l4xx_it.c **** 
  68:../02_OS/Core_REG/stm32l4xx_it.c **** /******************************************************************************/
  69:../02_OS/Core_REG/stm32l4xx_it.c **** /*           Cortex-M4 Processor Interruption and Exception Handlers          */
  70:../02_OS/Core_REG/stm32l4xx_it.c **** /******************************************************************************/
  71:../02_OS/Core_REG/stm32l4xx_it.c **** /**
  72:../02_OS/Core_REG/stm32l4xx_it.c ****   * @brief This function handles Non maskable interrupt.
  73:../02_OS/Core_REG/stm32l4xx_it.c ****   */
  74:../02_OS/Core_REG/stm32l4xx_it.c **** void NMI_Handler(void)
  75:../02_OS/Core_REG/stm32l4xx_it.c **** {
  33              		.loc 1 75 1 view -0
  34              		.cfi_startproc
  35              		@ Volatile: function does not return.
  36              		@ args = 0, pretend = 0, frame = 0
  37              		@ frame_needed = 0, uses_anonymous_args = 0
ARM GAS  C:\Users\minde\AppData\Local\Temp\ccgpsWlQ.s 			page 3


  38 0000 08B5     		push	{r3, lr}
  39              	.LCFI0:
  40              		.cfi_def_cfa_offset 8
  41              		.cfi_offset 3, -8
  42              		.cfi_offset 14, -4
  76:../02_OS/Core_REG/stm32l4xx_it.c ****   /* USER CODE BEGIN NonMaskableInt_IRQn 0 */
  77:../02_OS/Core_REG/stm32l4xx_it.c ****   APPL_USB_printf("NMI_Handler\r\n");
  43              		.loc 1 77 3 view .LVU1
  44 0002 0248     		ldr	r0, .L4
  45 0004 FFF7FEFF 		bl	APPL_USB_printf
  46              	.LVL0:
  47              	.L2:
  78:../02_OS/Core_REG/stm32l4xx_it.c ****   /* USER CODE END NonMaskableInt_IRQn 0 */
  79:../02_OS/Core_REG/stm32l4xx_it.c ****   /* USER CODE BEGIN NonMaskableInt_IRQn 1 */
  80:../02_OS/Core_REG/stm32l4xx_it.c ****   while (1)
  48              		.loc 1 80 3 discriminator 1 view .LVU2
  81:../02_OS/Core_REG/stm32l4xx_it.c ****   {
  82:../02_OS/Core_REG/stm32l4xx_it.c ****   }
  49              		.loc 1 82 3 discriminator 1 view .LVU3
  80:../02_OS/Core_REG/stm32l4xx_it.c ****   {
  50              		.loc 1 80 9 discriminator 1 view .LVU4
  51 0008 FEE7     		b	.L2
  52              	.L5:
  53 000a 00BF     		.align	2
  54              	.L4:
  55 000c 00000000 		.word	.LC0
  56              		.cfi_endproc
  57              	.LFE288:
  59              		.section	.rodata.HardFault_Handler.str1.4,"aMS",%progbits,1
  60              		.align	2
  61              	.LC1:
  62 0000 48617264 		.ascii	"HardFault_Handler\015\012\000"
  62      4661756C 
  62      745F4861 
  62      6E646C65 
  62      720D0A00 
  63              		.section	.text.HardFault_Handler,"ax",%progbits
  64              		.align	1
  65              		.global	HardFault_Handler
  66              		.syntax unified
  67              		.thumb
  68              		.thumb_func
  70              	HardFault_Handler:
  71              	.LFB289:
  83:../02_OS/Core_REG/stm32l4xx_it.c ****   /* USER CODE END NonMaskableInt_IRQn 1 */
  84:../02_OS/Core_REG/stm32l4xx_it.c **** }
  85:../02_OS/Core_REG/stm32l4xx_it.c **** 
  86:../02_OS/Core_REG/stm32l4xx_it.c **** /**
  87:../02_OS/Core_REG/stm32l4xx_it.c ****   * @brief This function handles Hard fault interrupt.
  88:../02_OS/Core_REG/stm32l4xx_it.c ****   */
  89:../02_OS/Core_REG/stm32l4xx_it.c **** void HardFault_Handler(void)
  90:../02_OS/Core_REG/stm32l4xx_it.c **** {
  72              		.loc 1 90 1 view -0
  73              		.cfi_startproc
  74              		@ Volatile: function does not return.
  75              		@ args = 0, pretend = 0, frame = 0
  76              		@ frame_needed = 0, uses_anonymous_args = 0
ARM GAS  C:\Users\minde\AppData\Local\Temp\ccgpsWlQ.s 			page 4


  77 0000 08B5     		push	{r3, lr}
  78              	.LCFI1:
  79              		.cfi_def_cfa_offset 8
  80              		.cfi_offset 3, -8
  81              		.cfi_offset 14, -4
  91:../02_OS/Core_REG/stm32l4xx_it.c ****   /* USER CODE BEGIN HardFault_IRQn 0 */
  92:../02_OS/Core_REG/stm32l4xx_it.c ****   APPL_USB_printf("HardFault_Handler\r\n");
  82              		.loc 1 92 3 view .LVU6
  83 0002 0248     		ldr	r0, .L9
  84 0004 FFF7FEFF 		bl	APPL_USB_printf
  85              	.LVL1:
  86              	.L7:
  93:../02_OS/Core_REG/stm32l4xx_it.c ****   /* USER CODE END HardFault_IRQn 0 */
  94:../02_OS/Core_REG/stm32l4xx_it.c ****   while (1)
  87              		.loc 1 94 3 discriminator 1 view .LVU7
  95:../02_OS/Core_REG/stm32l4xx_it.c ****   {
  96:../02_OS/Core_REG/stm32l4xx_it.c ****     /* USER CODE BEGIN W1_HardFault_IRQn 0 */
  97:../02_OS/Core_REG/stm32l4xx_it.c ****     /* USER CODE END W1_HardFault_IRQn 0 */
  98:../02_OS/Core_REG/stm32l4xx_it.c ****   }
  88              		.loc 1 98 3 discriminator 1 view .LVU8
  94:../02_OS/Core_REG/stm32l4xx_it.c ****   {
  89              		.loc 1 94 9 discriminator 1 view .LVU9
  90 0008 FEE7     		b	.L7
  91              	.L10:
  92 000a 00BF     		.align	2
  93              	.L9:
  94 000c 00000000 		.word	.LC1
  95              		.cfi_endproc
  96              	.LFE289:
  98              		.section	.rodata.MemManage_Handler.str1.4,"aMS",%progbits,1
  99              		.align	2
 100              	.LC2:
 101 0000 4D656D4D 		.ascii	"MemManage_Handler\015\012\000"
 101      616E6167 
 101      655F4861 
 101      6E646C65 
 101      720D0A00 
 102              		.section	.text.MemManage_Handler,"ax",%progbits
 103              		.align	1
 104              		.global	MemManage_Handler
 105              		.syntax unified
 106              		.thumb
 107              		.thumb_func
 109              	MemManage_Handler:
 110              	.LFB290:
  99:../02_OS/Core_REG/stm32l4xx_it.c **** }
 100:../02_OS/Core_REG/stm32l4xx_it.c **** 
 101:../02_OS/Core_REG/stm32l4xx_it.c **** /**
 102:../02_OS/Core_REG/stm32l4xx_it.c ****   * @brief This function handles Memory management fault.
 103:../02_OS/Core_REG/stm32l4xx_it.c ****   */
 104:../02_OS/Core_REG/stm32l4xx_it.c **** void MemManage_Handler(void)
 105:../02_OS/Core_REG/stm32l4xx_it.c **** {
 111              		.loc 1 105 1 view -0
 112              		.cfi_startproc
 113              		@ Volatile: function does not return.
 114              		@ args = 0, pretend = 0, frame = 0
 115              		@ frame_needed = 0, uses_anonymous_args = 0
ARM GAS  C:\Users\minde\AppData\Local\Temp\ccgpsWlQ.s 			page 5


 116 0000 08B5     		push	{r3, lr}
 117              	.LCFI2:
 118              		.cfi_def_cfa_offset 8
 119              		.cfi_offset 3, -8
 120              		.cfi_offset 14, -4
 106:../02_OS/Core_REG/stm32l4xx_it.c ****   /* USER CODE BEGIN MemoryManagement_IRQn 0 */
 107:../02_OS/Core_REG/stm32l4xx_it.c ****   APPL_USB_printf("MemManage_Handler\r\n");
 121              		.loc 1 107 3 view .LVU11
 122 0002 0248     		ldr	r0, .L14
 123 0004 FFF7FEFF 		bl	APPL_USB_printf
 124              	.LVL2:
 125              	.L12:
 108:../02_OS/Core_REG/stm32l4xx_it.c ****   /* USER CODE END MemoryManagement_IRQn 0 */
 109:../02_OS/Core_REG/stm32l4xx_it.c ****   while (1)
 126              		.loc 1 109 3 discriminator 1 view .LVU12
 110:../02_OS/Core_REG/stm32l4xx_it.c ****   {
 111:../02_OS/Core_REG/stm32l4xx_it.c ****     /* USER CODE BEGIN W1_MemoryManagement_IRQn 0 */
 112:../02_OS/Core_REG/stm32l4xx_it.c ****     /* USER CODE END W1_MemoryManagement_IRQn 0 */
 113:../02_OS/Core_REG/stm32l4xx_it.c ****   }
 127              		.loc 1 113 3 discriminator 1 view .LVU13
 109:../02_OS/Core_REG/stm32l4xx_it.c ****   {
 128              		.loc 1 109 9 discriminator 1 view .LVU14
 129 0008 FEE7     		b	.L12
 130              	.L15:
 131 000a 00BF     		.align	2
 132              	.L14:
 133 000c 00000000 		.word	.LC2
 134              		.cfi_endproc
 135              	.LFE290:
 137              		.section	.rodata.BusFault_Handler.str1.4,"aMS",%progbits,1
 138              		.align	2
 139              	.LC3:
 140 0000 42757346 		.ascii	"BusFault_Handler\015\012\000"
 140      61756C74 
 140      5F48616E 
 140      646C6572 
 140      0D0A00
 141              		.section	.text.BusFault_Handler,"ax",%progbits
 142              		.align	1
 143              		.global	BusFault_Handler
 144              		.syntax unified
 145              		.thumb
 146              		.thumb_func
 148              	BusFault_Handler:
 149              	.LFB291:
 114:../02_OS/Core_REG/stm32l4xx_it.c **** }
 115:../02_OS/Core_REG/stm32l4xx_it.c **** 
 116:../02_OS/Core_REG/stm32l4xx_it.c **** /**
 117:../02_OS/Core_REG/stm32l4xx_it.c ****   * @brief This function handles Prefetch fault, memory access fault.
 118:../02_OS/Core_REG/stm32l4xx_it.c ****   */
 119:../02_OS/Core_REG/stm32l4xx_it.c **** void BusFault_Handler(void)
 120:../02_OS/Core_REG/stm32l4xx_it.c **** {
 150              		.loc 1 120 1 view -0
 151              		.cfi_startproc
 152              		@ Volatile: function does not return.
 153              		@ args = 0, pretend = 0, frame = 0
 154              		@ frame_needed = 0, uses_anonymous_args = 0
ARM GAS  C:\Users\minde\AppData\Local\Temp\ccgpsWlQ.s 			page 6


 155 0000 08B5     		push	{r3, lr}
 156              	.LCFI3:
 157              		.cfi_def_cfa_offset 8
 158              		.cfi_offset 3, -8
 159              		.cfi_offset 14, -4
 121:../02_OS/Core_REG/stm32l4xx_it.c ****   /* USER CODE BEGIN BusFault_IRQn 0 */
 122:../02_OS/Core_REG/stm32l4xx_it.c ****   APPL_USB_printf("BusFault_Handler\r\n");
 160              		.loc 1 122 3 view .LVU16
 161 0002 0248     		ldr	r0, .L19
 162 0004 FFF7FEFF 		bl	APPL_USB_printf
 163              	.LVL3:
 164              	.L17:
 123:../02_OS/Core_REG/stm32l4xx_it.c ****   /* USER CODE END BusFault_IRQn 0 */
 124:../02_OS/Core_REG/stm32l4xx_it.c ****   while (1)
 165              		.loc 1 124 3 discriminator 1 view .LVU17
 125:../02_OS/Core_REG/stm32l4xx_it.c ****   {
 126:../02_OS/Core_REG/stm32l4xx_it.c ****     /* USER CODE BEGIN W1_BusFault_IRQn 0 */
 127:../02_OS/Core_REG/stm32l4xx_it.c ****     /* USER CODE END W1_BusFault_IRQn 0 */
 128:../02_OS/Core_REG/stm32l4xx_it.c ****   }
 166              		.loc 1 128 3 discriminator 1 view .LVU18
 124:../02_OS/Core_REG/stm32l4xx_it.c ****   {
 167              		.loc 1 124 9 discriminator 1 view .LVU19
 168 0008 FEE7     		b	.L17
 169              	.L20:
 170 000a 00BF     		.align	2
 171              	.L19:
 172 000c 00000000 		.word	.LC3
 173              		.cfi_endproc
 174              	.LFE291:
 176              		.section	.rodata.UsageFault_Handler.str1.4,"aMS",%progbits,1
 177              		.align	2
 178              	.LC4:
 179 0000 55736167 		.ascii	"UsageFault_Handler\015\012\000"
 179      65466175 
 179      6C745F48 
 179      616E646C 
 179      65720D0A 
 180              		.section	.text.UsageFault_Handler,"ax",%progbits
 181              		.align	1
 182              		.global	UsageFault_Handler
 183              		.syntax unified
 184              		.thumb
 185              		.thumb_func
 187              	UsageFault_Handler:
 188              	.LFB292:
 129:../02_OS/Core_REG/stm32l4xx_it.c **** }
 130:../02_OS/Core_REG/stm32l4xx_it.c **** 
 131:../02_OS/Core_REG/stm32l4xx_it.c **** /**
 132:../02_OS/Core_REG/stm32l4xx_it.c ****   * @brief This function handles Undefined instruction or illegal state.
 133:../02_OS/Core_REG/stm32l4xx_it.c ****   */
 134:../02_OS/Core_REG/stm32l4xx_it.c **** void UsageFault_Handler(void)
 135:../02_OS/Core_REG/stm32l4xx_it.c **** {
 189              		.loc 1 135 1 view -0
 190              		.cfi_startproc
 191              		@ Volatile: function does not return.
 192              		@ args = 0, pretend = 0, frame = 0
 193              		@ frame_needed = 0, uses_anonymous_args = 0
ARM GAS  C:\Users\minde\AppData\Local\Temp\ccgpsWlQ.s 			page 7


 194 0000 08B5     		push	{r3, lr}
 195              	.LCFI4:
 196              		.cfi_def_cfa_offset 8
 197              		.cfi_offset 3, -8
 198              		.cfi_offset 14, -4
 136:../02_OS/Core_REG/stm32l4xx_it.c ****   /* USER CODE BEGIN UsageFault_IRQn 0 */
 137:../02_OS/Core_REG/stm32l4xx_it.c ****   APPL_USB_printf("UsageFault_Handler\r\n");
 199              		.loc 1 137 3 view .LVU21
 200 0002 0248     		ldr	r0, .L24
 201 0004 FFF7FEFF 		bl	APPL_USB_printf
 202              	.LVL4:
 203              	.L22:
 138:../02_OS/Core_REG/stm32l4xx_it.c ****   /* USER CODE END UsageFault_IRQn 0 */
 139:../02_OS/Core_REG/stm32l4xx_it.c ****   while (1)
 204              		.loc 1 139 3 discriminator 1 view .LVU22
 140:../02_OS/Core_REG/stm32l4xx_it.c ****   {
 141:../02_OS/Core_REG/stm32l4xx_it.c ****     /* USER CODE BEGIN W1_UsageFault_IRQn 0 */
 142:../02_OS/Core_REG/stm32l4xx_it.c ****     /* USER CODE END W1_UsageFault_IRQn 0 */
 143:../02_OS/Core_REG/stm32l4xx_it.c ****   }
 205              		.loc 1 143 3 discriminator 1 view .LVU23
 139:../02_OS/Core_REG/stm32l4xx_it.c ****   {
 206              		.loc 1 139 9 discriminator 1 view .LVU24
 207 0008 FEE7     		b	.L22
 208              	.L25:
 209 000a 00BF     		.align	2
 210              	.L24:
 211 000c 00000000 		.word	.LC4
 212              		.cfi_endproc
 213              	.LFE292:
 215              		.section	.rodata.SVC_Handler.str1.4,"aMS",%progbits,1
 216              		.align	2
 217              	.LC5:
 218 0000 5356435F 		.ascii	"SVC_Handler\015\012\000"
 218      48616E64 
 218      6C65720D 
 218      0A00
 219              		.section	.text.SVC_Handler,"ax",%progbits
 220              		.align	1
 221              		.global	SVC_Handler
 222              		.syntax unified
 223              		.thumb
 224              		.thumb_func
 226              	SVC_Handler:
 227              	.LFB293:
 144:../02_OS/Core_REG/stm32l4xx_it.c **** }
 145:../02_OS/Core_REG/stm32l4xx_it.c **** 
 146:../02_OS/Core_REG/stm32l4xx_it.c **** /**
 147:../02_OS/Core_REG/stm32l4xx_it.c ****   * @brief This function handles System service call via SWI instruction.
 148:../02_OS/Core_REG/stm32l4xx_it.c ****   */
 149:../02_OS/Core_REG/stm32l4xx_it.c **** void SVC_Handler(void)
 150:../02_OS/Core_REG/stm32l4xx_it.c **** {
 228              		.loc 1 150 1 view -0
 229              		.cfi_startproc
 230              		@ args = 0, pretend = 0, frame = 0
 231              		@ frame_needed = 0, uses_anonymous_args = 0
 232 0000 08B5     		push	{r3, lr}
 233              	.LCFI5:
ARM GAS  C:\Users\minde\AppData\Local\Temp\ccgpsWlQ.s 			page 8


 234              		.cfi_def_cfa_offset 8
 235              		.cfi_offset 3, -8
 236              		.cfi_offset 14, -4
 151:../02_OS/Core_REG/stm32l4xx_it.c ****   /* USER CODE BEGIN SVCall_IRQn 0 */
 152:../02_OS/Core_REG/stm32l4xx_it.c ****   APPL_USB_printf("SVC_Handler\r\n");
 237              		.loc 1 152 3 view .LVU26
 238 0002 0248     		ldr	r0, .L28
 239 0004 FFF7FEFF 		bl	APPL_USB_printf
 240              	.LVL5:
 153:../02_OS/Core_REG/stm32l4xx_it.c ****   /* USER CODE END SVCall_IRQn 0 */
 154:../02_OS/Core_REG/stm32l4xx_it.c ****   /* USER CODE BEGIN SVCall_IRQn 1 */
 155:../02_OS/Core_REG/stm32l4xx_it.c **** 
 156:../02_OS/Core_REG/stm32l4xx_it.c ****   /* USER CODE END SVCall_IRQn 1 */
 157:../02_OS/Core_REG/stm32l4xx_it.c **** }
 241              		.loc 1 157 1 is_stmt 0 view .LVU27
 242 0008 08BD     		pop	{r3, pc}
 243              	.L29:
 244 000a 00BF     		.align	2
 245              	.L28:
 246 000c 00000000 		.word	.LC5
 247              		.cfi_endproc
 248              	.LFE293:
 250              		.section	.rodata.DebugMon_Handler.str1.4,"aMS",%progbits,1
 251              		.align	2
 252              	.LC6:
 253 0000 44656275 		.ascii	"DebugMon_Handler\015\012\000"
 253      674D6F6E 
 253      5F48616E 
 253      646C6572 
 253      0D0A00
 254              		.section	.text.DebugMon_Handler,"ax",%progbits
 255              		.align	1
 256              		.global	DebugMon_Handler
 257              		.syntax unified
 258              		.thumb
 259              		.thumb_func
 261              	DebugMon_Handler:
 262              	.LFB294:
 158:../02_OS/Core_REG/stm32l4xx_it.c **** 
 159:../02_OS/Core_REG/stm32l4xx_it.c **** /**
 160:../02_OS/Core_REG/stm32l4xx_it.c ****   * @brief This function handles Debug monitor.
 161:../02_OS/Core_REG/stm32l4xx_it.c ****   */
 162:../02_OS/Core_REG/stm32l4xx_it.c **** void DebugMon_Handler(void)
 163:../02_OS/Core_REG/stm32l4xx_it.c **** {
 263              		.loc 1 163 1 is_stmt 1 view -0
 264              		.cfi_startproc
 265              		@ args = 0, pretend = 0, frame = 0
 266              		@ frame_needed = 0, uses_anonymous_args = 0
 267 0000 08B5     		push	{r3, lr}
 268              	.LCFI6:
 269              		.cfi_def_cfa_offset 8
 270              		.cfi_offset 3, -8
 271              		.cfi_offset 14, -4
 164:../02_OS/Core_REG/stm32l4xx_it.c ****   /* USER CODE BEGIN DebugMonitor_IRQn 0 */
 165:../02_OS/Core_REG/stm32l4xx_it.c ****   APPL_USB_printf("DebugMon_Handler\r\n");
 272              		.loc 1 165 3 view .LVU29
 273 0002 0248     		ldr	r0, .L32
ARM GAS  C:\Users\minde\AppData\Local\Temp\ccgpsWlQ.s 			page 9


 274 0004 FFF7FEFF 		bl	APPL_USB_printf
 275              	.LVL6:
 166:../02_OS/Core_REG/stm32l4xx_it.c ****   /* USER CODE END DebugMonitor_IRQn 0 */
 167:../02_OS/Core_REG/stm32l4xx_it.c ****   /* USER CODE BEGIN DebugMonitor_IRQn 1 */
 168:../02_OS/Core_REG/stm32l4xx_it.c **** 
 169:../02_OS/Core_REG/stm32l4xx_it.c ****   /* USER CODE END DebugMonitor_IRQn 1 */
 170:../02_OS/Core_REG/stm32l4xx_it.c **** }
 276              		.loc 1 170 1 is_stmt 0 view .LVU30
 277 0008 08BD     		pop	{r3, pc}
 278              	.L33:
 279 000a 00BF     		.align	2
 280              	.L32:
 281 000c 00000000 		.word	.LC6
 282              		.cfi_endproc
 283              	.LFE294:
 285              		.section	.rodata.PendSV_Handler.str1.4,"aMS",%progbits,1
 286              		.align	2
 287              	.LC7:
 288 0000 50656E64 		.ascii	"PendSV_Handler\015\012\000"
 288      53565F48 
 288      616E646C 
 288      65720D0A 
 288      00
 289              		.section	.text.PendSV_Handler,"ax",%progbits
 290              		.align	1
 291              		.global	PendSV_Handler
 292              		.syntax unified
 293              		.thumb
 294              		.thumb_func
 296              	PendSV_Handler:
 297              	.LFB295:
 171:../02_OS/Core_REG/stm32l4xx_it.c **** 
 172:../02_OS/Core_REG/stm32l4xx_it.c **** /**
 173:../02_OS/Core_REG/stm32l4xx_it.c ****   * @brief This function handles Pendable request for system service.
 174:../02_OS/Core_REG/stm32l4xx_it.c ****   */
 175:../02_OS/Core_REG/stm32l4xx_it.c **** void PendSV_Handler(void)
 176:../02_OS/Core_REG/stm32l4xx_it.c **** {
 298              		.loc 1 176 1 is_stmt 1 view -0
 299              		.cfi_startproc
 300              		@ args = 0, pretend = 0, frame = 0
 301              		@ frame_needed = 0, uses_anonymous_args = 0
 302 0000 08B5     		push	{r3, lr}
 303              	.LCFI7:
 304              		.cfi_def_cfa_offset 8
 305              		.cfi_offset 3, -8
 306              		.cfi_offset 14, -4
 177:../02_OS/Core_REG/stm32l4xx_it.c ****   /* USER CODE BEGIN PendSV_IRQn 0 */
 178:../02_OS/Core_REG/stm32l4xx_it.c ****   APPL_USB_printf("PendSV_Handler\r\n");
 307              		.loc 1 178 3 view .LVU32
 308 0002 0248     		ldr	r0, .L36
 309 0004 FFF7FEFF 		bl	APPL_USB_printf
 310              	.LVL7:
 179:../02_OS/Core_REG/stm32l4xx_it.c ****   /* USER CODE END PendSV_IRQn 0 */
 180:../02_OS/Core_REG/stm32l4xx_it.c ****   /* USER CODE BEGIN PendSV_IRQn 1 */
 181:../02_OS/Core_REG/stm32l4xx_it.c **** 
 182:../02_OS/Core_REG/stm32l4xx_it.c ****   /* USER CODE END PendSV_IRQn 1 */
 183:../02_OS/Core_REG/stm32l4xx_it.c **** }
ARM GAS  C:\Users\minde\AppData\Local\Temp\ccgpsWlQ.s 			page 10


 311              		.loc 1 183 1 is_stmt 0 view .LVU33
 312 0008 08BD     		pop	{r3, pc}
 313              	.L37:
 314 000a 00BF     		.align	2
 315              	.L36:
 316 000c 00000000 		.word	.LC7
 317              		.cfi_endproc
 318              	.LFE295:
 320              		.section	.text.SysTick_Handler,"ax",%progbits
 321              		.align	1
 322              		.global	SysTick_Handler
 323              		.syntax unified
 324              		.thumb
 325              		.thumb_func
 327              	SysTick_Handler:
 328              	.LFB296:
 184:../02_OS/Core_REG/stm32l4xx_it.c **** 
 185:../02_OS/Core_REG/stm32l4xx_it.c **** /**
 186:../02_OS/Core_REG/stm32l4xx_it.c ****   * @brief This function handles System tick timer.
 187:../02_OS/Core_REG/stm32l4xx_it.c ****   */
 188:../02_OS/Core_REG/stm32l4xx_it.c **** void SysTick_Handler(void)
 189:../02_OS/Core_REG/stm32l4xx_it.c **** {
 329              		.loc 1 189 1 is_stmt 1 view -0
 330              		.cfi_startproc
 331              		@ args = 0, pretend = 0, frame = 0
 332              		@ frame_needed = 0, uses_anonymous_args = 0
 333 0000 08B5     		push	{r3, lr}
 334              	.LCFI8:
 335              		.cfi_def_cfa_offset 8
 336              		.cfi_offset 3, -8
 337              		.cfi_offset 14, -4
 190:../02_OS/Core_REG/stm32l4xx_it.c ****   /* USER CODE BEGIN SysTick_IRQn 0 */
 191:../02_OS/Core_REG/stm32l4xx_it.c ****   Systick_count++;
 338              		.loc 1 191 3 view .LVU35
 339              		.loc 1 191 16 is_stmt 0 view .LVU36
 340 0002 034A     		ldr	r2, .L40
 341 0004 1388     		ldrh	r3, [r2]
 342 0006 0133     		adds	r3, r3, #1
 343 0008 1380     		strh	r3, [r2]	@ movhi
 192:../02_OS/Core_REG/stm32l4xx_it.c ****   /* USER CODE END SysTick_IRQn 0 */
 193:../02_OS/Core_REG/stm32l4xx_it.c ****   HAL_IncTick();
 344              		.loc 1 193 3 is_stmt 1 view .LVU37
 345 000a FFF7FEFF 		bl	HAL_IncTick
 346              	.LVL8:
 194:../02_OS/Core_REG/stm32l4xx_it.c ****   /* USER CODE BEGIN SysTick_IRQn 1 */
 195:../02_OS/Core_REG/stm32l4xx_it.c **** 
 196:../02_OS/Core_REG/stm32l4xx_it.c ****   /* USER CODE END SysTick_IRQn 1 */
 197:../02_OS/Core_REG/stm32l4xx_it.c **** }
 347              		.loc 1 197 1 is_stmt 0 view .LVU38
 348 000e 08BD     		pop	{r3, pc}
 349              	.L41:
 350              		.align	2
 351              	.L40:
 352 0010 00000000 		.word	Systick_count
 353              		.cfi_endproc
 354              	.LFE296:
 356              		.section	.text.USART1_IRQHandler,"ax",%progbits
ARM GAS  C:\Users\minde\AppData\Local\Temp\ccgpsWlQ.s 			page 11


 357              		.align	1
 358              		.global	USART1_IRQHandler
 359              		.syntax unified
 360              		.thumb
 361              		.thumb_func
 363              	USART1_IRQHandler:
 364              	.LFB297:
 198:../02_OS/Core_REG/stm32l4xx_it.c **** 
 199:../02_OS/Core_REG/stm32l4xx_it.c **** /******************************************************************************/
 200:../02_OS/Core_REG/stm32l4xx_it.c **** /* STM32L4xx Peripheral Interrupt Handlers                                    */
 201:../02_OS/Core_REG/stm32l4xx_it.c **** /* Add here the Interrupt Handlers for the used peripherals.                  */
 202:../02_OS/Core_REG/stm32l4xx_it.c **** /* For the available peripheral interrupt handler names,                      */
 203:../02_OS/Core_REG/stm32l4xx_it.c **** /* please refer to the startup file (startup_stm32l4xx.s).                    */
 204:../02_OS/Core_REG/stm32l4xx_it.c **** /******************************************************************************/
 205:../02_OS/Core_REG/stm32l4xx_it.c **** 
 206:../02_OS/Core_REG/stm32l4xx_it.c **** /**
 207:../02_OS/Core_REG/stm32l4xx_it.c ****   * @brief This function handles USART1 global interrupt.
 208:../02_OS/Core_REG/stm32l4xx_it.c ****   */
 209:../02_OS/Core_REG/stm32l4xx_it.c **** void USART1_IRQHandler(void)
 210:../02_OS/Core_REG/stm32l4xx_it.c **** {
 365              		.loc 1 210 1 is_stmt 1 view -0
 366              		.cfi_startproc
 367              		@ args = 0, pretend = 0, frame = 0
 368              		@ frame_needed = 0, uses_anonymous_args = 0
 369 0000 08B5     		push	{r3, lr}
 370              	.LCFI9:
 371              		.cfi_def_cfa_offset 8
 372              		.cfi_offset 3, -8
 373              		.cfi_offset 14, -4
 211:../02_OS/Core_REG/stm32l4xx_it.c ****   /* USER CODE BEGIN USART1_IRQn 0 */
 212:../02_OS/Core_REG/stm32l4xx_it.c ****   uint8_t c = huart1.Instance->RDR;
 374              		.loc 1 212 3 view .LVU40
 375              		.loc 1 212 21 is_stmt 0 view .LVU41
 376 0002 044B     		ldr	r3, .L44
 377 0004 1B68     		ldr	r3, [r3]
 378              		.loc 1 212 30 view .LVU42
 379 0006 998C     		ldrh	r1, [r3, #36]
 380              	.LVL9:
 213:../02_OS/Core_REG/stm32l4xx_it.c ****   EKM_Buffer_Set(&APPL_DMA_LTE_Buffer, c);
 381              		.loc 1 213 3 is_stmt 1 view .LVU43
 382 0008 C9B2     		uxtb	r1, r1
 383              		.loc 1 213 3 is_stmt 0 view .LVU44
 384 000a 0348     		ldr	r0, .L44+4
 385 000c FFF7FEFF 		bl	EKM_Buffer_Set
 386              	.LVL10:
 214:../02_OS/Core_REG/stm32l4xx_it.c ****   return;
 387              		.loc 1 214 3 is_stmt 1 view .LVU45
 215:../02_OS/Core_REG/stm32l4xx_it.c ****   /* USER CODE END USART1_IRQn 0 */
 216:../02_OS/Core_REG/stm32l4xx_it.c ****   HAL_UART_IRQHandler(&huart1);
 217:../02_OS/Core_REG/stm32l4xx_it.c ****   /* USER CODE BEGIN USART1_IRQn 1 */
 218:../02_OS/Core_REG/stm32l4xx_it.c **** 
 219:../02_OS/Core_REG/stm32l4xx_it.c ****   /* USER CODE END USART1_IRQn 1 */
 220:../02_OS/Core_REG/stm32l4xx_it.c **** }
 388              		.loc 1 220 1 is_stmt 0 view .LVU46
 389 0010 08BD     		pop	{r3, pc}
 390              	.L45:
 391 0012 00BF     		.align	2
ARM GAS  C:\Users\minde\AppData\Local\Temp\ccgpsWlQ.s 			page 12


 392              	.L44:
 393 0014 00000000 		.word	huart1
 394 0018 00000000 		.word	APPL_DMA_LTE_Buffer
 395              		.cfi_endproc
 396              	.LFE297:
 398              		.section	.text.USART2_IRQHandler,"ax",%progbits
 399              		.align	1
 400              		.global	USART2_IRQHandler
 401              		.syntax unified
 402              		.thumb
 403              		.thumb_func
 405              	USART2_IRQHandler:
 406              	.LFB298:
 221:../02_OS/Core_REG/stm32l4xx_it.c **** 
 222:../02_OS/Core_REG/stm32l4xx_it.c **** /**
 223:../02_OS/Core_REG/stm32l4xx_it.c ****   * @brief This function handles USART2 global interrupt.
 224:../02_OS/Core_REG/stm32l4xx_it.c ****   */
 225:../02_OS/Core_REG/stm32l4xx_it.c **** void USART2_IRQHandler(void)
 226:../02_OS/Core_REG/stm32l4xx_it.c **** {
 407              		.loc 1 226 1 is_stmt 1 view -0
 408              		.cfi_startproc
 409              		@ args = 0, pretend = 0, frame = 0
 410              		@ frame_needed = 0, uses_anonymous_args = 0
 411 0000 08B5     		push	{r3, lr}
 412              	.LCFI10:
 413              		.cfi_def_cfa_offset 8
 414              		.cfi_offset 3, -8
 415              		.cfi_offset 14, -4
 227:../02_OS/Core_REG/stm32l4xx_it.c ****   /* USER CODE BEGIN USART2_IRQn 0 */
 228:../02_OS/Core_REG/stm32l4xx_it.c ****   uint8_t c = huart2.Instance->RDR;
 416              		.loc 1 228 3 view .LVU48
 417              		.loc 1 228 21 is_stmt 0 view .LVU49
 418 0002 034B     		ldr	r3, .L48
 419 0004 1B68     		ldr	r3, [r3]
 420              		.loc 1 228 30 view .LVU50
 421 0006 988C     		ldrh	r0, [r3, #36]
 422              	.LVL11:
 229:../02_OS/Core_REG/stm32l4xx_it.c ****   APPL_Data_RS485_Set(c);
 423              		.loc 1 229 3 is_stmt 1 view .LVU51
 424 0008 C0B2     		uxtb	r0, r0
 425              		.loc 1 229 3 is_stmt 0 view .LVU52
 426 000a FFF7FEFF 		bl	APPL_Data_RS485_Set
 427              	.LVL12:
 230:../02_OS/Core_REG/stm32l4xx_it.c ****   return;
 428              		.loc 1 230 3 is_stmt 1 view .LVU53
 231:../02_OS/Core_REG/stm32l4xx_it.c ****   /* USER CODE END USART2_IRQn 0 */
 232:../02_OS/Core_REG/stm32l4xx_it.c ****   HAL_UART_IRQHandler(&huart2);
 233:../02_OS/Core_REG/stm32l4xx_it.c ****   /* USER CODE BEGIN USART2_IRQn 1 */
 234:../02_OS/Core_REG/stm32l4xx_it.c **** 
 235:../02_OS/Core_REG/stm32l4xx_it.c ****   /* USER CODE END USART2_IRQn 1 */
 236:../02_OS/Core_REG/stm32l4xx_it.c **** }
 429              		.loc 1 236 1 is_stmt 0 view .LVU54
 430 000e 08BD     		pop	{r3, pc}
 431              	.L49:
 432              		.align	2
 433              	.L48:
 434 0010 00000000 		.word	huart2
ARM GAS  C:\Users\minde\AppData\Local\Temp\ccgpsWlQ.s 			page 13


 435              		.cfi_endproc
 436              	.LFE298:
 438              		.section	.text.USB_IRQHandler,"ax",%progbits
 439              		.align	1
 440              		.global	USB_IRQHandler
 441              		.syntax unified
 442              		.thumb
 443              		.thumb_func
 445              	USB_IRQHandler:
 446              	.LFB299:
 237:../02_OS/Core_REG/stm32l4xx_it.c **** 
 238:../02_OS/Core_REG/stm32l4xx_it.c **** /**
 239:../02_OS/Core_REG/stm32l4xx_it.c ****   * @brief This function handles USB event interrupt through EXTI line 17.
 240:../02_OS/Core_REG/stm32l4xx_it.c ****   */
 241:../02_OS/Core_REG/stm32l4xx_it.c **** void USB_IRQHandler(void)
 242:../02_OS/Core_REG/stm32l4xx_it.c **** {
 447              		.loc 1 242 1 is_stmt 1 view -0
 448              		.cfi_startproc
 449              		@ args = 0, pretend = 0, frame = 0
 450              		@ frame_needed = 0, uses_anonymous_args = 0
 451 0000 08B5     		push	{r3, lr}
 452              	.LCFI11:
 453              		.cfi_def_cfa_offset 8
 454              		.cfi_offset 3, -8
 455              		.cfi_offset 14, -4
 243:../02_OS/Core_REG/stm32l4xx_it.c ****   /* USER CODE BEGIN USB_IRQn 0 */
 244:../02_OS/Core_REG/stm32l4xx_it.c **** 
 245:../02_OS/Core_REG/stm32l4xx_it.c ****   /* USER CODE END USB_IRQn 0 */
 246:../02_OS/Core_REG/stm32l4xx_it.c ****   HAL_PCD_IRQHandler(&hpcd_USB_FS);
 456              		.loc 1 246 3 view .LVU56
 457 0002 0248     		ldr	r0, .L52
 458 0004 FFF7FEFF 		bl	HAL_PCD_IRQHandler
 459              	.LVL13:
 247:../02_OS/Core_REG/stm32l4xx_it.c ****   /* USER CODE BEGIN USB_IRQn 1 */
 248:../02_OS/Core_REG/stm32l4xx_it.c **** 
 249:../02_OS/Core_REG/stm32l4xx_it.c ****   /* USER CODE END USB_IRQn 1 */
 250:../02_OS/Core_REG/stm32l4xx_it.c **** }
 460              		.loc 1 250 1 is_stmt 0 view .LVU57
 461 0008 08BD     		pop	{r3, pc}
 462              	.L53:
 463 000a 00BF     		.align	2
 464              	.L52:
 465 000c 00000000 		.word	hpcd_USB_FS
 466              		.cfi_endproc
 467              	.LFE299:
 469              		.text
 470              	.Letext0:
 471              		.file 2 "c:\\gnuarm\\arm-none-eabi\\include\\machine\\_default_types.h"
 472              		.file 3 "c:\\gnuarm\\arm-none-eabi\\include\\sys\\_stdint.h"
 473              		.file 4 "../03_Drivers/CMSIS/Device/ST/STM32L4xx/Include/stm32l432xx.h"
 474              		.file 5 "../03_Drivers/STM32L4xx_HAL_Driver/Inc/stm32l4xx_hal_def.h"
 475              		.file 6 "../03_Drivers/STM32L4xx_HAL_Driver/Inc/stm32l4xx_hal_dma.h"
 476              		.file 7 "../03_Drivers/STM32L4xx_HAL_Driver/Inc/stm32l4xx_ll_usb.h"
 477              		.file 8 "../03_Drivers/STM32L4xx_HAL_Driver/Inc/stm32l4xx_hal_pcd.h"
 478              		.file 9 "../03_Drivers/STM32L4xx_HAL_Driver/Inc/stm32l4xx_hal_uart.h"
 479              		.file 10 "../02_OS/EKM_Buffer/EKM_Buffer.h"
 480              		.file 11 "../01_Applcation/Appl_Main/main.h"
ARM GAS  C:\Users\minde\AppData\Local\Temp\ccgpsWlQ.s 			page 14


 481              		.file 12 "../01_Applcation/APPL_DMA_LTE/APPL_DMA_LTE.h"
 482              		.file 13 "../01_Applcation/Appl_Data/Appl_Data.h"
 483              		.file 14 "../03_Drivers/STM32L4xx_HAL_Driver/Inc/stm32l4xx_hal.h"
ARM GAS  C:\Users\minde\AppData\Local\Temp\ccgpsWlQ.s 			page 15

