ARM GAS  C:\Users\minde\AppData\Local\Temp\ccmr7ttv.s 			page 1


   1              		.cpu cortex-m4
   2              		.arch armv7e-m
   3              		.fpu fpv4-sp-d16
   4              		.eabi_attribute 27, 1
   5              		.eabi_attribute 28, 1
   6              		.eabi_attribute 20, 1
   7              		.eabi_attribute 21, 1
   8              		.eabi_attribute 23, 3
   9              		.eabi_attribute 24, 1
  10              		.eabi_attribute 25, 1
  11              		.eabi_attribute 26, 1
  12              		.eabi_attribute 30, 1
  13              		.eabi_attribute 34, 1
  14              		.eabi_attribute 18, 4
  15              		.file	"usbd_cdc_if.c"
  16              		.text
  17              	.Ltext0:
  18              		.cfi_sections	.debug_frame
  19              		.section	.text.CDC_DeInit_FS,"ax",%progbits
  20              		.align	1
  21              		.syntax unified
  22              		.thumb
  23              		.thumb_func
  25              	CDC_DeInit_FS:
  26              	.LFB293:
  27              		.file 1 "../02_OS/USB_DEVICE/App/usbd_cdc_if.c"
   1:../02_OS/USB_DEVICE/App/usbd_cdc_if.c **** /* USER CODE BEGIN Header */
   2:../02_OS/USB_DEVICE/App/usbd_cdc_if.c **** /**
   3:../02_OS/USB_DEVICE/App/usbd_cdc_if.c ****   ******************************************************************************
   4:../02_OS/USB_DEVICE/App/usbd_cdc_if.c ****   * @file           : usbd_cdc_if.c
   5:../02_OS/USB_DEVICE/App/usbd_cdc_if.c ****   * @version        : v2.0_Cube
   6:../02_OS/USB_DEVICE/App/usbd_cdc_if.c ****   * @brief          : Usb device for Virtual Com Port.
   7:../02_OS/USB_DEVICE/App/usbd_cdc_if.c ****   ******************************************************************************
   8:../02_OS/USB_DEVICE/App/usbd_cdc_if.c ****   * @attention
   9:../02_OS/USB_DEVICE/App/usbd_cdc_if.c ****   *
  10:../02_OS/USB_DEVICE/App/usbd_cdc_if.c ****   * Copyright (c) 2022 STMicroelectronics.
  11:../02_OS/USB_DEVICE/App/usbd_cdc_if.c ****   * All rights reserved.
  12:../02_OS/USB_DEVICE/App/usbd_cdc_if.c ****   *
  13:../02_OS/USB_DEVICE/App/usbd_cdc_if.c ****   * This software is licensed under terms that can be found in the LICENSE file
  14:../02_OS/USB_DEVICE/App/usbd_cdc_if.c ****   * in the root directory of this software component.
  15:../02_OS/USB_DEVICE/App/usbd_cdc_if.c ****   * If no LICENSE file comes with this software, it is provided AS-IS.
  16:../02_OS/USB_DEVICE/App/usbd_cdc_if.c ****   *
  17:../02_OS/USB_DEVICE/App/usbd_cdc_if.c ****   ******************************************************************************
  18:../02_OS/USB_DEVICE/App/usbd_cdc_if.c ****   */
  19:../02_OS/USB_DEVICE/App/usbd_cdc_if.c **** /* USER CODE END Header */
  20:../02_OS/USB_DEVICE/App/usbd_cdc_if.c **** 
  21:../02_OS/USB_DEVICE/App/usbd_cdc_if.c **** /* Includes ------------------------------------------------------------------*/
  22:../02_OS/USB_DEVICE/App/usbd_cdc_if.c **** #include "usbd_cdc_if.h"
  23:../02_OS/USB_DEVICE/App/usbd_cdc_if.c **** 
  24:../02_OS/USB_DEVICE/App/usbd_cdc_if.c **** /* USER CODE BEGIN INCLUDE */
  25:../02_OS/USB_DEVICE/App/usbd_cdc_if.c **** #include "EKM_Buffer.h"
  26:../02_OS/USB_DEVICE/App/usbd_cdc_if.c **** #include "Appl_USBService.h"
  27:../02_OS/USB_DEVICE/App/usbd_cdc_if.c **** /* USER CODE END INCLUDE */
  28:../02_OS/USB_DEVICE/App/usbd_cdc_if.c **** 
  29:../02_OS/USB_DEVICE/App/usbd_cdc_if.c **** /* Private typedef -----------------------------------------------------------*/
  30:../02_OS/USB_DEVICE/App/usbd_cdc_if.c **** /* Private define ------------------------------------------------------------*/
  31:../02_OS/USB_DEVICE/App/usbd_cdc_if.c **** /* Private macro -------------------------------------------------------------*/
ARM GAS  C:\Users\minde\AppData\Local\Temp\ccmr7ttv.s 			page 2


  32:../02_OS/USB_DEVICE/App/usbd_cdc_if.c **** 
  33:../02_OS/USB_DEVICE/App/usbd_cdc_if.c **** /* USER CODE BEGIN PV */
  34:../02_OS/USB_DEVICE/App/usbd_cdc_if.c **** /* Private variables ---------------------------------------------------------*/
  35:../02_OS/USB_DEVICE/App/usbd_cdc_if.c **** 
  36:../02_OS/USB_DEVICE/App/usbd_cdc_if.c **** /* USER CODE END PV */
  37:../02_OS/USB_DEVICE/App/usbd_cdc_if.c **** 
  38:../02_OS/USB_DEVICE/App/usbd_cdc_if.c **** /** @addtogroup STM32_USB_OTG_DEVICE_LIBRARY
  39:../02_OS/USB_DEVICE/App/usbd_cdc_if.c ****   * @brief Usb device library.
  40:../02_OS/USB_DEVICE/App/usbd_cdc_if.c ****   * @{
  41:../02_OS/USB_DEVICE/App/usbd_cdc_if.c ****   */
  42:../02_OS/USB_DEVICE/App/usbd_cdc_if.c **** 
  43:../02_OS/USB_DEVICE/App/usbd_cdc_if.c **** /** @addtogroup USBD_CDC_IF
  44:../02_OS/USB_DEVICE/App/usbd_cdc_if.c ****   * @{
  45:../02_OS/USB_DEVICE/App/usbd_cdc_if.c ****   */
  46:../02_OS/USB_DEVICE/App/usbd_cdc_if.c **** 
  47:../02_OS/USB_DEVICE/App/usbd_cdc_if.c **** /** @defgroup USBD_CDC_IF_Private_TypesDefinitions USBD_CDC_IF_Private_TypesDefinitions
  48:../02_OS/USB_DEVICE/App/usbd_cdc_if.c ****   * @brief Private types.
  49:../02_OS/USB_DEVICE/App/usbd_cdc_if.c ****   * @{
  50:../02_OS/USB_DEVICE/App/usbd_cdc_if.c ****   */
  51:../02_OS/USB_DEVICE/App/usbd_cdc_if.c **** 
  52:../02_OS/USB_DEVICE/App/usbd_cdc_if.c **** /* USER CODE BEGIN PRIVATE_TYPES */
  53:../02_OS/USB_DEVICE/App/usbd_cdc_if.c **** 
  54:../02_OS/USB_DEVICE/App/usbd_cdc_if.c **** /* USER CODE END PRIVATE_TYPES */
  55:../02_OS/USB_DEVICE/App/usbd_cdc_if.c **** 
  56:../02_OS/USB_DEVICE/App/usbd_cdc_if.c **** /**
  57:../02_OS/USB_DEVICE/App/usbd_cdc_if.c ****   * @}
  58:../02_OS/USB_DEVICE/App/usbd_cdc_if.c ****   */
  59:../02_OS/USB_DEVICE/App/usbd_cdc_if.c **** 
  60:../02_OS/USB_DEVICE/App/usbd_cdc_if.c **** /** @defgroup USBD_CDC_IF_Private_Defines USBD_CDC_IF_Private_Defines
  61:../02_OS/USB_DEVICE/App/usbd_cdc_if.c ****   * @brief Private defines.
  62:../02_OS/USB_DEVICE/App/usbd_cdc_if.c ****   * @{
  63:../02_OS/USB_DEVICE/App/usbd_cdc_if.c ****   */
  64:../02_OS/USB_DEVICE/App/usbd_cdc_if.c **** 
  65:../02_OS/USB_DEVICE/App/usbd_cdc_if.c **** /* USER CODE BEGIN PRIVATE_DEFINES */
  66:../02_OS/USB_DEVICE/App/usbd_cdc_if.c **** /* USER CODE END PRIVATE_DEFINES */
  67:../02_OS/USB_DEVICE/App/usbd_cdc_if.c **** 
  68:../02_OS/USB_DEVICE/App/usbd_cdc_if.c **** /**
  69:../02_OS/USB_DEVICE/App/usbd_cdc_if.c ****   * @}
  70:../02_OS/USB_DEVICE/App/usbd_cdc_if.c ****   */
  71:../02_OS/USB_DEVICE/App/usbd_cdc_if.c **** 
  72:../02_OS/USB_DEVICE/App/usbd_cdc_if.c **** /** @defgroup USBD_CDC_IF_Private_Macros USBD_CDC_IF_Private_Macros
  73:../02_OS/USB_DEVICE/App/usbd_cdc_if.c ****   * @brief Private macros.
  74:../02_OS/USB_DEVICE/App/usbd_cdc_if.c ****   * @{
  75:../02_OS/USB_DEVICE/App/usbd_cdc_if.c ****   */
  76:../02_OS/USB_DEVICE/App/usbd_cdc_if.c **** 
  77:../02_OS/USB_DEVICE/App/usbd_cdc_if.c **** /* USER CODE BEGIN PRIVATE_MACRO */
  78:../02_OS/USB_DEVICE/App/usbd_cdc_if.c **** 
  79:../02_OS/USB_DEVICE/App/usbd_cdc_if.c **** /* USER CODE END PRIVATE_MACRO */
  80:../02_OS/USB_DEVICE/App/usbd_cdc_if.c **** 
  81:../02_OS/USB_DEVICE/App/usbd_cdc_if.c **** /**
  82:../02_OS/USB_DEVICE/App/usbd_cdc_if.c ****   * @}
  83:../02_OS/USB_DEVICE/App/usbd_cdc_if.c ****   */
  84:../02_OS/USB_DEVICE/App/usbd_cdc_if.c **** 
  85:../02_OS/USB_DEVICE/App/usbd_cdc_if.c **** /** @defgroup USBD_CDC_IF_Private_Variables USBD_CDC_IF_Private_Variables
  86:../02_OS/USB_DEVICE/App/usbd_cdc_if.c ****   * @brief Private variables.
  87:../02_OS/USB_DEVICE/App/usbd_cdc_if.c ****   * @{
  88:../02_OS/USB_DEVICE/App/usbd_cdc_if.c ****   */
ARM GAS  C:\Users\minde\AppData\Local\Temp\ccmr7ttv.s 			page 3


  89:../02_OS/USB_DEVICE/App/usbd_cdc_if.c **** /* Create buffer for reception and transmission           */
  90:../02_OS/USB_DEVICE/App/usbd_cdc_if.c **** /* It's up to user to redefine and/or remove those define */
  91:../02_OS/USB_DEVICE/App/usbd_cdc_if.c **** /** Received data over USB are stored in this buffer      */
  92:../02_OS/USB_DEVICE/App/usbd_cdc_if.c **** uint8_t UserRxBufferFS[APP_RX_DATA_SIZE];
  93:../02_OS/USB_DEVICE/App/usbd_cdc_if.c **** 
  94:../02_OS/USB_DEVICE/App/usbd_cdc_if.c **** /** Data to send over USB CDC are stored in this buffer   */
  95:../02_OS/USB_DEVICE/App/usbd_cdc_if.c **** uint8_t UserTxBufferFS[APP_TX_DATA_SIZE];
  96:../02_OS/USB_DEVICE/App/usbd_cdc_if.c **** 
  97:../02_OS/USB_DEVICE/App/usbd_cdc_if.c **** /* USER CODE BEGIN PRIVATE_VARIABLES */
  98:../02_OS/USB_DEVICE/App/usbd_cdc_if.c **** 
  99:../02_OS/USB_DEVICE/App/usbd_cdc_if.c **** /* USER CODE END PRIVATE_VARIABLES */
 100:../02_OS/USB_DEVICE/App/usbd_cdc_if.c **** 
 101:../02_OS/USB_DEVICE/App/usbd_cdc_if.c **** /**
 102:../02_OS/USB_DEVICE/App/usbd_cdc_if.c ****   * @}
 103:../02_OS/USB_DEVICE/App/usbd_cdc_if.c ****   */
 104:../02_OS/USB_DEVICE/App/usbd_cdc_if.c **** 
 105:../02_OS/USB_DEVICE/App/usbd_cdc_if.c **** /** @defgroup USBD_CDC_IF_Exported_Variables USBD_CDC_IF_Exported_Variables
 106:../02_OS/USB_DEVICE/App/usbd_cdc_if.c ****   * @brief Public variables.
 107:../02_OS/USB_DEVICE/App/usbd_cdc_if.c ****   * @{
 108:../02_OS/USB_DEVICE/App/usbd_cdc_if.c ****   */
 109:../02_OS/USB_DEVICE/App/usbd_cdc_if.c **** 
 110:../02_OS/USB_DEVICE/App/usbd_cdc_if.c **** extern USBD_HandleTypeDef hUsbDeviceFS;
 111:../02_OS/USB_DEVICE/App/usbd_cdc_if.c **** 
 112:../02_OS/USB_DEVICE/App/usbd_cdc_if.c **** /* USER CODE BEGIN EXPORTED_VARIABLES */
 113:../02_OS/USB_DEVICE/App/usbd_cdc_if.c **** 
 114:../02_OS/USB_DEVICE/App/usbd_cdc_if.c **** /* USER CODE END EXPORTED_VARIABLES */
 115:../02_OS/USB_DEVICE/App/usbd_cdc_if.c **** 
 116:../02_OS/USB_DEVICE/App/usbd_cdc_if.c **** /**
 117:../02_OS/USB_DEVICE/App/usbd_cdc_if.c ****   * @}
 118:../02_OS/USB_DEVICE/App/usbd_cdc_if.c ****   */
 119:../02_OS/USB_DEVICE/App/usbd_cdc_if.c **** 
 120:../02_OS/USB_DEVICE/App/usbd_cdc_if.c **** /** @defgroup USBD_CDC_IF_Private_FunctionPrototypes USBD_CDC_IF_Private_FunctionPrototypes
 121:../02_OS/USB_DEVICE/App/usbd_cdc_if.c ****   * @brief Private functions declaration.
 122:../02_OS/USB_DEVICE/App/usbd_cdc_if.c ****   * @{
 123:../02_OS/USB_DEVICE/App/usbd_cdc_if.c ****   */
 124:../02_OS/USB_DEVICE/App/usbd_cdc_if.c **** 
 125:../02_OS/USB_DEVICE/App/usbd_cdc_if.c **** static int8_t CDC_Init_FS(void);
 126:../02_OS/USB_DEVICE/App/usbd_cdc_if.c **** static int8_t CDC_DeInit_FS(void);
 127:../02_OS/USB_DEVICE/App/usbd_cdc_if.c **** static int8_t CDC_Control_FS(uint8_t cmd, uint8_t* pbuf, uint16_t length);
 128:../02_OS/USB_DEVICE/App/usbd_cdc_if.c **** static int8_t CDC_Receive_FS(uint8_t* pbuf, uint32_t *Len);
 129:../02_OS/USB_DEVICE/App/usbd_cdc_if.c **** static int8_t CDC_TransmitCplt_FS(uint8_t *pbuf, uint32_t *Len, uint8_t epnum);
 130:../02_OS/USB_DEVICE/App/usbd_cdc_if.c **** 
 131:../02_OS/USB_DEVICE/App/usbd_cdc_if.c **** /* USER CODE BEGIN PRIVATE_FUNCTIONS_DECLARATION */
 132:../02_OS/USB_DEVICE/App/usbd_cdc_if.c **** 
 133:../02_OS/USB_DEVICE/App/usbd_cdc_if.c **** /* USER CODE END PRIVATE_FUNCTIONS_DECLARATION */
 134:../02_OS/USB_DEVICE/App/usbd_cdc_if.c **** 
 135:../02_OS/USB_DEVICE/App/usbd_cdc_if.c **** /**
 136:../02_OS/USB_DEVICE/App/usbd_cdc_if.c ****   * @}
 137:../02_OS/USB_DEVICE/App/usbd_cdc_if.c ****   */
 138:../02_OS/USB_DEVICE/App/usbd_cdc_if.c **** 
 139:../02_OS/USB_DEVICE/App/usbd_cdc_if.c **** USBD_CDC_ItfTypeDef USBD_Interface_fops_FS =
 140:../02_OS/USB_DEVICE/App/usbd_cdc_if.c **** {
 141:../02_OS/USB_DEVICE/App/usbd_cdc_if.c ****   CDC_Init_FS,
 142:../02_OS/USB_DEVICE/App/usbd_cdc_if.c ****   CDC_DeInit_FS,
 143:../02_OS/USB_DEVICE/App/usbd_cdc_if.c ****   CDC_Control_FS,
 144:../02_OS/USB_DEVICE/App/usbd_cdc_if.c ****   CDC_Receive_FS,
 145:../02_OS/USB_DEVICE/App/usbd_cdc_if.c ****   CDC_TransmitCplt_FS
ARM GAS  C:\Users\minde\AppData\Local\Temp\ccmr7ttv.s 			page 4


 146:../02_OS/USB_DEVICE/App/usbd_cdc_if.c **** };
 147:../02_OS/USB_DEVICE/App/usbd_cdc_if.c **** 
 148:../02_OS/USB_DEVICE/App/usbd_cdc_if.c **** /* Private functions ---------------------------------------------------------*/
 149:../02_OS/USB_DEVICE/App/usbd_cdc_if.c **** /**
 150:../02_OS/USB_DEVICE/App/usbd_cdc_if.c ****   * @brief  Initializes the CDC media low layer over the FS USB IP
 151:../02_OS/USB_DEVICE/App/usbd_cdc_if.c ****   * @retval USBD_OK if all operations are OK else USBD_FAIL
 152:../02_OS/USB_DEVICE/App/usbd_cdc_if.c ****   */
 153:../02_OS/USB_DEVICE/App/usbd_cdc_if.c **** static int8_t CDC_Init_FS(void)
 154:../02_OS/USB_DEVICE/App/usbd_cdc_if.c **** {
 155:../02_OS/USB_DEVICE/App/usbd_cdc_if.c ****   /* USER CODE BEGIN 3 */
 156:../02_OS/USB_DEVICE/App/usbd_cdc_if.c ****   /* Set Application Buffers */
 157:../02_OS/USB_DEVICE/App/usbd_cdc_if.c ****   USBD_CDC_SetTxBuffer(&hUsbDeviceFS, UserTxBufferFS, 0);
 158:../02_OS/USB_DEVICE/App/usbd_cdc_if.c ****   USBD_CDC_SetRxBuffer(&hUsbDeviceFS, UserRxBufferFS);
 159:../02_OS/USB_DEVICE/App/usbd_cdc_if.c ****   return (USBD_OK);
 160:../02_OS/USB_DEVICE/App/usbd_cdc_if.c ****   /* USER CODE END 3 */
 161:../02_OS/USB_DEVICE/App/usbd_cdc_if.c **** }
 162:../02_OS/USB_DEVICE/App/usbd_cdc_if.c **** 
 163:../02_OS/USB_DEVICE/App/usbd_cdc_if.c **** /**
 164:../02_OS/USB_DEVICE/App/usbd_cdc_if.c ****   * @brief  DeInitializes the CDC media low layer
 165:../02_OS/USB_DEVICE/App/usbd_cdc_if.c ****   * @retval USBD_OK if all operations are OK else USBD_FAIL
 166:../02_OS/USB_DEVICE/App/usbd_cdc_if.c ****   */
 167:../02_OS/USB_DEVICE/App/usbd_cdc_if.c **** static int8_t CDC_DeInit_FS(void)
 168:../02_OS/USB_DEVICE/App/usbd_cdc_if.c **** {
  28              		.loc 1 168 1 view -0
  29              		.cfi_startproc
  30              		@ args = 0, pretend = 0, frame = 0
  31              		@ frame_needed = 0, uses_anonymous_args = 0
  32              		@ link register save eliminated.
 169:../02_OS/USB_DEVICE/App/usbd_cdc_if.c ****   /* USER CODE BEGIN 4 */
 170:../02_OS/USB_DEVICE/App/usbd_cdc_if.c ****   return (USBD_OK);
  33              		.loc 1 170 3 view .LVU1
 171:../02_OS/USB_DEVICE/App/usbd_cdc_if.c ****   /* USER CODE END 4 */
 172:../02_OS/USB_DEVICE/App/usbd_cdc_if.c **** }
  34              		.loc 1 172 1 is_stmt 0 view .LVU2
  35 0000 0020     		movs	r0, #0
  36 0002 7047     		bx	lr
  37              		.cfi_endproc
  38              	.LFE293:
  40              		.section	.text.CDC_Control_FS,"ax",%progbits
  41              		.align	1
  42              		.syntax unified
  43              		.thumb
  44              		.thumb_func
  46              	CDC_Control_FS:
  47              	.LVL0:
  48              	.LFB294:
 173:../02_OS/USB_DEVICE/App/usbd_cdc_if.c **** 
 174:../02_OS/USB_DEVICE/App/usbd_cdc_if.c **** /**
 175:../02_OS/USB_DEVICE/App/usbd_cdc_if.c ****   * @brief  Manage the CDC class requests
 176:../02_OS/USB_DEVICE/App/usbd_cdc_if.c ****   * @param  cmd: Command code
 177:../02_OS/USB_DEVICE/App/usbd_cdc_if.c ****   * @param  pbuf: Buffer containing command data (request parameters)
 178:../02_OS/USB_DEVICE/App/usbd_cdc_if.c ****   * @param  length: Number of data to be sent (in bytes)
 179:../02_OS/USB_DEVICE/App/usbd_cdc_if.c ****   * @retval Result of the operation: USBD_OK if all operations are OK else USBD_FAIL
 180:../02_OS/USB_DEVICE/App/usbd_cdc_if.c ****   */
 181:../02_OS/USB_DEVICE/App/usbd_cdc_if.c **** static int8_t CDC_Control_FS(uint8_t cmd, uint8_t* pbuf, uint16_t length)
 182:../02_OS/USB_DEVICE/App/usbd_cdc_if.c **** {
  49              		.loc 1 182 1 is_stmt 1 view -0
ARM GAS  C:\Users\minde\AppData\Local\Temp\ccmr7ttv.s 			page 5


  50              		.cfi_startproc
  51              		@ args = 0, pretend = 0, frame = 0
  52              		@ frame_needed = 0, uses_anonymous_args = 0
  53              		@ link register save eliminated.
 183:../02_OS/USB_DEVICE/App/usbd_cdc_if.c ****   /* USER CODE BEGIN 5 */
 184:../02_OS/USB_DEVICE/App/usbd_cdc_if.c ****   switch(cmd)
  54              		.loc 1 184 3 view .LVU4
 185:../02_OS/USB_DEVICE/App/usbd_cdc_if.c ****   {
 186:../02_OS/USB_DEVICE/App/usbd_cdc_if.c ****     case CDC_SEND_ENCAPSULATED_COMMAND:
 187:../02_OS/USB_DEVICE/App/usbd_cdc_if.c **** 
 188:../02_OS/USB_DEVICE/App/usbd_cdc_if.c ****     break;
 189:../02_OS/USB_DEVICE/App/usbd_cdc_if.c **** 
 190:../02_OS/USB_DEVICE/App/usbd_cdc_if.c ****     case CDC_GET_ENCAPSULATED_RESPONSE:
 191:../02_OS/USB_DEVICE/App/usbd_cdc_if.c **** 
 192:../02_OS/USB_DEVICE/App/usbd_cdc_if.c ****     break;
 193:../02_OS/USB_DEVICE/App/usbd_cdc_if.c **** 
 194:../02_OS/USB_DEVICE/App/usbd_cdc_if.c ****     case CDC_SET_COMM_FEATURE:
 195:../02_OS/USB_DEVICE/App/usbd_cdc_if.c **** 
 196:../02_OS/USB_DEVICE/App/usbd_cdc_if.c ****     break;
 197:../02_OS/USB_DEVICE/App/usbd_cdc_if.c **** 
 198:../02_OS/USB_DEVICE/App/usbd_cdc_if.c ****     case CDC_GET_COMM_FEATURE:
 199:../02_OS/USB_DEVICE/App/usbd_cdc_if.c **** 
 200:../02_OS/USB_DEVICE/App/usbd_cdc_if.c ****     break;
 201:../02_OS/USB_DEVICE/App/usbd_cdc_if.c **** 
 202:../02_OS/USB_DEVICE/App/usbd_cdc_if.c ****     case CDC_CLEAR_COMM_FEATURE:
 203:../02_OS/USB_DEVICE/App/usbd_cdc_if.c **** 
 204:../02_OS/USB_DEVICE/App/usbd_cdc_if.c ****     break;
 205:../02_OS/USB_DEVICE/App/usbd_cdc_if.c **** 
 206:../02_OS/USB_DEVICE/App/usbd_cdc_if.c ****   /*******************************************************************************/
 207:../02_OS/USB_DEVICE/App/usbd_cdc_if.c ****   /* Line Coding Structure                                                       */
 208:../02_OS/USB_DEVICE/App/usbd_cdc_if.c ****   /*-----------------------------------------------------------------------------*/
 209:../02_OS/USB_DEVICE/App/usbd_cdc_if.c ****   /* Offset | Field       | Size | Value  | Description                          */
 210:../02_OS/USB_DEVICE/App/usbd_cdc_if.c ****   /* 0      | dwDTERate   |   4  | Number |Data terminal rate, in bits per second*/
 211:../02_OS/USB_DEVICE/App/usbd_cdc_if.c ****   /* 4      | bCharFormat |   1  | Number | Stop bits                            */
 212:../02_OS/USB_DEVICE/App/usbd_cdc_if.c ****   /*                                        0 - 1 Stop bit                       */
 213:../02_OS/USB_DEVICE/App/usbd_cdc_if.c ****   /*                                        1 - 1.5 Stop bits                    */
 214:../02_OS/USB_DEVICE/App/usbd_cdc_if.c ****   /*                                        2 - 2 Stop bits                      */
 215:../02_OS/USB_DEVICE/App/usbd_cdc_if.c ****   /* 5      | bParityType |  1   | Number | Parity                               */
 216:../02_OS/USB_DEVICE/App/usbd_cdc_if.c ****   /*                                        0 - None                             */
 217:../02_OS/USB_DEVICE/App/usbd_cdc_if.c ****   /*                                        1 - Odd                              */
 218:../02_OS/USB_DEVICE/App/usbd_cdc_if.c ****   /*                                        2 - Even                             */
 219:../02_OS/USB_DEVICE/App/usbd_cdc_if.c ****   /*                                        3 - Mark                             */
 220:../02_OS/USB_DEVICE/App/usbd_cdc_if.c ****   /*                                        4 - Space                            */
 221:../02_OS/USB_DEVICE/App/usbd_cdc_if.c ****   /* 6      | bDataBits  |   1   | Number Data bits (5, 6, 7, 8 or 16).          */
 222:../02_OS/USB_DEVICE/App/usbd_cdc_if.c ****   /*******************************************************************************/
 223:../02_OS/USB_DEVICE/App/usbd_cdc_if.c ****     case CDC_SET_LINE_CODING:
 224:../02_OS/USB_DEVICE/App/usbd_cdc_if.c **** 
 225:../02_OS/USB_DEVICE/App/usbd_cdc_if.c ****     break;
 226:../02_OS/USB_DEVICE/App/usbd_cdc_if.c **** 
 227:../02_OS/USB_DEVICE/App/usbd_cdc_if.c ****     case CDC_GET_LINE_CODING:
 228:../02_OS/USB_DEVICE/App/usbd_cdc_if.c **** 
 229:../02_OS/USB_DEVICE/App/usbd_cdc_if.c ****     break;
 230:../02_OS/USB_DEVICE/App/usbd_cdc_if.c **** 
 231:../02_OS/USB_DEVICE/App/usbd_cdc_if.c ****     case CDC_SET_CONTROL_LINE_STATE:
 232:../02_OS/USB_DEVICE/App/usbd_cdc_if.c **** 
 233:../02_OS/USB_DEVICE/App/usbd_cdc_if.c ****     break;
 234:../02_OS/USB_DEVICE/App/usbd_cdc_if.c **** 
ARM GAS  C:\Users\minde\AppData\Local\Temp\ccmr7ttv.s 			page 6


 235:../02_OS/USB_DEVICE/App/usbd_cdc_if.c ****     case CDC_SEND_BREAK:
 236:../02_OS/USB_DEVICE/App/usbd_cdc_if.c **** 
 237:../02_OS/USB_DEVICE/App/usbd_cdc_if.c ****     break;
 238:../02_OS/USB_DEVICE/App/usbd_cdc_if.c **** 
 239:../02_OS/USB_DEVICE/App/usbd_cdc_if.c ****   default:
 240:../02_OS/USB_DEVICE/App/usbd_cdc_if.c ****     break;
 241:../02_OS/USB_DEVICE/App/usbd_cdc_if.c ****   }
 242:../02_OS/USB_DEVICE/App/usbd_cdc_if.c **** 
 243:../02_OS/USB_DEVICE/App/usbd_cdc_if.c ****   return (USBD_OK);
  55              		.loc 1 243 3 view .LVU5
 244:../02_OS/USB_DEVICE/App/usbd_cdc_if.c ****   /* USER CODE END 5 */
 245:../02_OS/USB_DEVICE/App/usbd_cdc_if.c **** }
  56              		.loc 1 245 1 is_stmt 0 view .LVU6
  57 0000 0020     		movs	r0, #0
  58              	.LVL1:
  59              		.loc 1 245 1 view .LVU7
  60 0002 7047     		bx	lr
  61              		.cfi_endproc
  62              	.LFE294:
  64              		.section	.text.CDC_TransmitCplt_FS,"ax",%progbits
  65              		.align	1
  66              		.syntax unified
  67              		.thumb
  68              		.thumb_func
  70              	CDC_TransmitCplt_FS:
  71              	.LVL2:
  72              	.LFB297:
 246:../02_OS/USB_DEVICE/App/usbd_cdc_if.c **** 
 247:../02_OS/USB_DEVICE/App/usbd_cdc_if.c **** /**
 248:../02_OS/USB_DEVICE/App/usbd_cdc_if.c ****   * @brief  Data received over USB OUT endpoint are sent over CDC interface
 249:../02_OS/USB_DEVICE/App/usbd_cdc_if.c ****   *         through this function.
 250:../02_OS/USB_DEVICE/App/usbd_cdc_if.c ****   *
 251:../02_OS/USB_DEVICE/App/usbd_cdc_if.c ****   *         @note
 252:../02_OS/USB_DEVICE/App/usbd_cdc_if.c ****   *         This function will issue a NAK packet on any OUT packet received on
 253:../02_OS/USB_DEVICE/App/usbd_cdc_if.c ****   *         USB endpoint until exiting this function. If you exit this function
 254:../02_OS/USB_DEVICE/App/usbd_cdc_if.c ****   *         before transfer is complete on CDC interface (ie. using DMA controller)
 255:../02_OS/USB_DEVICE/App/usbd_cdc_if.c ****   *         it will result in receiving more data while previous ones are still
 256:../02_OS/USB_DEVICE/App/usbd_cdc_if.c ****   *         not sent.
 257:../02_OS/USB_DEVICE/App/usbd_cdc_if.c ****   *
 258:../02_OS/USB_DEVICE/App/usbd_cdc_if.c ****   * @param  Buf: Buffer of data to be received
 259:../02_OS/USB_DEVICE/App/usbd_cdc_if.c ****   * @param  Len: Number of data received (in bytes)
 260:../02_OS/USB_DEVICE/App/usbd_cdc_if.c ****   * @retval Result of the operation: USBD_OK if all operations are OK else USBD_FAIL
 261:../02_OS/USB_DEVICE/App/usbd_cdc_if.c ****   */
 262:../02_OS/USB_DEVICE/App/usbd_cdc_if.c **** static int8_t CDC_Receive_FS(uint8_t* Buf, uint32_t *Len)
 263:../02_OS/USB_DEVICE/App/usbd_cdc_if.c **** {
 264:../02_OS/USB_DEVICE/App/usbd_cdc_if.c **** 
 265:../02_OS/USB_DEVICE/App/usbd_cdc_if.c ****   /* USER CODE BEGIN 6 */
 266:../02_OS/USB_DEVICE/App/usbd_cdc_if.c ****   for (int i = 0; i < *Len; i++)
 267:../02_OS/USB_DEVICE/App/usbd_cdc_if.c ****   {
 268:../02_OS/USB_DEVICE/App/usbd_cdc_if.c ****     if (Buf[i] != 0x0A)
 269:../02_OS/USB_DEVICE/App/usbd_cdc_if.c ****     {
 270:../02_OS/USB_DEVICE/App/usbd_cdc_if.c ****       EKM_Buffer_Set(&APPL_USB_Rx, Buf[i]);
 271:../02_OS/USB_DEVICE/App/usbd_cdc_if.c ****     }
 272:../02_OS/USB_DEVICE/App/usbd_cdc_if.c ****   }
 273:../02_OS/USB_DEVICE/App/usbd_cdc_if.c ****   USBD_CDC_SetRxBuffer(&hUsbDeviceFS, &Buf[0]);
 274:../02_OS/USB_DEVICE/App/usbd_cdc_if.c ****   USBD_CDC_ReceivePacket(&hUsbDeviceFS);
 275:../02_OS/USB_DEVICE/App/usbd_cdc_if.c ****   return (USBD_OK);
ARM GAS  C:\Users\minde\AppData\Local\Temp\ccmr7ttv.s 			page 7


 276:../02_OS/USB_DEVICE/App/usbd_cdc_if.c ****   /* USER CODE END 6 */
 277:../02_OS/USB_DEVICE/App/usbd_cdc_if.c **** }
 278:../02_OS/USB_DEVICE/App/usbd_cdc_if.c **** 
 279:../02_OS/USB_DEVICE/App/usbd_cdc_if.c **** /**
 280:../02_OS/USB_DEVICE/App/usbd_cdc_if.c ****   * @brief  CDC_Transmit_FS
 281:../02_OS/USB_DEVICE/App/usbd_cdc_if.c ****   *         Data to send over USB IN endpoint are sent over CDC interface
 282:../02_OS/USB_DEVICE/App/usbd_cdc_if.c ****   *         through this function.
 283:../02_OS/USB_DEVICE/App/usbd_cdc_if.c ****   *         @note
 284:../02_OS/USB_DEVICE/App/usbd_cdc_if.c ****   *
 285:../02_OS/USB_DEVICE/App/usbd_cdc_if.c ****   *
 286:../02_OS/USB_DEVICE/App/usbd_cdc_if.c ****   * @param  Buf: Buffer of data to be sent
 287:../02_OS/USB_DEVICE/App/usbd_cdc_if.c ****   * @param  Len: Number of data to be sent (in bytes)
 288:../02_OS/USB_DEVICE/App/usbd_cdc_if.c ****   * @retval USBD_OK if all operations are OK else USBD_FAIL or USBD_BUSY
 289:../02_OS/USB_DEVICE/App/usbd_cdc_if.c ****   */
 290:../02_OS/USB_DEVICE/App/usbd_cdc_if.c **** uint8_t CDC_Transmit_FS(uint8_t* Buf, uint16_t Len)
 291:../02_OS/USB_DEVICE/App/usbd_cdc_if.c **** {
 292:../02_OS/USB_DEVICE/App/usbd_cdc_if.c ****   uint8_t result = USBD_OK;
 293:../02_OS/USB_DEVICE/App/usbd_cdc_if.c ****   /* USER CODE BEGIN 7 */
 294:../02_OS/USB_DEVICE/App/usbd_cdc_if.c ****   USBD_CDC_HandleTypeDef *hcdc = (USBD_CDC_HandleTypeDef*)hUsbDeviceFS.pClassData;
 295:../02_OS/USB_DEVICE/App/usbd_cdc_if.c ****   if (hcdc->TxState != 0){
 296:../02_OS/USB_DEVICE/App/usbd_cdc_if.c ****     return USBD_BUSY;
 297:../02_OS/USB_DEVICE/App/usbd_cdc_if.c ****   }
 298:../02_OS/USB_DEVICE/App/usbd_cdc_if.c ****   USBD_CDC_SetTxBuffer(&hUsbDeviceFS, Buf, Len);
 299:../02_OS/USB_DEVICE/App/usbd_cdc_if.c ****   result = USBD_CDC_TransmitPacket(&hUsbDeviceFS);
 300:../02_OS/USB_DEVICE/App/usbd_cdc_if.c ****   /* USER CODE END 7 */
 301:../02_OS/USB_DEVICE/App/usbd_cdc_if.c ****   return result;
 302:../02_OS/USB_DEVICE/App/usbd_cdc_if.c **** }
 303:../02_OS/USB_DEVICE/App/usbd_cdc_if.c **** 
 304:../02_OS/USB_DEVICE/App/usbd_cdc_if.c **** /**
 305:../02_OS/USB_DEVICE/App/usbd_cdc_if.c ****   * @brief  CDC_TransmitCplt_FS
 306:../02_OS/USB_DEVICE/App/usbd_cdc_if.c ****   *         Data transmitted callback
 307:../02_OS/USB_DEVICE/App/usbd_cdc_if.c ****   *
 308:../02_OS/USB_DEVICE/App/usbd_cdc_if.c ****   *         @note
 309:../02_OS/USB_DEVICE/App/usbd_cdc_if.c ****   *         This function is IN transfer complete callback used to inform user that
 310:../02_OS/USB_DEVICE/App/usbd_cdc_if.c ****   *         the submitted Data is successfully sent over USB.
 311:../02_OS/USB_DEVICE/App/usbd_cdc_if.c ****   *
 312:../02_OS/USB_DEVICE/App/usbd_cdc_if.c ****   * @param  Buf: Buffer of data to be received
 313:../02_OS/USB_DEVICE/App/usbd_cdc_if.c ****   * @param  Len: Number of data received (in bytes)
 314:../02_OS/USB_DEVICE/App/usbd_cdc_if.c ****   * @retval Result of the operation: USBD_OK if all operations are OK else USBD_FAIL
 315:../02_OS/USB_DEVICE/App/usbd_cdc_if.c ****   */
 316:../02_OS/USB_DEVICE/App/usbd_cdc_if.c **** static int8_t CDC_TransmitCplt_FS(uint8_t *Buf, uint32_t *Len, uint8_t epnum)
 317:../02_OS/USB_DEVICE/App/usbd_cdc_if.c **** {
  73              		.loc 1 317 1 is_stmt 1 view -0
  74              		.cfi_startproc
  75              		@ args = 0, pretend = 0, frame = 0
  76              		@ frame_needed = 0, uses_anonymous_args = 0
  77              		@ link register save eliminated.
 318:../02_OS/USB_DEVICE/App/usbd_cdc_if.c ****   uint8_t result = USBD_OK;
  78              		.loc 1 318 3 view .LVU9
 319:../02_OS/USB_DEVICE/App/usbd_cdc_if.c ****   /* USER CODE BEGIN 13 */
 320:../02_OS/USB_DEVICE/App/usbd_cdc_if.c ****   UNUSED(Buf);
  79              		.loc 1 320 3 view .LVU10
 321:../02_OS/USB_DEVICE/App/usbd_cdc_if.c ****   UNUSED(Len);
  80              		.loc 1 321 3 view .LVU11
 322:../02_OS/USB_DEVICE/App/usbd_cdc_if.c ****   UNUSED(epnum);
  81              		.loc 1 322 3 view .LVU12
 323:../02_OS/USB_DEVICE/App/usbd_cdc_if.c ****   /* USER CODE END 13 */
ARM GAS  C:\Users\minde\AppData\Local\Temp\ccmr7ttv.s 			page 8


 324:../02_OS/USB_DEVICE/App/usbd_cdc_if.c ****   return result;
  82              		.loc 1 324 3 view .LVU13
 325:../02_OS/USB_DEVICE/App/usbd_cdc_if.c **** }
  83              		.loc 1 325 1 is_stmt 0 view .LVU14
  84 0000 0020     		movs	r0, #0
  85              	.LVL3:
  86              		.loc 1 325 1 view .LVU15
  87 0002 7047     		bx	lr
  88              		.cfi_endproc
  89              	.LFE297:
  91              		.section	.text.CDC_Receive_FS,"ax",%progbits
  92              		.align	1
  93              		.syntax unified
  94              		.thumb
  95              		.thumb_func
  97              	CDC_Receive_FS:
  98              	.LVL4:
  99              	.LFB295:
 263:../02_OS/USB_DEVICE/App/usbd_cdc_if.c **** 
 100              		.loc 1 263 1 is_stmt 1 view -0
 101              		.cfi_startproc
 102              		@ args = 0, pretend = 0, frame = 0
 103              		@ frame_needed = 0, uses_anonymous_args = 0
 263:../02_OS/USB_DEVICE/App/usbd_cdc_if.c **** 
 104              		.loc 1 263 1 is_stmt 0 view .LVU17
 105 0000 70B5     		push	{r4, r5, r6, lr}
 106              	.LCFI0:
 107              		.cfi_def_cfa_offset 16
 108              		.cfi_offset 4, -16
 109              		.cfi_offset 5, -12
 110              		.cfi_offset 6, -8
 111              		.cfi_offset 14, -4
 112 0002 0546     		mov	r5, r0
 113 0004 0E46     		mov	r6, r1
 266:../02_OS/USB_DEVICE/App/usbd_cdc_if.c ****   {
 114              		.loc 1 266 3 is_stmt 1 view .LVU18
 115              	.LBB2:
 266:../02_OS/USB_DEVICE/App/usbd_cdc_if.c ****   {
 116              		.loc 1 266 8 view .LVU19
 117              	.LVL5:
 266:../02_OS/USB_DEVICE/App/usbd_cdc_if.c ****   {
 118              		.loc 1 266 12 is_stmt 0 view .LVU20
 119 0006 0024     		movs	r4, #0
 266:../02_OS/USB_DEVICE/App/usbd_cdc_if.c ****   {
 120              		.loc 1 266 3 view .LVU21
 121 0008 00E0     		b	.L5
 122              	.LVL6:
 123              	.L6:
 266:../02_OS/USB_DEVICE/App/usbd_cdc_if.c ****   {
 124              		.loc 1 266 29 is_stmt 1 discriminator 2 view .LVU22
 266:../02_OS/USB_DEVICE/App/usbd_cdc_if.c ****   {
 125              		.loc 1 266 30 is_stmt 0 discriminator 2 view .LVU23
 126 000a 0134     		adds	r4, r4, #1
 127              	.LVL7:
 128              	.L5:
 266:../02_OS/USB_DEVICE/App/usbd_cdc_if.c ****   {
 129              		.loc 1 266 19 is_stmt 1 discriminator 1 view .LVU24
ARM GAS  C:\Users\minde\AppData\Local\Temp\ccmr7ttv.s 			page 9


 266:../02_OS/USB_DEVICE/App/usbd_cdc_if.c ****   {
 130              		.loc 1 266 23 is_stmt 0 discriminator 1 view .LVU25
 131 000c 3368     		ldr	r3, [r6]
 266:../02_OS/USB_DEVICE/App/usbd_cdc_if.c ****   {
 132              		.loc 1 266 3 discriminator 1 view .LVU26
 133 000e A342     		cmp	r3, r4
 134 0010 06D9     		bls	.L9
 268:../02_OS/USB_DEVICE/App/usbd_cdc_if.c ****     {
 135              		.loc 1 268 5 is_stmt 1 view .LVU27
 268:../02_OS/USB_DEVICE/App/usbd_cdc_if.c ****     {
 136              		.loc 1 268 12 is_stmt 0 view .LVU28
 137 0012 295D     		ldrb	r1, [r5, r4]	@ zero_extendqisi2
 268:../02_OS/USB_DEVICE/App/usbd_cdc_if.c ****     {
 138              		.loc 1 268 8 view .LVU29
 139 0014 0A29     		cmp	r1, #10
 140 0016 F8D0     		beq	.L6
 270:../02_OS/USB_DEVICE/App/usbd_cdc_if.c ****     }
 141              		.loc 1 270 7 is_stmt 1 view .LVU30
 142 0018 0648     		ldr	r0, .L10
 143 001a FFF7FEFF 		bl	EKM_Buffer_Set
 144              	.LVL8:
 145 001e F4E7     		b	.L6
 146              	.L9:
 270:../02_OS/USB_DEVICE/App/usbd_cdc_if.c ****     }
 147              		.loc 1 270 7 is_stmt 0 view .LVU31
 148              	.LBE2:
 273:../02_OS/USB_DEVICE/App/usbd_cdc_if.c ****   USBD_CDC_ReceivePacket(&hUsbDeviceFS);
 149              		.loc 1 273 3 is_stmt 1 view .LVU32
 150 0020 054C     		ldr	r4, .L10+4
 151              	.LVL9:
 273:../02_OS/USB_DEVICE/App/usbd_cdc_if.c ****   USBD_CDC_ReceivePacket(&hUsbDeviceFS);
 152              		.loc 1 273 3 is_stmt 0 view .LVU33
 153 0022 2946     		mov	r1, r5
 154 0024 2046     		mov	r0, r4
 155 0026 FFF7FEFF 		bl	USBD_CDC_SetRxBuffer
 156              	.LVL10:
 274:../02_OS/USB_DEVICE/App/usbd_cdc_if.c ****   return (USBD_OK);
 157              		.loc 1 274 3 is_stmt 1 view .LVU34
 158 002a 2046     		mov	r0, r4
 159 002c FFF7FEFF 		bl	USBD_CDC_ReceivePacket
 160              	.LVL11:
 275:../02_OS/USB_DEVICE/App/usbd_cdc_if.c ****   /* USER CODE END 6 */
 161              		.loc 1 275 3 view .LVU35
 277:../02_OS/USB_DEVICE/App/usbd_cdc_if.c **** 
 162              		.loc 1 277 1 is_stmt 0 view .LVU36
 163 0030 0020     		movs	r0, #0
 164 0032 70BD     		pop	{r4, r5, r6, pc}
 165              	.LVL12:
 166              	.L11:
 277:../02_OS/USB_DEVICE/App/usbd_cdc_if.c **** 
 167              		.loc 1 277 1 view .LVU37
 168              		.align	2
 169              	.L10:
 170 0034 00000000 		.word	APPL_USB_Rx
 171 0038 00000000 		.word	hUsbDeviceFS
 172              		.cfi_endproc
 173              	.LFE295:
ARM GAS  C:\Users\minde\AppData\Local\Temp\ccmr7ttv.s 			page 10


 175              		.section	.text.CDC_Init_FS,"ax",%progbits
 176              		.align	1
 177              		.syntax unified
 178              		.thumb
 179              		.thumb_func
 181              	CDC_Init_FS:
 182              	.LFB292:
 154:../02_OS/USB_DEVICE/App/usbd_cdc_if.c ****   /* USER CODE BEGIN 3 */
 183              		.loc 1 154 1 is_stmt 1 view -0
 184              		.cfi_startproc
 185              		@ args = 0, pretend = 0, frame = 0
 186              		@ frame_needed = 0, uses_anonymous_args = 0
 187 0000 10B5     		push	{r4, lr}
 188              	.LCFI1:
 189              		.cfi_def_cfa_offset 8
 190              		.cfi_offset 4, -8
 191              		.cfi_offset 14, -4
 157:../02_OS/USB_DEVICE/App/usbd_cdc_if.c ****   USBD_CDC_SetRxBuffer(&hUsbDeviceFS, UserRxBufferFS);
 192              		.loc 1 157 3 view .LVU39
 193 0002 064C     		ldr	r4, .L14
 194 0004 0022     		movs	r2, #0
 195 0006 0649     		ldr	r1, .L14+4
 196 0008 2046     		mov	r0, r4
 197 000a FFF7FEFF 		bl	USBD_CDC_SetTxBuffer
 198              	.LVL13:
 158:../02_OS/USB_DEVICE/App/usbd_cdc_if.c ****   return (USBD_OK);
 199              		.loc 1 158 3 view .LVU40
 200 000e 0549     		ldr	r1, .L14+8
 201 0010 2046     		mov	r0, r4
 202 0012 FFF7FEFF 		bl	USBD_CDC_SetRxBuffer
 203              	.LVL14:
 159:../02_OS/USB_DEVICE/App/usbd_cdc_if.c ****   /* USER CODE END 3 */
 204              		.loc 1 159 3 view .LVU41
 161:../02_OS/USB_DEVICE/App/usbd_cdc_if.c **** 
 205              		.loc 1 161 1 is_stmt 0 view .LVU42
 206 0016 0020     		movs	r0, #0
 207 0018 10BD     		pop	{r4, pc}
 208              	.L15:
 209 001a 00BF     		.align	2
 210              	.L14:
 211 001c 00000000 		.word	hUsbDeviceFS
 212 0020 00000000 		.word	.LANCHOR0
 213 0024 00000000 		.word	.LANCHOR1
 214              		.cfi_endproc
 215              	.LFE292:
 217              		.section	.text.CDC_Transmit_FS,"ax",%progbits
 218              		.align	1
 219              		.global	CDC_Transmit_FS
 220              		.syntax unified
 221              		.thumb
 222              		.thumb_func
 224              	CDC_Transmit_FS:
 225              	.LVL15:
 226              	.LFB296:
 291:../02_OS/USB_DEVICE/App/usbd_cdc_if.c ****   uint8_t result = USBD_OK;
 227              		.loc 1 291 1 is_stmt 1 view -0
 228              		.cfi_startproc
ARM GAS  C:\Users\minde\AppData\Local\Temp\ccmr7ttv.s 			page 11


 229              		@ args = 0, pretend = 0, frame = 0
 230              		@ frame_needed = 0, uses_anonymous_args = 0
 292:../02_OS/USB_DEVICE/App/usbd_cdc_if.c ****   /* USER CODE BEGIN 7 */
 231              		.loc 1 292 3 view .LVU44
 294:../02_OS/USB_DEVICE/App/usbd_cdc_if.c ****   if (hcdc->TxState != 0){
 232              		.loc 1 294 3 view .LVU45
 294:../02_OS/USB_DEVICE/App/usbd_cdc_if.c ****   if (hcdc->TxState != 0){
 233              		.loc 1 294 27 is_stmt 0 view .LVU46
 234 0000 094B     		ldr	r3, .L24
 235 0002 D3F8BC32 		ldr	r3, [r3, #700]
 236              	.LVL16:
 295:../02_OS/USB_DEVICE/App/usbd_cdc_if.c ****     return USBD_BUSY;
 237              		.loc 1 295 3 is_stmt 1 view .LVU47
 295:../02_OS/USB_DEVICE/App/usbd_cdc_if.c ****     return USBD_BUSY;
 238              		.loc 1 295 11 is_stmt 0 view .LVU48
 239 0006 D3F81432 		ldr	r3, [r3, #532]
 240              	.LVL17:
 295:../02_OS/USB_DEVICE/App/usbd_cdc_if.c ****     return USBD_BUSY;
 241              		.loc 1 295 6 view .LVU49
 242 000a 0BB1     		cbz	r3, .L23
 296:../02_OS/USB_DEVICE/App/usbd_cdc_if.c ****   }
 243              		.loc 1 296 12 view .LVU50
 244 000c 0120     		movs	r0, #1
 245              	.LVL18:
 302:../02_OS/USB_DEVICE/App/usbd_cdc_if.c **** 
 246              		.loc 1 302 1 view .LVU51
 247 000e 7047     		bx	lr
 248              	.LVL19:
 249              	.L23:
 291:../02_OS/USB_DEVICE/App/usbd_cdc_if.c ****   uint8_t result = USBD_OK;
 250              		.loc 1 291 1 view .LVU52
 251 0010 10B5     		push	{r4, lr}
 252              	.LCFI2:
 253              		.cfi_def_cfa_offset 8
 254              		.cfi_offset 4, -8
 255              		.cfi_offset 14, -4
 298:../02_OS/USB_DEVICE/App/usbd_cdc_if.c ****   result = USBD_CDC_TransmitPacket(&hUsbDeviceFS);
 256              		.loc 1 298 3 is_stmt 1 view .LVU53
 257 0012 054C     		ldr	r4, .L24
 258              	.LVL20:
 298:../02_OS/USB_DEVICE/App/usbd_cdc_if.c ****   result = USBD_CDC_TransmitPacket(&hUsbDeviceFS);
 259              		.loc 1 298 3 is_stmt 0 view .LVU54
 260 0014 0A46     		mov	r2, r1
 261 0016 0146     		mov	r1, r0
 262              	.LVL21:
 298:../02_OS/USB_DEVICE/App/usbd_cdc_if.c ****   result = USBD_CDC_TransmitPacket(&hUsbDeviceFS);
 263              		.loc 1 298 3 view .LVU55
 264 0018 2046     		mov	r0, r4
 265              	.LVL22:
 298:../02_OS/USB_DEVICE/App/usbd_cdc_if.c ****   result = USBD_CDC_TransmitPacket(&hUsbDeviceFS);
 266              		.loc 1 298 3 view .LVU56
 267 001a FFF7FEFF 		bl	USBD_CDC_SetTxBuffer
 268              	.LVL23:
 299:../02_OS/USB_DEVICE/App/usbd_cdc_if.c ****   /* USER CODE END 7 */
 269              		.loc 1 299 3 is_stmt 1 view .LVU57
 299:../02_OS/USB_DEVICE/App/usbd_cdc_if.c ****   /* USER CODE END 7 */
 270              		.loc 1 299 12 is_stmt 0 view .LVU58
ARM GAS  C:\Users\minde\AppData\Local\Temp\ccmr7ttv.s 			page 12


 271 001e 2046     		mov	r0, r4
 272 0020 FFF7FEFF 		bl	USBD_CDC_TransmitPacket
 273              	.LVL24:
 301:../02_OS/USB_DEVICE/App/usbd_cdc_if.c **** }
 274              		.loc 1 301 3 is_stmt 1 view .LVU59
 302:../02_OS/USB_DEVICE/App/usbd_cdc_if.c **** 
 275              		.loc 1 302 1 is_stmt 0 view .LVU60
 276 0024 10BD     		pop	{r4, pc}
 277              	.L25:
 278 0026 00BF     		.align	2
 279              	.L24:
 280 0028 00000000 		.word	hUsbDeviceFS
 281              		.cfi_endproc
 282              	.LFE296:
 284              		.global	USBD_Interface_fops_FS
 285              		.global	UserTxBufferFS
 286              		.global	UserRxBufferFS
 287              		.section	.bss.UserRxBufferFS,"aw",%nobits
 288              		.align	2
 289              		.set	.LANCHOR1,. + 0
 292              	UserRxBufferFS:
 293 0000 00000000 		.space	1000
 293      00000000 
 293      00000000 
 293      00000000 
 293      00000000 
 294              		.section	.bss.UserTxBufferFS,"aw",%nobits
 295              		.align	2
 296              		.set	.LANCHOR0,. + 0
 299              	UserTxBufferFS:
 300 0000 00000000 		.space	1000
 300      00000000 
 300      00000000 
 300      00000000 
 300      00000000 
 301              		.section	.data.USBD_Interface_fops_FS,"aw"
 302              		.align	2
 305              	USBD_Interface_fops_FS:
 306 0000 00000000 		.word	CDC_Init_FS
 307 0004 00000000 		.word	CDC_DeInit_FS
 308 0008 00000000 		.word	CDC_Control_FS
 309 000c 00000000 		.word	CDC_Receive_FS
 310 0010 00000000 		.word	CDC_TransmitCplt_FS
 311              		.text
 312              	.Letext0:
 313              		.file 2 "c:\\gnuarm\\arm-none-eabi\\include\\machine\\_default_types.h"
 314              		.file 3 "c:\\gnuarm\\arm-none-eabi\\include\\sys\\_stdint.h"
 315              		.file 4 "../03_Drivers/Middlewares/ST/STM32_USB_Device_Library/Core/Inc/usbd_def.h"
 316              		.file 5 "../03_Drivers/Middlewares/ST/STM32_USB_Device_Library/Class/CDC/Inc/usbd_cdc.h"
 317              		.file 6 "../02_OS/EKM_Buffer/EKM_Buffer.h"
 318              		.file 7 "../02_OS/USB_DEVICE/App/usbd_cdc_if.h"
 319              		.file 8 "../01_Applcation/Appl_USBService/Appl_USBService.h"
ARM GAS  C:\Users\minde\AppData\Local\Temp\ccmr7ttv.s 			page 13


DEFINED SYMBOLS
                            *ABS*:00000000 usbd_cdc_if.c
C:\Users\minde\AppData\Local\Temp\ccmr7ttv.s:20     .text.CDC_DeInit_FS:00000000 $t
C:\Users\minde\AppData\Local\Temp\ccmr7ttv.s:25     .text.CDC_DeInit_FS:00000000 CDC_DeInit_FS
C:\Users\minde\AppData\Local\Temp\ccmr7ttv.s:41     .text.CDC_Control_FS:00000000 $t
C:\Users\minde\AppData\Local\Temp\ccmr7ttv.s:46     .text.CDC_Control_FS:00000000 CDC_Control_FS
C:\Users\minde\AppData\Local\Temp\ccmr7ttv.s:65     .text.CDC_TransmitCplt_FS:00000000 $t
C:\Users\minde\AppData\Local\Temp\ccmr7ttv.s:70     .text.CDC_TransmitCplt_FS:00000000 CDC_TransmitCplt_FS
C:\Users\minde\AppData\Local\Temp\ccmr7ttv.s:92     .text.CDC_Receive_FS:00000000 $t
C:\Users\minde\AppData\Local\Temp\ccmr7ttv.s:97     .text.CDC_Receive_FS:00000000 CDC_Receive_FS
C:\Users\minde\AppData\Local\Temp\ccmr7ttv.s:170    .text.CDC_Receive_FS:00000034 $d
C:\Users\minde\AppData\Local\Temp\ccmr7ttv.s:176    .text.CDC_Init_FS:00000000 $t
C:\Users\minde\AppData\Local\Temp\ccmr7ttv.s:181    .text.CDC_Init_FS:00000000 CDC_Init_FS
C:\Users\minde\AppData\Local\Temp\ccmr7ttv.s:211    .text.CDC_Init_FS:0000001c $d
C:\Users\minde\AppData\Local\Temp\ccmr7ttv.s:218    .text.CDC_Transmit_FS:00000000 $t
C:\Users\minde\AppData\Local\Temp\ccmr7ttv.s:224    .text.CDC_Transmit_FS:00000000 CDC_Transmit_FS
C:\Users\minde\AppData\Local\Temp\ccmr7ttv.s:280    .text.CDC_Transmit_FS:00000028 $d
C:\Users\minde\AppData\Local\Temp\ccmr7ttv.s:305    .data.USBD_Interface_fops_FS:00000000 USBD_Interface_fops_FS
C:\Users\minde\AppData\Local\Temp\ccmr7ttv.s:299    .bss.UserTxBufferFS:00000000 UserTxBufferFS
C:\Users\minde\AppData\Local\Temp\ccmr7ttv.s:292    .bss.UserRxBufferFS:00000000 UserRxBufferFS
C:\Users\minde\AppData\Local\Temp\ccmr7ttv.s:288    .bss.UserRxBufferFS:00000000 $d
C:\Users\minde\AppData\Local\Temp\ccmr7ttv.s:295    .bss.UserTxBufferFS:00000000 $d
C:\Users\minde\AppData\Local\Temp\ccmr7ttv.s:302    .data.USBD_Interface_fops_FS:00000000 $d

UNDEFINED SYMBOLS
EKM_Buffer_Set
USBD_CDC_SetRxBuffer
USBD_CDC_ReceivePacket
APPL_USB_Rx
hUsbDeviceFS
USBD_CDC_SetTxBuffer
USBD_CDC_TransmitPacket
