ARM GAS  C:\Users\minde\AppData\Local\Temp\ccUwUXx6.s 			page 1


   1              		.cpu cortex-m4
   2              		.eabi_attribute 27, 1
   3              		.eabi_attribute 28, 1
   4              		.eabi_attribute 20, 1
   5              		.eabi_attribute 21, 1
   6              		.eabi_attribute 23, 3
   7              		.eabi_attribute 24, 1
   8              		.eabi_attribute 25, 1
   9              		.eabi_attribute 26, 1
  10              		.eabi_attribute 30, 1
  11              		.eabi_attribute 34, 1
  12              		.eabi_attribute 18, 4
  13              		.file	"stm32l4xx_hal_uart_ex.c"
  14              		.text
  15              	.Ltext0:
  16              		.cfi_sections	.debug_frame
  17              		.section	.rodata.UARTEx_Wakeup_AddressConfig.str1.4,"aMS",%progbits,1
  18              		.align	2
  19              	.LC0:
  20 0000 2E2E2F30 		.ascii	"../03_Drivers/STM32L4xx_HAL_Driver/Src/stm32l4xx_ha"
  20      335F4472 
  20      69766572 
  20      732F5354 
  20      4D33324C 
  21 0033 6C5F7561 		.ascii	"l_uart_ex.c\000"
  21      72745F65 
  21      782E6300 
  22              		.section	.text.UARTEx_Wakeup_AddressConfig,"ax",%progbits
  23              		.align	1
  24              		.arch armv7e-m
  25              		.syntax unified
  26              		.thumb
  27              		.thumb_func
  28              		.fpu fpv4-sp-d16
  30              	UARTEx_Wakeup_AddressConfig:
  31              	.LVL0:
  32              	.LFB299:
  33              		.file 1 "../03_Drivers/STM32L4xx_HAL_Driver/Src/stm32l4xx_hal_uart_ex.c"
   1:../03_Drivers/STM32L4xx_HAL_Driver/Src/stm32l4xx_hal_uart_ex.c **** /**
   2:../03_Drivers/STM32L4xx_HAL_Driver/Src/stm32l4xx_hal_uart_ex.c ****   ******************************************************************************
   3:../03_Drivers/STM32L4xx_HAL_Driver/Src/stm32l4xx_hal_uart_ex.c ****   * @file    stm32l4xx_hal_uart_ex.c
   4:../03_Drivers/STM32L4xx_HAL_Driver/Src/stm32l4xx_hal_uart_ex.c ****   * @author  MCD Application Team
   5:../03_Drivers/STM32L4xx_HAL_Driver/Src/stm32l4xx_hal_uart_ex.c ****   * @brief   Extended UART HAL module driver.
   6:../03_Drivers/STM32L4xx_HAL_Driver/Src/stm32l4xx_hal_uart_ex.c ****   *          This file provides firmware functions to manage the following extended
   7:../03_Drivers/STM32L4xx_HAL_Driver/Src/stm32l4xx_hal_uart_ex.c ****   *          functionalities of the Universal Asynchronous Receiver Transmitter Peripheral (UART).
   8:../03_Drivers/STM32L4xx_HAL_Driver/Src/stm32l4xx_hal_uart_ex.c ****   *           + Initialization and de-initialization functions
   9:../03_Drivers/STM32L4xx_HAL_Driver/Src/stm32l4xx_hal_uart_ex.c ****   *           + Peripheral Control functions
  10:../03_Drivers/STM32L4xx_HAL_Driver/Src/stm32l4xx_hal_uart_ex.c ****   *
  11:../03_Drivers/STM32L4xx_HAL_Driver/Src/stm32l4xx_hal_uart_ex.c ****   *
  12:../03_Drivers/STM32L4xx_HAL_Driver/Src/stm32l4xx_hal_uart_ex.c ****   @verbatim
  13:../03_Drivers/STM32L4xx_HAL_Driver/Src/stm32l4xx_hal_uart_ex.c ****   ==============================================================================
  14:../03_Drivers/STM32L4xx_HAL_Driver/Src/stm32l4xx_hal_uart_ex.c ****                ##### UART peripheral extended features  #####
  15:../03_Drivers/STM32L4xx_HAL_Driver/Src/stm32l4xx_hal_uart_ex.c ****   ==============================================================================
  16:../03_Drivers/STM32L4xx_HAL_Driver/Src/stm32l4xx_hal_uart_ex.c **** 
  17:../03_Drivers/STM32L4xx_HAL_Driver/Src/stm32l4xx_hal_uart_ex.c ****     (#) Declare a UART_HandleTypeDef handle structure.
  18:../03_Drivers/STM32L4xx_HAL_Driver/Src/stm32l4xx_hal_uart_ex.c **** 
  19:../03_Drivers/STM32L4xx_HAL_Driver/Src/stm32l4xx_hal_uart_ex.c ****     (#) For the UART RS485 Driver Enable mode, initialize the UART registers
ARM GAS  C:\Users\minde\AppData\Local\Temp\ccUwUXx6.s 			page 2


  20:../03_Drivers/STM32L4xx_HAL_Driver/Src/stm32l4xx_hal_uart_ex.c ****         by calling the HAL_RS485Ex_Init() API.
  21:../03_Drivers/STM32L4xx_HAL_Driver/Src/stm32l4xx_hal_uart_ex.c **** 
  22:../03_Drivers/STM32L4xx_HAL_Driver/Src/stm32l4xx_hal_uart_ex.c ****     (#) FIFO mode enabling/disabling and RX/TX FIFO threshold programming.
  23:../03_Drivers/STM32L4xx_HAL_Driver/Src/stm32l4xx_hal_uart_ex.c **** 
  24:../03_Drivers/STM32L4xx_HAL_Driver/Src/stm32l4xx_hal_uart_ex.c ****         -@- When UART operates in FIFO mode, FIFO mode must be enabled prior
  25:../03_Drivers/STM32L4xx_HAL_Driver/Src/stm32l4xx_hal_uart_ex.c ****             starting RX/TX transfers. Also RX/TX FIFO thresholds must be
  26:../03_Drivers/STM32L4xx_HAL_Driver/Src/stm32l4xx_hal_uart_ex.c ****             configured prior starting RX/TX transfers.
  27:../03_Drivers/STM32L4xx_HAL_Driver/Src/stm32l4xx_hal_uart_ex.c **** 
  28:../03_Drivers/STM32L4xx_HAL_Driver/Src/stm32l4xx_hal_uart_ex.c ****   @endverbatim
  29:../03_Drivers/STM32L4xx_HAL_Driver/Src/stm32l4xx_hal_uart_ex.c ****   ******************************************************************************
  30:../03_Drivers/STM32L4xx_HAL_Driver/Src/stm32l4xx_hal_uart_ex.c ****   * @attention
  31:../03_Drivers/STM32L4xx_HAL_Driver/Src/stm32l4xx_hal_uart_ex.c ****   *
  32:../03_Drivers/STM32L4xx_HAL_Driver/Src/stm32l4xx_hal_uart_ex.c ****   * <h2><center>&copy; Copyright (c) 2017 STMicroelectronics.
  33:../03_Drivers/STM32L4xx_HAL_Driver/Src/stm32l4xx_hal_uart_ex.c ****   * All rights reserved.</center></h2>
  34:../03_Drivers/STM32L4xx_HAL_Driver/Src/stm32l4xx_hal_uart_ex.c ****   *
  35:../03_Drivers/STM32L4xx_HAL_Driver/Src/stm32l4xx_hal_uart_ex.c ****   * This software component is licensed by ST under BSD 3-Clause license,
  36:../03_Drivers/STM32L4xx_HAL_Driver/Src/stm32l4xx_hal_uart_ex.c ****   * the "License"; You may not use this file except in compliance with the
  37:../03_Drivers/STM32L4xx_HAL_Driver/Src/stm32l4xx_hal_uart_ex.c ****   * License. You may obtain a copy of the License at:
  38:../03_Drivers/STM32L4xx_HAL_Driver/Src/stm32l4xx_hal_uart_ex.c ****   *                        opensource.org/licenses/BSD-3-Clause
  39:../03_Drivers/STM32L4xx_HAL_Driver/Src/stm32l4xx_hal_uart_ex.c ****   *
  40:../03_Drivers/STM32L4xx_HAL_Driver/Src/stm32l4xx_hal_uart_ex.c ****   ******************************************************************************
  41:../03_Drivers/STM32L4xx_HAL_Driver/Src/stm32l4xx_hal_uart_ex.c ****   */
  42:../03_Drivers/STM32L4xx_HAL_Driver/Src/stm32l4xx_hal_uart_ex.c **** 
  43:../03_Drivers/STM32L4xx_HAL_Driver/Src/stm32l4xx_hal_uart_ex.c **** /* Includes ------------------------------------------------------------------*/
  44:../03_Drivers/STM32L4xx_HAL_Driver/Src/stm32l4xx_hal_uart_ex.c **** #include "stm32l4xx_hal.h"
  45:../03_Drivers/STM32L4xx_HAL_Driver/Src/stm32l4xx_hal_uart_ex.c **** 
  46:../03_Drivers/STM32L4xx_HAL_Driver/Src/stm32l4xx_hal_uart_ex.c **** /** @addtogroup STM32L4xx_HAL_Driver
  47:../03_Drivers/STM32L4xx_HAL_Driver/Src/stm32l4xx_hal_uart_ex.c ****   * @{
  48:../03_Drivers/STM32L4xx_HAL_Driver/Src/stm32l4xx_hal_uart_ex.c ****   */
  49:../03_Drivers/STM32L4xx_HAL_Driver/Src/stm32l4xx_hal_uart_ex.c **** 
  50:../03_Drivers/STM32L4xx_HAL_Driver/Src/stm32l4xx_hal_uart_ex.c **** /** @defgroup UARTEx UARTEx
  51:../03_Drivers/STM32L4xx_HAL_Driver/Src/stm32l4xx_hal_uart_ex.c ****   * @brief UART Extended HAL module driver
  52:../03_Drivers/STM32L4xx_HAL_Driver/Src/stm32l4xx_hal_uart_ex.c ****   * @{
  53:../03_Drivers/STM32L4xx_HAL_Driver/Src/stm32l4xx_hal_uart_ex.c ****   */
  54:../03_Drivers/STM32L4xx_HAL_Driver/Src/stm32l4xx_hal_uart_ex.c **** 
  55:../03_Drivers/STM32L4xx_HAL_Driver/Src/stm32l4xx_hal_uart_ex.c **** #ifdef HAL_UART_MODULE_ENABLED
  56:../03_Drivers/STM32L4xx_HAL_Driver/Src/stm32l4xx_hal_uart_ex.c **** 
  57:../03_Drivers/STM32L4xx_HAL_Driver/Src/stm32l4xx_hal_uart_ex.c **** /* Private typedef -----------------------------------------------------------*/
  58:../03_Drivers/STM32L4xx_HAL_Driver/Src/stm32l4xx_hal_uart_ex.c **** /* Private define ------------------------------------------------------------*/
  59:../03_Drivers/STM32L4xx_HAL_Driver/Src/stm32l4xx_hal_uart_ex.c **** #if defined(USART_CR1_FIFOEN)
  60:../03_Drivers/STM32L4xx_HAL_Driver/Src/stm32l4xx_hal_uart_ex.c **** /** @defgroup UARTEX_Private_Constants UARTEx Private Constants
  61:../03_Drivers/STM32L4xx_HAL_Driver/Src/stm32l4xx_hal_uart_ex.c ****   * @{
  62:../03_Drivers/STM32L4xx_HAL_Driver/Src/stm32l4xx_hal_uart_ex.c ****   */
  63:../03_Drivers/STM32L4xx_HAL_Driver/Src/stm32l4xx_hal_uart_ex.c **** /* UART RX FIFO depth */
  64:../03_Drivers/STM32L4xx_HAL_Driver/Src/stm32l4xx_hal_uart_ex.c **** #define RX_FIFO_DEPTH 8U
  65:../03_Drivers/STM32L4xx_HAL_Driver/Src/stm32l4xx_hal_uart_ex.c **** 
  66:../03_Drivers/STM32L4xx_HAL_Driver/Src/stm32l4xx_hal_uart_ex.c **** /* UART TX FIFO depth */
  67:../03_Drivers/STM32L4xx_HAL_Driver/Src/stm32l4xx_hal_uart_ex.c **** #define TX_FIFO_DEPTH 8U
  68:../03_Drivers/STM32L4xx_HAL_Driver/Src/stm32l4xx_hal_uart_ex.c **** /**
  69:../03_Drivers/STM32L4xx_HAL_Driver/Src/stm32l4xx_hal_uart_ex.c ****   * @}
  70:../03_Drivers/STM32L4xx_HAL_Driver/Src/stm32l4xx_hal_uart_ex.c ****   */
  71:../03_Drivers/STM32L4xx_HAL_Driver/Src/stm32l4xx_hal_uart_ex.c **** #endif /* USART_CR1_FIFOEN */
  72:../03_Drivers/STM32L4xx_HAL_Driver/Src/stm32l4xx_hal_uart_ex.c **** 
  73:../03_Drivers/STM32L4xx_HAL_Driver/Src/stm32l4xx_hal_uart_ex.c **** /* Private macros ------------------------------------------------------------*/
  74:../03_Drivers/STM32L4xx_HAL_Driver/Src/stm32l4xx_hal_uart_ex.c **** /* Private variables ---------------------------------------------------------*/
  75:../03_Drivers/STM32L4xx_HAL_Driver/Src/stm32l4xx_hal_uart_ex.c **** /* Private function prototypes -----------------------------------------------*/
  76:../03_Drivers/STM32L4xx_HAL_Driver/Src/stm32l4xx_hal_uart_ex.c **** /** @defgroup UARTEx_Private_Functions UARTEx Private Functions
ARM GAS  C:\Users\minde\AppData\Local\Temp\ccUwUXx6.s 			page 3


  77:../03_Drivers/STM32L4xx_HAL_Driver/Src/stm32l4xx_hal_uart_ex.c ****   * @{
  78:../03_Drivers/STM32L4xx_HAL_Driver/Src/stm32l4xx_hal_uart_ex.c ****   */
  79:../03_Drivers/STM32L4xx_HAL_Driver/Src/stm32l4xx_hal_uart_ex.c **** static void UARTEx_Wakeup_AddressConfig(UART_HandleTypeDef *huart, UART_WakeUpTypeDef WakeUpSelecti
  80:../03_Drivers/STM32L4xx_HAL_Driver/Src/stm32l4xx_hal_uart_ex.c **** #if defined(USART_CR1_FIFOEN)
  81:../03_Drivers/STM32L4xx_HAL_Driver/Src/stm32l4xx_hal_uart_ex.c **** static void UARTEx_SetNbDataToProcess(UART_HandleTypeDef *huart);
  82:../03_Drivers/STM32L4xx_HAL_Driver/Src/stm32l4xx_hal_uart_ex.c **** #endif /* USART_CR1_FIFOEN */
  83:../03_Drivers/STM32L4xx_HAL_Driver/Src/stm32l4xx_hal_uart_ex.c **** /**
  84:../03_Drivers/STM32L4xx_HAL_Driver/Src/stm32l4xx_hal_uart_ex.c ****   * @}
  85:../03_Drivers/STM32L4xx_HAL_Driver/Src/stm32l4xx_hal_uart_ex.c ****   */
  86:../03_Drivers/STM32L4xx_HAL_Driver/Src/stm32l4xx_hal_uart_ex.c **** 
  87:../03_Drivers/STM32L4xx_HAL_Driver/Src/stm32l4xx_hal_uart_ex.c **** /* Exported functions --------------------------------------------------------*/
  88:../03_Drivers/STM32L4xx_HAL_Driver/Src/stm32l4xx_hal_uart_ex.c **** 
  89:../03_Drivers/STM32L4xx_HAL_Driver/Src/stm32l4xx_hal_uart_ex.c **** /** @defgroup UARTEx_Exported_Functions  UARTEx Exported Functions
  90:../03_Drivers/STM32L4xx_HAL_Driver/Src/stm32l4xx_hal_uart_ex.c ****   * @{
  91:../03_Drivers/STM32L4xx_HAL_Driver/Src/stm32l4xx_hal_uart_ex.c ****   */
  92:../03_Drivers/STM32L4xx_HAL_Driver/Src/stm32l4xx_hal_uart_ex.c **** 
  93:../03_Drivers/STM32L4xx_HAL_Driver/Src/stm32l4xx_hal_uart_ex.c **** /** @defgroup UARTEx_Exported_Functions_Group1 Initialization and de-initialization functions
  94:../03_Drivers/STM32L4xx_HAL_Driver/Src/stm32l4xx_hal_uart_ex.c ****   * @brief    Extended Initialization and Configuration Functions
  95:../03_Drivers/STM32L4xx_HAL_Driver/Src/stm32l4xx_hal_uart_ex.c ****   *
  96:../03_Drivers/STM32L4xx_HAL_Driver/Src/stm32l4xx_hal_uart_ex.c **** @verbatim
  97:../03_Drivers/STM32L4xx_HAL_Driver/Src/stm32l4xx_hal_uart_ex.c **** ===============================================================================
  98:../03_Drivers/STM32L4xx_HAL_Driver/Src/stm32l4xx_hal_uart_ex.c ****             ##### Initialization and Configuration functions #####
  99:../03_Drivers/STM32L4xx_HAL_Driver/Src/stm32l4xx_hal_uart_ex.c ****  ===============================================================================
 100:../03_Drivers/STM32L4xx_HAL_Driver/Src/stm32l4xx_hal_uart_ex.c ****     [..]
 101:../03_Drivers/STM32L4xx_HAL_Driver/Src/stm32l4xx_hal_uart_ex.c ****     This subsection provides a set of functions allowing to initialize the USARTx or the UARTy
 102:../03_Drivers/STM32L4xx_HAL_Driver/Src/stm32l4xx_hal_uart_ex.c ****     in asynchronous mode.
 103:../03_Drivers/STM32L4xx_HAL_Driver/Src/stm32l4xx_hal_uart_ex.c ****       (+) For the asynchronous mode the parameters below can be configured:
 104:../03_Drivers/STM32L4xx_HAL_Driver/Src/stm32l4xx_hal_uart_ex.c ****         (++) Baud Rate
 105:../03_Drivers/STM32L4xx_HAL_Driver/Src/stm32l4xx_hal_uart_ex.c ****         (++) Word Length
 106:../03_Drivers/STM32L4xx_HAL_Driver/Src/stm32l4xx_hal_uart_ex.c ****         (++) Stop Bit
 107:../03_Drivers/STM32L4xx_HAL_Driver/Src/stm32l4xx_hal_uart_ex.c ****         (++) Parity: If the parity is enabled, then the MSB bit of the data written
 108:../03_Drivers/STM32L4xx_HAL_Driver/Src/stm32l4xx_hal_uart_ex.c ****              in the data register is transmitted but is changed by the parity bit.
 109:../03_Drivers/STM32L4xx_HAL_Driver/Src/stm32l4xx_hal_uart_ex.c ****         (++) Hardware flow control
 110:../03_Drivers/STM32L4xx_HAL_Driver/Src/stm32l4xx_hal_uart_ex.c ****         (++) Receiver/transmitter modes
 111:../03_Drivers/STM32L4xx_HAL_Driver/Src/stm32l4xx_hal_uart_ex.c ****         (++) Over Sampling Method
 112:../03_Drivers/STM32L4xx_HAL_Driver/Src/stm32l4xx_hal_uart_ex.c ****         (++) One-Bit Sampling Method
 113:../03_Drivers/STM32L4xx_HAL_Driver/Src/stm32l4xx_hal_uart_ex.c ****       (+) For the asynchronous mode, the following advanced features can be configured as well:
 114:../03_Drivers/STM32L4xx_HAL_Driver/Src/stm32l4xx_hal_uart_ex.c ****         (++) TX and/or RX pin level inversion
 115:../03_Drivers/STM32L4xx_HAL_Driver/Src/stm32l4xx_hal_uart_ex.c ****         (++) data logical level inversion
 116:../03_Drivers/STM32L4xx_HAL_Driver/Src/stm32l4xx_hal_uart_ex.c ****         (++) RX and TX pins swap
 117:../03_Drivers/STM32L4xx_HAL_Driver/Src/stm32l4xx_hal_uart_ex.c ****         (++) RX overrun detection disabling
 118:../03_Drivers/STM32L4xx_HAL_Driver/Src/stm32l4xx_hal_uart_ex.c ****         (++) DMA disabling on RX error
 119:../03_Drivers/STM32L4xx_HAL_Driver/Src/stm32l4xx_hal_uart_ex.c ****         (++) MSB first on communication line
 120:../03_Drivers/STM32L4xx_HAL_Driver/Src/stm32l4xx_hal_uart_ex.c ****         (++) auto Baud rate detection
 121:../03_Drivers/STM32L4xx_HAL_Driver/Src/stm32l4xx_hal_uart_ex.c ****     [..]
 122:../03_Drivers/STM32L4xx_HAL_Driver/Src/stm32l4xx_hal_uart_ex.c ****     The HAL_RS485Ex_Init() API follows the UART RS485 mode configuration
 123:../03_Drivers/STM32L4xx_HAL_Driver/Src/stm32l4xx_hal_uart_ex.c ****      procedures (details for the procedures are available in reference manual).
 124:../03_Drivers/STM32L4xx_HAL_Driver/Src/stm32l4xx_hal_uart_ex.c **** 
 125:../03_Drivers/STM32L4xx_HAL_Driver/Src/stm32l4xx_hal_uart_ex.c **** @endverbatim
 126:../03_Drivers/STM32L4xx_HAL_Driver/Src/stm32l4xx_hal_uart_ex.c **** 
 127:../03_Drivers/STM32L4xx_HAL_Driver/Src/stm32l4xx_hal_uart_ex.c ****   Depending on the frame length defined by the M1 and M0 bits (7-bit,
 128:../03_Drivers/STM32L4xx_HAL_Driver/Src/stm32l4xx_hal_uart_ex.c ****   8-bit or 9-bit), the possible UART formats are listed in the
 129:../03_Drivers/STM32L4xx_HAL_Driver/Src/stm32l4xx_hal_uart_ex.c ****   following table.
 130:../03_Drivers/STM32L4xx_HAL_Driver/Src/stm32l4xx_hal_uart_ex.c **** 
 131:../03_Drivers/STM32L4xx_HAL_Driver/Src/stm32l4xx_hal_uart_ex.c ****     Table 1. UART frame format.
 132:../03_Drivers/STM32L4xx_HAL_Driver/Src/stm32l4xx_hal_uart_ex.c ****     +-----------------------------------------------------------------------+
 133:../03_Drivers/STM32L4xx_HAL_Driver/Src/stm32l4xx_hal_uart_ex.c ****     |  M1 bit |  M0 bit |  PCE bit  |             UART frame                |
ARM GAS  C:\Users\minde\AppData\Local\Temp\ccUwUXx6.s 			page 4


 134:../03_Drivers/STM32L4xx_HAL_Driver/Src/stm32l4xx_hal_uart_ex.c ****     |---------|---------|-----------|---------------------------------------|
 135:../03_Drivers/STM32L4xx_HAL_Driver/Src/stm32l4xx_hal_uart_ex.c ****     |    0    |    0    |    0      |    | SB |    8 bit data   | STB |     |
 136:../03_Drivers/STM32L4xx_HAL_Driver/Src/stm32l4xx_hal_uart_ex.c ****     |---------|---------|-----------|---------------------------------------|
 137:../03_Drivers/STM32L4xx_HAL_Driver/Src/stm32l4xx_hal_uart_ex.c ****     |    0    |    0    |    1      |    | SB | 7 bit data | PB | STB |     |
 138:../03_Drivers/STM32L4xx_HAL_Driver/Src/stm32l4xx_hal_uart_ex.c ****     |---------|---------|-----------|---------------------------------------|
 139:../03_Drivers/STM32L4xx_HAL_Driver/Src/stm32l4xx_hal_uart_ex.c ****     |    0    |    1    |    0      |    | SB |    9 bit data   | STB |     |
 140:../03_Drivers/STM32L4xx_HAL_Driver/Src/stm32l4xx_hal_uart_ex.c ****     |---------|---------|-----------|---------------------------------------|
 141:../03_Drivers/STM32L4xx_HAL_Driver/Src/stm32l4xx_hal_uart_ex.c ****     |    0    |    1    |    1      |    | SB | 8 bit data | PB | STB |     |
 142:../03_Drivers/STM32L4xx_HAL_Driver/Src/stm32l4xx_hal_uart_ex.c ****     |---------|---------|-----------|---------------------------------------|
 143:../03_Drivers/STM32L4xx_HAL_Driver/Src/stm32l4xx_hal_uart_ex.c ****     |    1    |    0    |    0      |    | SB |    7 bit data   | STB |     |
 144:../03_Drivers/STM32L4xx_HAL_Driver/Src/stm32l4xx_hal_uart_ex.c ****     |---------|---------|-----------|---------------------------------------|
 145:../03_Drivers/STM32L4xx_HAL_Driver/Src/stm32l4xx_hal_uart_ex.c ****     |    1    |    0    |    1      |    | SB | 6 bit data | PB | STB |     |
 146:../03_Drivers/STM32L4xx_HAL_Driver/Src/stm32l4xx_hal_uart_ex.c ****     +-----------------------------------------------------------------------+
 147:../03_Drivers/STM32L4xx_HAL_Driver/Src/stm32l4xx_hal_uart_ex.c **** 
 148:../03_Drivers/STM32L4xx_HAL_Driver/Src/stm32l4xx_hal_uart_ex.c ****   * @{
 149:../03_Drivers/STM32L4xx_HAL_Driver/Src/stm32l4xx_hal_uart_ex.c ****   */
 150:../03_Drivers/STM32L4xx_HAL_Driver/Src/stm32l4xx_hal_uart_ex.c **** 
 151:../03_Drivers/STM32L4xx_HAL_Driver/Src/stm32l4xx_hal_uart_ex.c **** /**
 152:../03_Drivers/STM32L4xx_HAL_Driver/Src/stm32l4xx_hal_uart_ex.c ****   * @brief Initialize the RS485 Driver enable feature according to the specified
 153:../03_Drivers/STM32L4xx_HAL_Driver/Src/stm32l4xx_hal_uart_ex.c ****   *         parameters in the UART_InitTypeDef and creates the associated handle.
 154:../03_Drivers/STM32L4xx_HAL_Driver/Src/stm32l4xx_hal_uart_ex.c ****   * @param huart            UART handle.
 155:../03_Drivers/STM32L4xx_HAL_Driver/Src/stm32l4xx_hal_uart_ex.c ****   * @param Polarity         Select the driver enable polarity.
 156:../03_Drivers/STM32L4xx_HAL_Driver/Src/stm32l4xx_hal_uart_ex.c ****   *          This parameter can be one of the following values:
 157:../03_Drivers/STM32L4xx_HAL_Driver/Src/stm32l4xx_hal_uart_ex.c ****   *          @arg @ref UART_DE_POLARITY_HIGH DE signal is active high
 158:../03_Drivers/STM32L4xx_HAL_Driver/Src/stm32l4xx_hal_uart_ex.c ****   *          @arg @ref UART_DE_POLARITY_LOW  DE signal is active low
 159:../03_Drivers/STM32L4xx_HAL_Driver/Src/stm32l4xx_hal_uart_ex.c ****   * @param AssertionTime    Driver Enable assertion time:
 160:../03_Drivers/STM32L4xx_HAL_Driver/Src/stm32l4xx_hal_uart_ex.c ****   *       5-bit value defining the time between the activation of the DE (Driver Enable)
 161:../03_Drivers/STM32L4xx_HAL_Driver/Src/stm32l4xx_hal_uart_ex.c ****   *       signal and the beginning of the start bit. It is expressed in sample time
 162:../03_Drivers/STM32L4xx_HAL_Driver/Src/stm32l4xx_hal_uart_ex.c ****   *       units (1/8 or 1/16 bit time, depending on the oversampling rate)
 163:../03_Drivers/STM32L4xx_HAL_Driver/Src/stm32l4xx_hal_uart_ex.c ****   * @param DeassertionTime  Driver Enable deassertion time:
 164:../03_Drivers/STM32L4xx_HAL_Driver/Src/stm32l4xx_hal_uart_ex.c ****   *       5-bit value defining the time between the end of the last stop bit, in a
 165:../03_Drivers/STM32L4xx_HAL_Driver/Src/stm32l4xx_hal_uart_ex.c ****   *       transmitted message, and the de-activation of the DE (Driver Enable) signal.
 166:../03_Drivers/STM32L4xx_HAL_Driver/Src/stm32l4xx_hal_uart_ex.c ****   *       It is expressed in sample time units (1/8 or 1/16 bit time, depending on the
 167:../03_Drivers/STM32L4xx_HAL_Driver/Src/stm32l4xx_hal_uart_ex.c ****   *       oversampling rate).
 168:../03_Drivers/STM32L4xx_HAL_Driver/Src/stm32l4xx_hal_uart_ex.c ****   * @retval HAL status
 169:../03_Drivers/STM32L4xx_HAL_Driver/Src/stm32l4xx_hal_uart_ex.c ****   */
 170:../03_Drivers/STM32L4xx_HAL_Driver/Src/stm32l4xx_hal_uart_ex.c **** HAL_StatusTypeDef HAL_RS485Ex_Init(UART_HandleTypeDef *huart, uint32_t Polarity, uint32_t Assertion
 171:../03_Drivers/STM32L4xx_HAL_Driver/Src/stm32l4xx_hal_uart_ex.c ****                                    uint32_t DeassertionTime)
 172:../03_Drivers/STM32L4xx_HAL_Driver/Src/stm32l4xx_hal_uart_ex.c **** {
 173:../03_Drivers/STM32L4xx_HAL_Driver/Src/stm32l4xx_hal_uart_ex.c ****   uint32_t temp;
 174:../03_Drivers/STM32L4xx_HAL_Driver/Src/stm32l4xx_hal_uart_ex.c **** 
 175:../03_Drivers/STM32L4xx_HAL_Driver/Src/stm32l4xx_hal_uart_ex.c ****   /* Check the UART handle allocation */
 176:../03_Drivers/STM32L4xx_HAL_Driver/Src/stm32l4xx_hal_uart_ex.c ****   if (huart == NULL)
 177:../03_Drivers/STM32L4xx_HAL_Driver/Src/stm32l4xx_hal_uart_ex.c ****   {
 178:../03_Drivers/STM32L4xx_HAL_Driver/Src/stm32l4xx_hal_uart_ex.c ****     return HAL_ERROR;
 179:../03_Drivers/STM32L4xx_HAL_Driver/Src/stm32l4xx_hal_uart_ex.c ****   }
 180:../03_Drivers/STM32L4xx_HAL_Driver/Src/stm32l4xx_hal_uart_ex.c ****   /* Check the Driver Enable UART instance */
 181:../03_Drivers/STM32L4xx_HAL_Driver/Src/stm32l4xx_hal_uart_ex.c ****   assert_param(IS_UART_DRIVER_ENABLE_INSTANCE(huart->Instance));
 182:../03_Drivers/STM32L4xx_HAL_Driver/Src/stm32l4xx_hal_uart_ex.c **** 
 183:../03_Drivers/STM32L4xx_HAL_Driver/Src/stm32l4xx_hal_uart_ex.c ****   /* Check the Driver Enable polarity */
 184:../03_Drivers/STM32L4xx_HAL_Driver/Src/stm32l4xx_hal_uart_ex.c ****   assert_param(IS_UART_DE_POLARITY(Polarity));
 185:../03_Drivers/STM32L4xx_HAL_Driver/Src/stm32l4xx_hal_uart_ex.c **** 
 186:../03_Drivers/STM32L4xx_HAL_Driver/Src/stm32l4xx_hal_uart_ex.c ****   /* Check the Driver Enable assertion time */
 187:../03_Drivers/STM32L4xx_HAL_Driver/Src/stm32l4xx_hal_uart_ex.c ****   assert_param(IS_UART_ASSERTIONTIME(AssertionTime));
 188:../03_Drivers/STM32L4xx_HAL_Driver/Src/stm32l4xx_hal_uart_ex.c **** 
 189:../03_Drivers/STM32L4xx_HAL_Driver/Src/stm32l4xx_hal_uart_ex.c ****   /* Check the Driver Enable deassertion time */
 190:../03_Drivers/STM32L4xx_HAL_Driver/Src/stm32l4xx_hal_uart_ex.c ****   assert_param(IS_UART_DEASSERTIONTIME(DeassertionTime));
ARM GAS  C:\Users\minde\AppData\Local\Temp\ccUwUXx6.s 			page 5


 191:../03_Drivers/STM32L4xx_HAL_Driver/Src/stm32l4xx_hal_uart_ex.c **** 
 192:../03_Drivers/STM32L4xx_HAL_Driver/Src/stm32l4xx_hal_uart_ex.c ****   if (huart->gState == HAL_UART_STATE_RESET)
 193:../03_Drivers/STM32L4xx_HAL_Driver/Src/stm32l4xx_hal_uart_ex.c ****   {
 194:../03_Drivers/STM32L4xx_HAL_Driver/Src/stm32l4xx_hal_uart_ex.c ****     /* Allocate lock resource and initialize it */
 195:../03_Drivers/STM32L4xx_HAL_Driver/Src/stm32l4xx_hal_uart_ex.c ****     huart->Lock = HAL_UNLOCKED;
 196:../03_Drivers/STM32L4xx_HAL_Driver/Src/stm32l4xx_hal_uart_ex.c **** 
 197:../03_Drivers/STM32L4xx_HAL_Driver/Src/stm32l4xx_hal_uart_ex.c **** #if (USE_HAL_UART_REGISTER_CALLBACKS == 1)
 198:../03_Drivers/STM32L4xx_HAL_Driver/Src/stm32l4xx_hal_uart_ex.c ****     UART_InitCallbacksToDefault(huart);
 199:../03_Drivers/STM32L4xx_HAL_Driver/Src/stm32l4xx_hal_uart_ex.c **** 
 200:../03_Drivers/STM32L4xx_HAL_Driver/Src/stm32l4xx_hal_uart_ex.c ****     if (huart->MspInitCallback == NULL)
 201:../03_Drivers/STM32L4xx_HAL_Driver/Src/stm32l4xx_hal_uart_ex.c ****     {
 202:../03_Drivers/STM32L4xx_HAL_Driver/Src/stm32l4xx_hal_uart_ex.c ****       huart->MspInitCallback = HAL_UART_MspInit;
 203:../03_Drivers/STM32L4xx_HAL_Driver/Src/stm32l4xx_hal_uart_ex.c ****     }
 204:../03_Drivers/STM32L4xx_HAL_Driver/Src/stm32l4xx_hal_uart_ex.c **** 
 205:../03_Drivers/STM32L4xx_HAL_Driver/Src/stm32l4xx_hal_uart_ex.c ****     /* Init the low level hardware */
 206:../03_Drivers/STM32L4xx_HAL_Driver/Src/stm32l4xx_hal_uart_ex.c ****     huart->MspInitCallback(huart);
 207:../03_Drivers/STM32L4xx_HAL_Driver/Src/stm32l4xx_hal_uart_ex.c **** #else
 208:../03_Drivers/STM32L4xx_HAL_Driver/Src/stm32l4xx_hal_uart_ex.c ****     /* Init the low level hardware : GPIO, CLOCK, CORTEX */
 209:../03_Drivers/STM32L4xx_HAL_Driver/Src/stm32l4xx_hal_uart_ex.c ****     HAL_UART_MspInit(huart);
 210:../03_Drivers/STM32L4xx_HAL_Driver/Src/stm32l4xx_hal_uart_ex.c **** #endif /* (USE_HAL_UART_REGISTER_CALLBACKS) */
 211:../03_Drivers/STM32L4xx_HAL_Driver/Src/stm32l4xx_hal_uart_ex.c ****   }
 212:../03_Drivers/STM32L4xx_HAL_Driver/Src/stm32l4xx_hal_uart_ex.c **** 
 213:../03_Drivers/STM32L4xx_HAL_Driver/Src/stm32l4xx_hal_uart_ex.c ****   huart->gState = HAL_UART_STATE_BUSY;
 214:../03_Drivers/STM32L4xx_HAL_Driver/Src/stm32l4xx_hal_uart_ex.c **** 
 215:../03_Drivers/STM32L4xx_HAL_Driver/Src/stm32l4xx_hal_uart_ex.c ****   /* Disable the Peripheral */
 216:../03_Drivers/STM32L4xx_HAL_Driver/Src/stm32l4xx_hal_uart_ex.c ****   __HAL_UART_DISABLE(huart);
 217:../03_Drivers/STM32L4xx_HAL_Driver/Src/stm32l4xx_hal_uart_ex.c **** 
 218:../03_Drivers/STM32L4xx_HAL_Driver/Src/stm32l4xx_hal_uart_ex.c ****   /* Set the UART Communication parameters */
 219:../03_Drivers/STM32L4xx_HAL_Driver/Src/stm32l4xx_hal_uart_ex.c ****   if (UART_SetConfig(huart) == HAL_ERROR)
 220:../03_Drivers/STM32L4xx_HAL_Driver/Src/stm32l4xx_hal_uart_ex.c ****   {
 221:../03_Drivers/STM32L4xx_HAL_Driver/Src/stm32l4xx_hal_uart_ex.c ****     return HAL_ERROR;
 222:../03_Drivers/STM32L4xx_HAL_Driver/Src/stm32l4xx_hal_uart_ex.c ****   }
 223:../03_Drivers/STM32L4xx_HAL_Driver/Src/stm32l4xx_hal_uart_ex.c **** 
 224:../03_Drivers/STM32L4xx_HAL_Driver/Src/stm32l4xx_hal_uart_ex.c ****   if (huart->AdvancedInit.AdvFeatureInit != UART_ADVFEATURE_NO_INIT)
 225:../03_Drivers/STM32L4xx_HAL_Driver/Src/stm32l4xx_hal_uart_ex.c ****   {
 226:../03_Drivers/STM32L4xx_HAL_Driver/Src/stm32l4xx_hal_uart_ex.c ****     UART_AdvFeatureConfig(huart);
 227:../03_Drivers/STM32L4xx_HAL_Driver/Src/stm32l4xx_hal_uart_ex.c ****   }
 228:../03_Drivers/STM32L4xx_HAL_Driver/Src/stm32l4xx_hal_uart_ex.c **** 
 229:../03_Drivers/STM32L4xx_HAL_Driver/Src/stm32l4xx_hal_uart_ex.c ****   /* Enable the Driver Enable mode by setting the DEM bit in the CR3 register */
 230:../03_Drivers/STM32L4xx_HAL_Driver/Src/stm32l4xx_hal_uart_ex.c ****   SET_BIT(huart->Instance->CR3, USART_CR3_DEM);
 231:../03_Drivers/STM32L4xx_HAL_Driver/Src/stm32l4xx_hal_uart_ex.c **** 
 232:../03_Drivers/STM32L4xx_HAL_Driver/Src/stm32l4xx_hal_uart_ex.c ****   /* Set the Driver Enable polarity */
 233:../03_Drivers/STM32L4xx_HAL_Driver/Src/stm32l4xx_hal_uart_ex.c ****   MODIFY_REG(huart->Instance->CR3, USART_CR3_DEP, Polarity);
 234:../03_Drivers/STM32L4xx_HAL_Driver/Src/stm32l4xx_hal_uart_ex.c **** 
 235:../03_Drivers/STM32L4xx_HAL_Driver/Src/stm32l4xx_hal_uart_ex.c ****   /* Set the Driver Enable assertion and deassertion times */
 236:../03_Drivers/STM32L4xx_HAL_Driver/Src/stm32l4xx_hal_uart_ex.c ****   temp = (AssertionTime << UART_CR1_DEAT_ADDRESS_LSB_POS);
 237:../03_Drivers/STM32L4xx_HAL_Driver/Src/stm32l4xx_hal_uart_ex.c ****   temp |= (DeassertionTime << UART_CR1_DEDT_ADDRESS_LSB_POS);
 238:../03_Drivers/STM32L4xx_HAL_Driver/Src/stm32l4xx_hal_uart_ex.c ****   MODIFY_REG(huart->Instance->CR1, (USART_CR1_DEDT | USART_CR1_DEAT), temp);
 239:../03_Drivers/STM32L4xx_HAL_Driver/Src/stm32l4xx_hal_uart_ex.c **** 
 240:../03_Drivers/STM32L4xx_HAL_Driver/Src/stm32l4xx_hal_uart_ex.c ****   /* Enable the Peripheral */
 241:../03_Drivers/STM32L4xx_HAL_Driver/Src/stm32l4xx_hal_uart_ex.c ****   __HAL_UART_ENABLE(huart);
 242:../03_Drivers/STM32L4xx_HAL_Driver/Src/stm32l4xx_hal_uart_ex.c **** 
 243:../03_Drivers/STM32L4xx_HAL_Driver/Src/stm32l4xx_hal_uart_ex.c ****   /* TEACK and/or REACK to check before moving huart->gState and huart->RxState to Ready */
 244:../03_Drivers/STM32L4xx_HAL_Driver/Src/stm32l4xx_hal_uart_ex.c ****   return (UART_CheckIdleState(huart));
 245:../03_Drivers/STM32L4xx_HAL_Driver/Src/stm32l4xx_hal_uart_ex.c **** }
 246:../03_Drivers/STM32L4xx_HAL_Driver/Src/stm32l4xx_hal_uart_ex.c **** 
 247:../03_Drivers/STM32L4xx_HAL_Driver/Src/stm32l4xx_hal_uart_ex.c **** /**
ARM GAS  C:\Users\minde\AppData\Local\Temp\ccUwUXx6.s 			page 6


 248:../03_Drivers/STM32L4xx_HAL_Driver/Src/stm32l4xx_hal_uart_ex.c ****   * @}
 249:../03_Drivers/STM32L4xx_HAL_Driver/Src/stm32l4xx_hal_uart_ex.c ****   */
 250:../03_Drivers/STM32L4xx_HAL_Driver/Src/stm32l4xx_hal_uart_ex.c **** 
 251:../03_Drivers/STM32L4xx_HAL_Driver/Src/stm32l4xx_hal_uart_ex.c **** /** @defgroup UARTEx_Exported_Functions_Group2 IO operation functions
 252:../03_Drivers/STM32L4xx_HAL_Driver/Src/stm32l4xx_hal_uart_ex.c ****   *  @brief Extended functions
 253:../03_Drivers/STM32L4xx_HAL_Driver/Src/stm32l4xx_hal_uart_ex.c ****   *
 254:../03_Drivers/STM32L4xx_HAL_Driver/Src/stm32l4xx_hal_uart_ex.c **** @verbatim
 255:../03_Drivers/STM32L4xx_HAL_Driver/Src/stm32l4xx_hal_uart_ex.c ****  ===============================================================================
 256:../03_Drivers/STM32L4xx_HAL_Driver/Src/stm32l4xx_hal_uart_ex.c ****                       ##### IO operation functions #####
 257:../03_Drivers/STM32L4xx_HAL_Driver/Src/stm32l4xx_hal_uart_ex.c ****  ===============================================================================
 258:../03_Drivers/STM32L4xx_HAL_Driver/Src/stm32l4xx_hal_uart_ex.c ****     This subsection provides a set of Wakeup and FIFO mode related callback functions.
 259:../03_Drivers/STM32L4xx_HAL_Driver/Src/stm32l4xx_hal_uart_ex.c **** 
 260:../03_Drivers/STM32L4xx_HAL_Driver/Src/stm32l4xx_hal_uart_ex.c ****     (#) Wakeup from Stop mode Callback:
 261:../03_Drivers/STM32L4xx_HAL_Driver/Src/stm32l4xx_hal_uart_ex.c ****         (+) HAL_UARTEx_WakeupCallback()
 262:../03_Drivers/STM32L4xx_HAL_Driver/Src/stm32l4xx_hal_uart_ex.c **** 
 263:../03_Drivers/STM32L4xx_HAL_Driver/Src/stm32l4xx_hal_uart_ex.c ****     (#) TX/RX Fifos Callbacks:
 264:../03_Drivers/STM32L4xx_HAL_Driver/Src/stm32l4xx_hal_uart_ex.c ****         (+) HAL_UARTEx_RxFifoFullCallback()
 265:../03_Drivers/STM32L4xx_HAL_Driver/Src/stm32l4xx_hal_uart_ex.c ****         (+) HAL_UARTEx_TxFifoEmptyCallback()
 266:../03_Drivers/STM32L4xx_HAL_Driver/Src/stm32l4xx_hal_uart_ex.c **** 
 267:../03_Drivers/STM32L4xx_HAL_Driver/Src/stm32l4xx_hal_uart_ex.c **** @endverbatim
 268:../03_Drivers/STM32L4xx_HAL_Driver/Src/stm32l4xx_hal_uart_ex.c ****   * @{
 269:../03_Drivers/STM32L4xx_HAL_Driver/Src/stm32l4xx_hal_uart_ex.c ****   */
 270:../03_Drivers/STM32L4xx_HAL_Driver/Src/stm32l4xx_hal_uart_ex.c **** 
 271:../03_Drivers/STM32L4xx_HAL_Driver/Src/stm32l4xx_hal_uart_ex.c **** /**
 272:../03_Drivers/STM32L4xx_HAL_Driver/Src/stm32l4xx_hal_uart_ex.c ****   * @brief UART wakeup from Stop mode callback.
 273:../03_Drivers/STM32L4xx_HAL_Driver/Src/stm32l4xx_hal_uart_ex.c ****   * @param huart UART handle.
 274:../03_Drivers/STM32L4xx_HAL_Driver/Src/stm32l4xx_hal_uart_ex.c ****   * @retval None
 275:../03_Drivers/STM32L4xx_HAL_Driver/Src/stm32l4xx_hal_uart_ex.c ****   */
 276:../03_Drivers/STM32L4xx_HAL_Driver/Src/stm32l4xx_hal_uart_ex.c **** __weak void HAL_UARTEx_WakeupCallback(UART_HandleTypeDef *huart)
 277:../03_Drivers/STM32L4xx_HAL_Driver/Src/stm32l4xx_hal_uart_ex.c **** {
 278:../03_Drivers/STM32L4xx_HAL_Driver/Src/stm32l4xx_hal_uart_ex.c ****   /* Prevent unused argument(s) compilation warning */
 279:../03_Drivers/STM32L4xx_HAL_Driver/Src/stm32l4xx_hal_uart_ex.c ****   UNUSED(huart);
 280:../03_Drivers/STM32L4xx_HAL_Driver/Src/stm32l4xx_hal_uart_ex.c **** 
 281:../03_Drivers/STM32L4xx_HAL_Driver/Src/stm32l4xx_hal_uart_ex.c ****   /* NOTE : This function should not be modified, when the callback is needed,
 282:../03_Drivers/STM32L4xx_HAL_Driver/Src/stm32l4xx_hal_uart_ex.c ****             the HAL_UARTEx_WakeupCallback can be implemented in the user file.
 283:../03_Drivers/STM32L4xx_HAL_Driver/Src/stm32l4xx_hal_uart_ex.c ****    */
 284:../03_Drivers/STM32L4xx_HAL_Driver/Src/stm32l4xx_hal_uart_ex.c **** }
 285:../03_Drivers/STM32L4xx_HAL_Driver/Src/stm32l4xx_hal_uart_ex.c **** 
 286:../03_Drivers/STM32L4xx_HAL_Driver/Src/stm32l4xx_hal_uart_ex.c **** #if defined(USART_CR1_FIFOEN)
 287:../03_Drivers/STM32L4xx_HAL_Driver/Src/stm32l4xx_hal_uart_ex.c **** /**
 288:../03_Drivers/STM32L4xx_HAL_Driver/Src/stm32l4xx_hal_uart_ex.c ****   * @brief  UART RX Fifo full callback.
 289:../03_Drivers/STM32L4xx_HAL_Driver/Src/stm32l4xx_hal_uart_ex.c ****   * @param  huart UART handle.
 290:../03_Drivers/STM32L4xx_HAL_Driver/Src/stm32l4xx_hal_uart_ex.c ****   * @retval None
 291:../03_Drivers/STM32L4xx_HAL_Driver/Src/stm32l4xx_hal_uart_ex.c ****   */
 292:../03_Drivers/STM32L4xx_HAL_Driver/Src/stm32l4xx_hal_uart_ex.c **** __weak void HAL_UARTEx_RxFifoFullCallback(UART_HandleTypeDef *huart)
 293:../03_Drivers/STM32L4xx_HAL_Driver/Src/stm32l4xx_hal_uart_ex.c **** {
 294:../03_Drivers/STM32L4xx_HAL_Driver/Src/stm32l4xx_hal_uart_ex.c ****   /* Prevent unused argument(s) compilation warning */
 295:../03_Drivers/STM32L4xx_HAL_Driver/Src/stm32l4xx_hal_uart_ex.c ****   UNUSED(huart);
 296:../03_Drivers/STM32L4xx_HAL_Driver/Src/stm32l4xx_hal_uart_ex.c **** 
 297:../03_Drivers/STM32L4xx_HAL_Driver/Src/stm32l4xx_hal_uart_ex.c ****   /* NOTE : This function should not be modified, when the callback is needed,
 298:../03_Drivers/STM32L4xx_HAL_Driver/Src/stm32l4xx_hal_uart_ex.c ****             the HAL_UARTEx_RxFifoFullCallback can be implemented in the user file.
 299:../03_Drivers/STM32L4xx_HAL_Driver/Src/stm32l4xx_hal_uart_ex.c ****    */
 300:../03_Drivers/STM32L4xx_HAL_Driver/Src/stm32l4xx_hal_uart_ex.c **** }
 301:../03_Drivers/STM32L4xx_HAL_Driver/Src/stm32l4xx_hal_uart_ex.c **** 
 302:../03_Drivers/STM32L4xx_HAL_Driver/Src/stm32l4xx_hal_uart_ex.c **** /**
 303:../03_Drivers/STM32L4xx_HAL_Driver/Src/stm32l4xx_hal_uart_ex.c ****   * @brief  UART TX Fifo empty callback.
 304:../03_Drivers/STM32L4xx_HAL_Driver/Src/stm32l4xx_hal_uart_ex.c ****   * @param  huart UART handle.
ARM GAS  C:\Users\minde\AppData\Local\Temp\ccUwUXx6.s 			page 7


 305:../03_Drivers/STM32L4xx_HAL_Driver/Src/stm32l4xx_hal_uart_ex.c ****   * @retval None
 306:../03_Drivers/STM32L4xx_HAL_Driver/Src/stm32l4xx_hal_uart_ex.c ****   */
 307:../03_Drivers/STM32L4xx_HAL_Driver/Src/stm32l4xx_hal_uart_ex.c **** __weak void HAL_UARTEx_TxFifoEmptyCallback(UART_HandleTypeDef *huart)
 308:../03_Drivers/STM32L4xx_HAL_Driver/Src/stm32l4xx_hal_uart_ex.c **** {
 309:../03_Drivers/STM32L4xx_HAL_Driver/Src/stm32l4xx_hal_uart_ex.c ****   /* Prevent unused argument(s) compilation warning */
 310:../03_Drivers/STM32L4xx_HAL_Driver/Src/stm32l4xx_hal_uart_ex.c ****   UNUSED(huart);
 311:../03_Drivers/STM32L4xx_HAL_Driver/Src/stm32l4xx_hal_uart_ex.c **** 
 312:../03_Drivers/STM32L4xx_HAL_Driver/Src/stm32l4xx_hal_uart_ex.c ****   /* NOTE : This function should not be modified, when the callback is needed,
 313:../03_Drivers/STM32L4xx_HAL_Driver/Src/stm32l4xx_hal_uart_ex.c ****             the HAL_UARTEx_TxFifoEmptyCallback can be implemented in the user file.
 314:../03_Drivers/STM32L4xx_HAL_Driver/Src/stm32l4xx_hal_uart_ex.c ****    */
 315:../03_Drivers/STM32L4xx_HAL_Driver/Src/stm32l4xx_hal_uart_ex.c **** }
 316:../03_Drivers/STM32L4xx_HAL_Driver/Src/stm32l4xx_hal_uart_ex.c **** #endif /* USART_CR1_FIFOEN */
 317:../03_Drivers/STM32L4xx_HAL_Driver/Src/stm32l4xx_hal_uart_ex.c **** 
 318:../03_Drivers/STM32L4xx_HAL_Driver/Src/stm32l4xx_hal_uart_ex.c **** /**
 319:../03_Drivers/STM32L4xx_HAL_Driver/Src/stm32l4xx_hal_uart_ex.c ****   * @}
 320:../03_Drivers/STM32L4xx_HAL_Driver/Src/stm32l4xx_hal_uart_ex.c ****   */
 321:../03_Drivers/STM32L4xx_HAL_Driver/Src/stm32l4xx_hal_uart_ex.c **** 
 322:../03_Drivers/STM32L4xx_HAL_Driver/Src/stm32l4xx_hal_uart_ex.c **** /** @defgroup UARTEx_Exported_Functions_Group3 Peripheral Control functions
 323:../03_Drivers/STM32L4xx_HAL_Driver/Src/stm32l4xx_hal_uart_ex.c ****   * @brief    Extended Peripheral Control functions
 324:../03_Drivers/STM32L4xx_HAL_Driver/Src/stm32l4xx_hal_uart_ex.c ****   *
 325:../03_Drivers/STM32L4xx_HAL_Driver/Src/stm32l4xx_hal_uart_ex.c **** @verbatim
 326:../03_Drivers/STM32L4xx_HAL_Driver/Src/stm32l4xx_hal_uart_ex.c ****  ===============================================================================
 327:../03_Drivers/STM32L4xx_HAL_Driver/Src/stm32l4xx_hal_uart_ex.c ****                       ##### Peripheral Control functions #####
 328:../03_Drivers/STM32L4xx_HAL_Driver/Src/stm32l4xx_hal_uart_ex.c ****  ===============================================================================
 329:../03_Drivers/STM32L4xx_HAL_Driver/Src/stm32l4xx_hal_uart_ex.c ****     [..] This section provides the following functions:
 330:../03_Drivers/STM32L4xx_HAL_Driver/Src/stm32l4xx_hal_uart_ex.c ****      (+) HAL_UARTEx_EnableClockStopMode() API enables the UART clock (HSI or LSE only) during stop 
 331:../03_Drivers/STM32L4xx_HAL_Driver/Src/stm32l4xx_hal_uart_ex.c ****      (+) HAL_UARTEx_DisableClockStopMode() API disables the above functionality
 332:../03_Drivers/STM32L4xx_HAL_Driver/Src/stm32l4xx_hal_uart_ex.c ****      (+) HAL_MultiProcessorEx_AddressLength_Set() API optionally sets the UART node address
 333:../03_Drivers/STM32L4xx_HAL_Driver/Src/stm32l4xx_hal_uart_ex.c ****          detection length to more than 4 bits for multiprocessor address mark wake up.
 334:../03_Drivers/STM32L4xx_HAL_Driver/Src/stm32l4xx_hal_uart_ex.c ****      (+) HAL_UARTEx_StopModeWakeUpSourceConfig() API defines the wake-up from stop mode
 335:../03_Drivers/STM32L4xx_HAL_Driver/Src/stm32l4xx_hal_uart_ex.c ****          trigger: address match, Start Bit detection or RXNE bit status.
 336:../03_Drivers/STM32L4xx_HAL_Driver/Src/stm32l4xx_hal_uart_ex.c ****      (+) HAL_UARTEx_EnableStopMode() API enables the UART to wake up the MCU from stop mode
 337:../03_Drivers/STM32L4xx_HAL_Driver/Src/stm32l4xx_hal_uart_ex.c ****      (+) HAL_UARTEx_DisableStopMode() API disables the above functionality
 338:../03_Drivers/STM32L4xx_HAL_Driver/Src/stm32l4xx_hal_uart_ex.c ****      (+) HAL_UARTEx_EnableFifoMode() API enables the FIFO mode
 339:../03_Drivers/STM32L4xx_HAL_Driver/Src/stm32l4xx_hal_uart_ex.c ****      (+) HAL_UARTEx_DisableFifoMode() API disables the FIFO mode
 340:../03_Drivers/STM32L4xx_HAL_Driver/Src/stm32l4xx_hal_uart_ex.c ****      (+) HAL_UARTEx_SetTxFifoThreshold() API sets the TX FIFO threshold
 341:../03_Drivers/STM32L4xx_HAL_Driver/Src/stm32l4xx_hal_uart_ex.c ****      (+) HAL_UARTEx_SetRxFifoThreshold() API sets the RX FIFO threshold
 342:../03_Drivers/STM32L4xx_HAL_Driver/Src/stm32l4xx_hal_uart_ex.c **** 
 343:../03_Drivers/STM32L4xx_HAL_Driver/Src/stm32l4xx_hal_uart_ex.c ****     [..] This subsection also provides a set of additional functions providing enhanced reception
 344:../03_Drivers/STM32L4xx_HAL_Driver/Src/stm32l4xx_hal_uart_ex.c ****     services to user. (For example, these functions allow application to handle use cases
 345:../03_Drivers/STM32L4xx_HAL_Driver/Src/stm32l4xx_hal_uart_ex.c ****     where number of data to be received is unknown).
 346:../03_Drivers/STM32L4xx_HAL_Driver/Src/stm32l4xx_hal_uart_ex.c **** 
 347:../03_Drivers/STM32L4xx_HAL_Driver/Src/stm32l4xx_hal_uart_ex.c ****     (#) Compared to standard reception services which only consider number of received
 348:../03_Drivers/STM32L4xx_HAL_Driver/Src/stm32l4xx_hal_uart_ex.c ****         data elements as reception completion criteria, these functions also consider additional ev
 349:../03_Drivers/STM32L4xx_HAL_Driver/Src/stm32l4xx_hal_uart_ex.c ****         as triggers for updating reception status to caller :
 350:../03_Drivers/STM32L4xx_HAL_Driver/Src/stm32l4xx_hal_uart_ex.c ****        (+) Detection of inactivity period (RX line has not been active for a given period).
 351:../03_Drivers/STM32L4xx_HAL_Driver/Src/stm32l4xx_hal_uart_ex.c ****           (++) RX inactivity detected by IDLE event, i.e. RX line has been in idle state (normally 
 352:../03_Drivers/STM32L4xx_HAL_Driver/Src/stm32l4xx_hal_uart_ex.c ****                for 1 frame time, after last received byte.
 353:../03_Drivers/STM32L4xx_HAL_Driver/Src/stm32l4xx_hal_uart_ex.c ****           (++) RX inactivity detected by RTO, i.e. line has been in idle state
 354:../03_Drivers/STM32L4xx_HAL_Driver/Src/stm32l4xx_hal_uart_ex.c ****                for a programmable time, after last received byte.
 355:../03_Drivers/STM32L4xx_HAL_Driver/Src/stm32l4xx_hal_uart_ex.c ****        (+) Detection that a specific character has been received.
 356:../03_Drivers/STM32L4xx_HAL_Driver/Src/stm32l4xx_hal_uart_ex.c **** 
 357:../03_Drivers/STM32L4xx_HAL_Driver/Src/stm32l4xx_hal_uart_ex.c ****     (#) There are two mode of transfer:
 358:../03_Drivers/STM32L4xx_HAL_Driver/Src/stm32l4xx_hal_uart_ex.c ****        (+) Blocking mode: The reception is performed in polling mode, until either expected number 
 359:../03_Drivers/STM32L4xx_HAL_Driver/Src/stm32l4xx_hal_uart_ex.c ****            or till IDLE event occurs. Reception is handled only during function execution.
 360:../03_Drivers/STM32L4xx_HAL_Driver/Src/stm32l4xx_hal_uart_ex.c ****            When function exits, no data reception could occur. HAL status and number of actually re
 361:../03_Drivers/STM32L4xx_HAL_Driver/Src/stm32l4xx_hal_uart_ex.c ****            are returned by function after finishing transfer.
ARM GAS  C:\Users\minde\AppData\Local\Temp\ccUwUXx6.s 			page 8


 362:../03_Drivers/STM32L4xx_HAL_Driver/Src/stm32l4xx_hal_uart_ex.c ****        (+) Non-Blocking mode: The reception is performed using Interrupts or DMA.
 363:../03_Drivers/STM32L4xx_HAL_Driver/Src/stm32l4xx_hal_uart_ex.c ****            These API's return the HAL status.
 364:../03_Drivers/STM32L4xx_HAL_Driver/Src/stm32l4xx_hal_uart_ex.c ****            The end of the data processing will be indicated through the
 365:../03_Drivers/STM32L4xx_HAL_Driver/Src/stm32l4xx_hal_uart_ex.c ****            dedicated UART IRQ when using Interrupt mode or the DMA IRQ when using DMA mode.
 366:../03_Drivers/STM32L4xx_HAL_Driver/Src/stm32l4xx_hal_uart_ex.c ****            The HAL_UARTEx_RxEventCallback() user callback will be executed during Receive process
 367:../03_Drivers/STM32L4xx_HAL_Driver/Src/stm32l4xx_hal_uart_ex.c ****            The HAL_UART_ErrorCallback()user callback will be executed when a reception error is det
 368:../03_Drivers/STM32L4xx_HAL_Driver/Src/stm32l4xx_hal_uart_ex.c **** 
 369:../03_Drivers/STM32L4xx_HAL_Driver/Src/stm32l4xx_hal_uart_ex.c ****     (#) Blocking mode API:
 370:../03_Drivers/STM32L4xx_HAL_Driver/Src/stm32l4xx_hal_uart_ex.c ****         (+) HAL_UARTEx_ReceiveToIdle()
 371:../03_Drivers/STM32L4xx_HAL_Driver/Src/stm32l4xx_hal_uart_ex.c **** 
 372:../03_Drivers/STM32L4xx_HAL_Driver/Src/stm32l4xx_hal_uart_ex.c ****     (#) Non-Blocking mode API with Interrupt:
 373:../03_Drivers/STM32L4xx_HAL_Driver/Src/stm32l4xx_hal_uart_ex.c ****         (+) HAL_UARTEx_ReceiveToIdle_IT()
 374:../03_Drivers/STM32L4xx_HAL_Driver/Src/stm32l4xx_hal_uart_ex.c **** 
 375:../03_Drivers/STM32L4xx_HAL_Driver/Src/stm32l4xx_hal_uart_ex.c ****     (#) Non-Blocking mode API with DMA:
 376:../03_Drivers/STM32L4xx_HAL_Driver/Src/stm32l4xx_hal_uart_ex.c ****         (+) HAL_UARTEx_ReceiveToIdle_DMA()
 377:../03_Drivers/STM32L4xx_HAL_Driver/Src/stm32l4xx_hal_uart_ex.c **** 
 378:../03_Drivers/STM32L4xx_HAL_Driver/Src/stm32l4xx_hal_uart_ex.c **** @endverbatim
 379:../03_Drivers/STM32L4xx_HAL_Driver/Src/stm32l4xx_hal_uart_ex.c ****   * @{
 380:../03_Drivers/STM32L4xx_HAL_Driver/Src/stm32l4xx_hal_uart_ex.c ****   */
 381:../03_Drivers/STM32L4xx_HAL_Driver/Src/stm32l4xx_hal_uart_ex.c **** 
 382:../03_Drivers/STM32L4xx_HAL_Driver/Src/stm32l4xx_hal_uart_ex.c **** #if defined(USART_CR3_UCESM)
 383:../03_Drivers/STM32L4xx_HAL_Driver/Src/stm32l4xx_hal_uart_ex.c **** /**
 384:../03_Drivers/STM32L4xx_HAL_Driver/Src/stm32l4xx_hal_uart_ex.c ****   * @brief  Keep UART Clock enabled when in Stop Mode.
 385:../03_Drivers/STM32L4xx_HAL_Driver/Src/stm32l4xx_hal_uart_ex.c ****   * @note   When the USART clock source is configured to be LSE or HSI, it is possible to keep enab
 386:../03_Drivers/STM32L4xx_HAL_Driver/Src/stm32l4xx_hal_uart_ex.c ****   *         this clock during STOP mode by setting the UCESM bit in USART_CR3 control register.
 387:../03_Drivers/STM32L4xx_HAL_Driver/Src/stm32l4xx_hal_uart_ex.c ****   * @note   When LPUART is used to wakeup from stop with LSE is selected as LPUART clock source,
 388:../03_Drivers/STM32L4xx_HAL_Driver/Src/stm32l4xx_hal_uart_ex.c ****   *         and desired baud rate is 9600 baud, the bit UCESM bit in LPUART_CR3 control register mu
 389:../03_Drivers/STM32L4xx_HAL_Driver/Src/stm32l4xx_hal_uart_ex.c ****   * @param  huart UART handle.
 390:../03_Drivers/STM32L4xx_HAL_Driver/Src/stm32l4xx_hal_uart_ex.c ****   * @retval HAL status
 391:../03_Drivers/STM32L4xx_HAL_Driver/Src/stm32l4xx_hal_uart_ex.c ****   */
 392:../03_Drivers/STM32L4xx_HAL_Driver/Src/stm32l4xx_hal_uart_ex.c **** HAL_StatusTypeDef HAL_UARTEx_EnableClockStopMode(UART_HandleTypeDef *huart)
 393:../03_Drivers/STM32L4xx_HAL_Driver/Src/stm32l4xx_hal_uart_ex.c **** {
 394:../03_Drivers/STM32L4xx_HAL_Driver/Src/stm32l4xx_hal_uart_ex.c ****   /* Process Locked */
 395:../03_Drivers/STM32L4xx_HAL_Driver/Src/stm32l4xx_hal_uart_ex.c ****   __HAL_LOCK(huart);
 396:../03_Drivers/STM32L4xx_HAL_Driver/Src/stm32l4xx_hal_uart_ex.c **** 
 397:../03_Drivers/STM32L4xx_HAL_Driver/Src/stm32l4xx_hal_uart_ex.c ****   /* Set UCESM bit */
 398:../03_Drivers/STM32L4xx_HAL_Driver/Src/stm32l4xx_hal_uart_ex.c ****   SET_BIT(huart->Instance->CR3, USART_CR3_UCESM);
 399:../03_Drivers/STM32L4xx_HAL_Driver/Src/stm32l4xx_hal_uart_ex.c **** 
 400:../03_Drivers/STM32L4xx_HAL_Driver/Src/stm32l4xx_hal_uart_ex.c ****   /* Process Unlocked */
 401:../03_Drivers/STM32L4xx_HAL_Driver/Src/stm32l4xx_hal_uart_ex.c ****   __HAL_UNLOCK(huart);
 402:../03_Drivers/STM32L4xx_HAL_Driver/Src/stm32l4xx_hal_uart_ex.c **** 
 403:../03_Drivers/STM32L4xx_HAL_Driver/Src/stm32l4xx_hal_uart_ex.c ****   return HAL_OK;
 404:../03_Drivers/STM32L4xx_HAL_Driver/Src/stm32l4xx_hal_uart_ex.c **** }
 405:../03_Drivers/STM32L4xx_HAL_Driver/Src/stm32l4xx_hal_uart_ex.c **** 
 406:../03_Drivers/STM32L4xx_HAL_Driver/Src/stm32l4xx_hal_uart_ex.c **** /**
 407:../03_Drivers/STM32L4xx_HAL_Driver/Src/stm32l4xx_hal_uart_ex.c ****   * @brief  Disable UART Clock when in Stop Mode.
 408:../03_Drivers/STM32L4xx_HAL_Driver/Src/stm32l4xx_hal_uart_ex.c ****   * @param  huart UART handle.
 409:../03_Drivers/STM32L4xx_HAL_Driver/Src/stm32l4xx_hal_uart_ex.c ****   * @retval HAL status
 410:../03_Drivers/STM32L4xx_HAL_Driver/Src/stm32l4xx_hal_uart_ex.c ****   */
 411:../03_Drivers/STM32L4xx_HAL_Driver/Src/stm32l4xx_hal_uart_ex.c **** HAL_StatusTypeDef HAL_UARTEx_DisableClockStopMode(UART_HandleTypeDef *huart)
 412:../03_Drivers/STM32L4xx_HAL_Driver/Src/stm32l4xx_hal_uart_ex.c **** {
 413:../03_Drivers/STM32L4xx_HAL_Driver/Src/stm32l4xx_hal_uart_ex.c ****   /* Process Locked */
 414:../03_Drivers/STM32L4xx_HAL_Driver/Src/stm32l4xx_hal_uart_ex.c ****   __HAL_LOCK(huart);
 415:../03_Drivers/STM32L4xx_HAL_Driver/Src/stm32l4xx_hal_uart_ex.c **** 
 416:../03_Drivers/STM32L4xx_HAL_Driver/Src/stm32l4xx_hal_uart_ex.c ****   /* Clear UCESM bit */
 417:../03_Drivers/STM32L4xx_HAL_Driver/Src/stm32l4xx_hal_uart_ex.c ****   CLEAR_BIT(huart->Instance->CR3, USART_CR3_UCESM);
 418:../03_Drivers/STM32L4xx_HAL_Driver/Src/stm32l4xx_hal_uart_ex.c **** 
ARM GAS  C:\Users\minde\AppData\Local\Temp\ccUwUXx6.s 			page 9


 419:../03_Drivers/STM32L4xx_HAL_Driver/Src/stm32l4xx_hal_uart_ex.c ****   /* Process Unlocked */
 420:../03_Drivers/STM32L4xx_HAL_Driver/Src/stm32l4xx_hal_uart_ex.c ****   __HAL_UNLOCK(huart);
 421:../03_Drivers/STM32L4xx_HAL_Driver/Src/stm32l4xx_hal_uart_ex.c **** 
 422:../03_Drivers/STM32L4xx_HAL_Driver/Src/stm32l4xx_hal_uart_ex.c ****   return HAL_OK;
 423:../03_Drivers/STM32L4xx_HAL_Driver/Src/stm32l4xx_hal_uart_ex.c **** }
 424:../03_Drivers/STM32L4xx_HAL_Driver/Src/stm32l4xx_hal_uart_ex.c **** 
 425:../03_Drivers/STM32L4xx_HAL_Driver/Src/stm32l4xx_hal_uart_ex.c **** #endif /* USART_CR3_UCESM */
 426:../03_Drivers/STM32L4xx_HAL_Driver/Src/stm32l4xx_hal_uart_ex.c **** /**
 427:../03_Drivers/STM32L4xx_HAL_Driver/Src/stm32l4xx_hal_uart_ex.c ****   * @brief By default in multiprocessor mode, when the wake up method is set
 428:../03_Drivers/STM32L4xx_HAL_Driver/Src/stm32l4xx_hal_uart_ex.c ****   *        to address mark, the UART handles only 4-bit long addresses detection;
 429:../03_Drivers/STM32L4xx_HAL_Driver/Src/stm32l4xx_hal_uart_ex.c ****   *        this API allows to enable longer addresses detection (6-, 7- or 8-bit
 430:../03_Drivers/STM32L4xx_HAL_Driver/Src/stm32l4xx_hal_uart_ex.c ****   *        long).
 431:../03_Drivers/STM32L4xx_HAL_Driver/Src/stm32l4xx_hal_uart_ex.c ****   * @note  Addresses detection lengths are: 6-bit address detection in 7-bit data mode,
 432:../03_Drivers/STM32L4xx_HAL_Driver/Src/stm32l4xx_hal_uart_ex.c ****   *        7-bit address detection in 8-bit data mode, 8-bit address detection in 9-bit data mode.
 433:../03_Drivers/STM32L4xx_HAL_Driver/Src/stm32l4xx_hal_uart_ex.c ****   * @param huart         UART handle.
 434:../03_Drivers/STM32L4xx_HAL_Driver/Src/stm32l4xx_hal_uart_ex.c ****   * @param AddressLength This parameter can be one of the following values:
 435:../03_Drivers/STM32L4xx_HAL_Driver/Src/stm32l4xx_hal_uart_ex.c ****   *          @arg @ref UART_ADDRESS_DETECT_4B 4-bit long address
 436:../03_Drivers/STM32L4xx_HAL_Driver/Src/stm32l4xx_hal_uart_ex.c ****   *          @arg @ref UART_ADDRESS_DETECT_7B 6-, 7- or 8-bit long address
 437:../03_Drivers/STM32L4xx_HAL_Driver/Src/stm32l4xx_hal_uart_ex.c ****   * @retval HAL status
 438:../03_Drivers/STM32L4xx_HAL_Driver/Src/stm32l4xx_hal_uart_ex.c ****   */
 439:../03_Drivers/STM32L4xx_HAL_Driver/Src/stm32l4xx_hal_uart_ex.c **** HAL_StatusTypeDef HAL_MultiProcessorEx_AddressLength_Set(UART_HandleTypeDef *huart, uint32_t Addres
 440:../03_Drivers/STM32L4xx_HAL_Driver/Src/stm32l4xx_hal_uart_ex.c **** {
 441:../03_Drivers/STM32L4xx_HAL_Driver/Src/stm32l4xx_hal_uart_ex.c ****   /* Check the UART handle allocation */
 442:../03_Drivers/STM32L4xx_HAL_Driver/Src/stm32l4xx_hal_uart_ex.c ****   if (huart == NULL)
 443:../03_Drivers/STM32L4xx_HAL_Driver/Src/stm32l4xx_hal_uart_ex.c ****   {
 444:../03_Drivers/STM32L4xx_HAL_Driver/Src/stm32l4xx_hal_uart_ex.c ****     return HAL_ERROR;
 445:../03_Drivers/STM32L4xx_HAL_Driver/Src/stm32l4xx_hal_uart_ex.c ****   }
 446:../03_Drivers/STM32L4xx_HAL_Driver/Src/stm32l4xx_hal_uart_ex.c **** 
 447:../03_Drivers/STM32L4xx_HAL_Driver/Src/stm32l4xx_hal_uart_ex.c ****   /* Check the address length parameter */
 448:../03_Drivers/STM32L4xx_HAL_Driver/Src/stm32l4xx_hal_uart_ex.c ****   assert_param(IS_UART_ADDRESSLENGTH_DETECT(AddressLength));
 449:../03_Drivers/STM32L4xx_HAL_Driver/Src/stm32l4xx_hal_uart_ex.c **** 
 450:../03_Drivers/STM32L4xx_HAL_Driver/Src/stm32l4xx_hal_uart_ex.c ****   huart->gState = HAL_UART_STATE_BUSY;
 451:../03_Drivers/STM32L4xx_HAL_Driver/Src/stm32l4xx_hal_uart_ex.c **** 
 452:../03_Drivers/STM32L4xx_HAL_Driver/Src/stm32l4xx_hal_uart_ex.c ****   /* Disable the Peripheral */
 453:../03_Drivers/STM32L4xx_HAL_Driver/Src/stm32l4xx_hal_uart_ex.c ****   __HAL_UART_DISABLE(huart);
 454:../03_Drivers/STM32L4xx_HAL_Driver/Src/stm32l4xx_hal_uart_ex.c **** 
 455:../03_Drivers/STM32L4xx_HAL_Driver/Src/stm32l4xx_hal_uart_ex.c ****   /* Set the address length */
 456:../03_Drivers/STM32L4xx_HAL_Driver/Src/stm32l4xx_hal_uart_ex.c ****   MODIFY_REG(huart->Instance->CR2, USART_CR2_ADDM7, AddressLength);
 457:../03_Drivers/STM32L4xx_HAL_Driver/Src/stm32l4xx_hal_uart_ex.c **** 
 458:../03_Drivers/STM32L4xx_HAL_Driver/Src/stm32l4xx_hal_uart_ex.c ****   /* Enable the Peripheral */
 459:../03_Drivers/STM32L4xx_HAL_Driver/Src/stm32l4xx_hal_uart_ex.c ****   __HAL_UART_ENABLE(huart);
 460:../03_Drivers/STM32L4xx_HAL_Driver/Src/stm32l4xx_hal_uart_ex.c **** 
 461:../03_Drivers/STM32L4xx_HAL_Driver/Src/stm32l4xx_hal_uart_ex.c ****   /* TEACK and/or REACK to check before moving huart->gState to Ready */
 462:../03_Drivers/STM32L4xx_HAL_Driver/Src/stm32l4xx_hal_uart_ex.c ****   return (UART_CheckIdleState(huart));
 463:../03_Drivers/STM32L4xx_HAL_Driver/Src/stm32l4xx_hal_uart_ex.c **** }
 464:../03_Drivers/STM32L4xx_HAL_Driver/Src/stm32l4xx_hal_uart_ex.c **** 
 465:../03_Drivers/STM32L4xx_HAL_Driver/Src/stm32l4xx_hal_uart_ex.c **** /**
 466:../03_Drivers/STM32L4xx_HAL_Driver/Src/stm32l4xx_hal_uart_ex.c ****   * @brief Set Wakeup from Stop mode interrupt flag selection.
 467:../03_Drivers/STM32L4xx_HAL_Driver/Src/stm32l4xx_hal_uart_ex.c ****   * @note It is the application responsibility to enable the interrupt used as
 468:../03_Drivers/STM32L4xx_HAL_Driver/Src/stm32l4xx_hal_uart_ex.c ****   *       usart_wkup interrupt source before entering low-power mode.
 469:../03_Drivers/STM32L4xx_HAL_Driver/Src/stm32l4xx_hal_uart_ex.c ****   * @param huart           UART handle.
 470:../03_Drivers/STM32L4xx_HAL_Driver/Src/stm32l4xx_hal_uart_ex.c ****   * @param WakeUpSelection Address match, Start Bit detection or RXNE/RXFNE bit status.
 471:../03_Drivers/STM32L4xx_HAL_Driver/Src/stm32l4xx_hal_uart_ex.c ****   *          This parameter can be one of the following values:
 472:../03_Drivers/STM32L4xx_HAL_Driver/Src/stm32l4xx_hal_uart_ex.c ****   *          @arg @ref UART_WAKEUP_ON_ADDRESS
 473:../03_Drivers/STM32L4xx_HAL_Driver/Src/stm32l4xx_hal_uart_ex.c ****   *          @arg @ref UART_WAKEUP_ON_STARTBIT
 474:../03_Drivers/STM32L4xx_HAL_Driver/Src/stm32l4xx_hal_uart_ex.c ****   *          @arg @ref UART_WAKEUP_ON_READDATA_NONEMPTY
 475:../03_Drivers/STM32L4xx_HAL_Driver/Src/stm32l4xx_hal_uart_ex.c ****   * @retval HAL status
ARM GAS  C:\Users\minde\AppData\Local\Temp\ccUwUXx6.s 			page 10


 476:../03_Drivers/STM32L4xx_HAL_Driver/Src/stm32l4xx_hal_uart_ex.c ****   */
 477:../03_Drivers/STM32L4xx_HAL_Driver/Src/stm32l4xx_hal_uart_ex.c **** HAL_StatusTypeDef HAL_UARTEx_StopModeWakeUpSourceConfig(UART_HandleTypeDef *huart, UART_WakeUpTypeD
 478:../03_Drivers/STM32L4xx_HAL_Driver/Src/stm32l4xx_hal_uart_ex.c **** {
 479:../03_Drivers/STM32L4xx_HAL_Driver/Src/stm32l4xx_hal_uart_ex.c ****   HAL_StatusTypeDef status = HAL_OK;
 480:../03_Drivers/STM32L4xx_HAL_Driver/Src/stm32l4xx_hal_uart_ex.c ****   uint32_t tickstart;
 481:../03_Drivers/STM32L4xx_HAL_Driver/Src/stm32l4xx_hal_uart_ex.c **** 
 482:../03_Drivers/STM32L4xx_HAL_Driver/Src/stm32l4xx_hal_uart_ex.c ****   /* check the wake-up from stop mode UART instance */
 483:../03_Drivers/STM32L4xx_HAL_Driver/Src/stm32l4xx_hal_uart_ex.c ****   assert_param(IS_UART_WAKEUP_FROMSTOP_INSTANCE(huart->Instance));
 484:../03_Drivers/STM32L4xx_HAL_Driver/Src/stm32l4xx_hal_uart_ex.c ****   /* check the wake-up selection parameter */
 485:../03_Drivers/STM32L4xx_HAL_Driver/Src/stm32l4xx_hal_uart_ex.c ****   assert_param(IS_UART_WAKEUP_SELECTION(WakeUpSelection.WakeUpEvent));
 486:../03_Drivers/STM32L4xx_HAL_Driver/Src/stm32l4xx_hal_uart_ex.c **** 
 487:../03_Drivers/STM32L4xx_HAL_Driver/Src/stm32l4xx_hal_uart_ex.c ****   /* Process Locked */
 488:../03_Drivers/STM32L4xx_HAL_Driver/Src/stm32l4xx_hal_uart_ex.c ****   __HAL_LOCK(huart);
 489:../03_Drivers/STM32L4xx_HAL_Driver/Src/stm32l4xx_hal_uart_ex.c **** 
 490:../03_Drivers/STM32L4xx_HAL_Driver/Src/stm32l4xx_hal_uart_ex.c ****   huart->gState = HAL_UART_STATE_BUSY;
 491:../03_Drivers/STM32L4xx_HAL_Driver/Src/stm32l4xx_hal_uart_ex.c **** 
 492:../03_Drivers/STM32L4xx_HAL_Driver/Src/stm32l4xx_hal_uart_ex.c ****   /* Disable the Peripheral */
 493:../03_Drivers/STM32L4xx_HAL_Driver/Src/stm32l4xx_hal_uart_ex.c ****   __HAL_UART_DISABLE(huart);
 494:../03_Drivers/STM32L4xx_HAL_Driver/Src/stm32l4xx_hal_uart_ex.c **** 
 495:../03_Drivers/STM32L4xx_HAL_Driver/Src/stm32l4xx_hal_uart_ex.c ****   /* Set the wake-up selection scheme */
 496:../03_Drivers/STM32L4xx_HAL_Driver/Src/stm32l4xx_hal_uart_ex.c ****   MODIFY_REG(huart->Instance->CR3, USART_CR3_WUS, WakeUpSelection.WakeUpEvent);
 497:../03_Drivers/STM32L4xx_HAL_Driver/Src/stm32l4xx_hal_uart_ex.c **** 
 498:../03_Drivers/STM32L4xx_HAL_Driver/Src/stm32l4xx_hal_uart_ex.c ****   if (WakeUpSelection.WakeUpEvent == UART_WAKEUP_ON_ADDRESS)
 499:../03_Drivers/STM32L4xx_HAL_Driver/Src/stm32l4xx_hal_uart_ex.c ****   {
 500:../03_Drivers/STM32L4xx_HAL_Driver/Src/stm32l4xx_hal_uart_ex.c ****     UARTEx_Wakeup_AddressConfig(huart, WakeUpSelection);
 501:../03_Drivers/STM32L4xx_HAL_Driver/Src/stm32l4xx_hal_uart_ex.c ****   }
 502:../03_Drivers/STM32L4xx_HAL_Driver/Src/stm32l4xx_hal_uart_ex.c **** 
 503:../03_Drivers/STM32L4xx_HAL_Driver/Src/stm32l4xx_hal_uart_ex.c ****   /* Enable the Peripheral */
 504:../03_Drivers/STM32L4xx_HAL_Driver/Src/stm32l4xx_hal_uart_ex.c ****   __HAL_UART_ENABLE(huart);
 505:../03_Drivers/STM32L4xx_HAL_Driver/Src/stm32l4xx_hal_uart_ex.c **** 
 506:../03_Drivers/STM32L4xx_HAL_Driver/Src/stm32l4xx_hal_uart_ex.c ****   /* Init tickstart for timeout management */
 507:../03_Drivers/STM32L4xx_HAL_Driver/Src/stm32l4xx_hal_uart_ex.c ****   tickstart = HAL_GetTick();
 508:../03_Drivers/STM32L4xx_HAL_Driver/Src/stm32l4xx_hal_uart_ex.c **** 
 509:../03_Drivers/STM32L4xx_HAL_Driver/Src/stm32l4xx_hal_uart_ex.c ****   /* Wait until REACK flag is set */
 510:../03_Drivers/STM32L4xx_HAL_Driver/Src/stm32l4xx_hal_uart_ex.c ****   if (UART_WaitOnFlagUntilTimeout(huart, USART_ISR_REACK, RESET, tickstart, HAL_UART_TIMEOUT_VALUE)
 511:../03_Drivers/STM32L4xx_HAL_Driver/Src/stm32l4xx_hal_uart_ex.c ****   {
 512:../03_Drivers/STM32L4xx_HAL_Driver/Src/stm32l4xx_hal_uart_ex.c ****     status = HAL_TIMEOUT;
 513:../03_Drivers/STM32L4xx_HAL_Driver/Src/stm32l4xx_hal_uart_ex.c ****   }
 514:../03_Drivers/STM32L4xx_HAL_Driver/Src/stm32l4xx_hal_uart_ex.c ****   else
 515:../03_Drivers/STM32L4xx_HAL_Driver/Src/stm32l4xx_hal_uart_ex.c ****   {
 516:../03_Drivers/STM32L4xx_HAL_Driver/Src/stm32l4xx_hal_uart_ex.c ****     /* Initialize the UART State */
 517:../03_Drivers/STM32L4xx_HAL_Driver/Src/stm32l4xx_hal_uart_ex.c ****     huart->gState = HAL_UART_STATE_READY;
 518:../03_Drivers/STM32L4xx_HAL_Driver/Src/stm32l4xx_hal_uart_ex.c ****   }
 519:../03_Drivers/STM32L4xx_HAL_Driver/Src/stm32l4xx_hal_uart_ex.c **** 
 520:../03_Drivers/STM32L4xx_HAL_Driver/Src/stm32l4xx_hal_uart_ex.c ****   /* Process Unlocked */
 521:../03_Drivers/STM32L4xx_HAL_Driver/Src/stm32l4xx_hal_uart_ex.c ****   __HAL_UNLOCK(huart);
 522:../03_Drivers/STM32L4xx_HAL_Driver/Src/stm32l4xx_hal_uart_ex.c **** 
 523:../03_Drivers/STM32L4xx_HAL_Driver/Src/stm32l4xx_hal_uart_ex.c ****   return status;
 524:../03_Drivers/STM32L4xx_HAL_Driver/Src/stm32l4xx_hal_uart_ex.c **** }
 525:../03_Drivers/STM32L4xx_HAL_Driver/Src/stm32l4xx_hal_uart_ex.c **** 
 526:../03_Drivers/STM32L4xx_HAL_Driver/Src/stm32l4xx_hal_uart_ex.c **** /**
 527:../03_Drivers/STM32L4xx_HAL_Driver/Src/stm32l4xx_hal_uart_ex.c ****   * @brief Enable UART Stop Mode.
 528:../03_Drivers/STM32L4xx_HAL_Driver/Src/stm32l4xx_hal_uart_ex.c ****   * @note The UART is able to wake up the MCU from Stop 1 mode as long as UART clock is HSI or LSE.
 529:../03_Drivers/STM32L4xx_HAL_Driver/Src/stm32l4xx_hal_uart_ex.c ****   * @param huart UART handle.
 530:../03_Drivers/STM32L4xx_HAL_Driver/Src/stm32l4xx_hal_uart_ex.c ****   * @retval HAL status
 531:../03_Drivers/STM32L4xx_HAL_Driver/Src/stm32l4xx_hal_uart_ex.c ****   */
 532:../03_Drivers/STM32L4xx_HAL_Driver/Src/stm32l4xx_hal_uart_ex.c **** HAL_StatusTypeDef HAL_UARTEx_EnableStopMode(UART_HandleTypeDef *huart)
ARM GAS  C:\Users\minde\AppData\Local\Temp\ccUwUXx6.s 			page 11


 533:../03_Drivers/STM32L4xx_HAL_Driver/Src/stm32l4xx_hal_uart_ex.c **** {
 534:../03_Drivers/STM32L4xx_HAL_Driver/Src/stm32l4xx_hal_uart_ex.c ****   /* Process Locked */
 535:../03_Drivers/STM32L4xx_HAL_Driver/Src/stm32l4xx_hal_uart_ex.c ****   __HAL_LOCK(huart);
 536:../03_Drivers/STM32L4xx_HAL_Driver/Src/stm32l4xx_hal_uart_ex.c **** 
 537:../03_Drivers/STM32L4xx_HAL_Driver/Src/stm32l4xx_hal_uart_ex.c ****   /* Set UESM bit */
 538:../03_Drivers/STM32L4xx_HAL_Driver/Src/stm32l4xx_hal_uart_ex.c ****   SET_BIT(huart->Instance->CR1, USART_CR1_UESM);
 539:../03_Drivers/STM32L4xx_HAL_Driver/Src/stm32l4xx_hal_uart_ex.c **** 
 540:../03_Drivers/STM32L4xx_HAL_Driver/Src/stm32l4xx_hal_uart_ex.c ****   /* Process Unlocked */
 541:../03_Drivers/STM32L4xx_HAL_Driver/Src/stm32l4xx_hal_uart_ex.c ****   __HAL_UNLOCK(huart);
 542:../03_Drivers/STM32L4xx_HAL_Driver/Src/stm32l4xx_hal_uart_ex.c **** 
 543:../03_Drivers/STM32L4xx_HAL_Driver/Src/stm32l4xx_hal_uart_ex.c ****   return HAL_OK;
 544:../03_Drivers/STM32L4xx_HAL_Driver/Src/stm32l4xx_hal_uart_ex.c **** }
 545:../03_Drivers/STM32L4xx_HAL_Driver/Src/stm32l4xx_hal_uart_ex.c **** 
 546:../03_Drivers/STM32L4xx_HAL_Driver/Src/stm32l4xx_hal_uart_ex.c **** /**
 547:../03_Drivers/STM32L4xx_HAL_Driver/Src/stm32l4xx_hal_uart_ex.c ****   * @brief Disable UART Stop Mode.
 548:../03_Drivers/STM32L4xx_HAL_Driver/Src/stm32l4xx_hal_uart_ex.c ****   * @param huart UART handle.
 549:../03_Drivers/STM32L4xx_HAL_Driver/Src/stm32l4xx_hal_uart_ex.c ****   * @retval HAL status
 550:../03_Drivers/STM32L4xx_HAL_Driver/Src/stm32l4xx_hal_uart_ex.c ****   */
 551:../03_Drivers/STM32L4xx_HAL_Driver/Src/stm32l4xx_hal_uart_ex.c **** HAL_StatusTypeDef HAL_UARTEx_DisableStopMode(UART_HandleTypeDef *huart)
 552:../03_Drivers/STM32L4xx_HAL_Driver/Src/stm32l4xx_hal_uart_ex.c **** {
 553:../03_Drivers/STM32L4xx_HAL_Driver/Src/stm32l4xx_hal_uart_ex.c ****   /* Process Locked */
 554:../03_Drivers/STM32L4xx_HAL_Driver/Src/stm32l4xx_hal_uart_ex.c ****   __HAL_LOCK(huart);
 555:../03_Drivers/STM32L4xx_HAL_Driver/Src/stm32l4xx_hal_uart_ex.c **** 
 556:../03_Drivers/STM32L4xx_HAL_Driver/Src/stm32l4xx_hal_uart_ex.c ****   /* Clear UESM bit */
 557:../03_Drivers/STM32L4xx_HAL_Driver/Src/stm32l4xx_hal_uart_ex.c ****   CLEAR_BIT(huart->Instance->CR1, USART_CR1_UESM);
 558:../03_Drivers/STM32L4xx_HAL_Driver/Src/stm32l4xx_hal_uart_ex.c **** 
 559:../03_Drivers/STM32L4xx_HAL_Driver/Src/stm32l4xx_hal_uart_ex.c ****   /* Process Unlocked */
 560:../03_Drivers/STM32L4xx_HAL_Driver/Src/stm32l4xx_hal_uart_ex.c ****   __HAL_UNLOCK(huart);
 561:../03_Drivers/STM32L4xx_HAL_Driver/Src/stm32l4xx_hal_uart_ex.c **** 
 562:../03_Drivers/STM32L4xx_HAL_Driver/Src/stm32l4xx_hal_uart_ex.c ****   return HAL_OK;
 563:../03_Drivers/STM32L4xx_HAL_Driver/Src/stm32l4xx_hal_uart_ex.c **** }
 564:../03_Drivers/STM32L4xx_HAL_Driver/Src/stm32l4xx_hal_uart_ex.c **** 
 565:../03_Drivers/STM32L4xx_HAL_Driver/Src/stm32l4xx_hal_uart_ex.c **** #if defined(USART_CR1_FIFOEN)
 566:../03_Drivers/STM32L4xx_HAL_Driver/Src/stm32l4xx_hal_uart_ex.c **** /**
 567:../03_Drivers/STM32L4xx_HAL_Driver/Src/stm32l4xx_hal_uart_ex.c ****   * @brief  Enable the FIFO mode.
 568:../03_Drivers/STM32L4xx_HAL_Driver/Src/stm32l4xx_hal_uart_ex.c ****   * @param huart      UART handle.
 569:../03_Drivers/STM32L4xx_HAL_Driver/Src/stm32l4xx_hal_uart_ex.c ****   * @retval HAL status
 570:../03_Drivers/STM32L4xx_HAL_Driver/Src/stm32l4xx_hal_uart_ex.c ****   */
 571:../03_Drivers/STM32L4xx_HAL_Driver/Src/stm32l4xx_hal_uart_ex.c **** HAL_StatusTypeDef HAL_UARTEx_EnableFifoMode(UART_HandleTypeDef *huart)
 572:../03_Drivers/STM32L4xx_HAL_Driver/Src/stm32l4xx_hal_uart_ex.c **** {
 573:../03_Drivers/STM32L4xx_HAL_Driver/Src/stm32l4xx_hal_uart_ex.c ****   uint32_t tmpcr1;
 574:../03_Drivers/STM32L4xx_HAL_Driver/Src/stm32l4xx_hal_uart_ex.c **** 
 575:../03_Drivers/STM32L4xx_HAL_Driver/Src/stm32l4xx_hal_uart_ex.c ****   /* Check parameters */
 576:../03_Drivers/STM32L4xx_HAL_Driver/Src/stm32l4xx_hal_uart_ex.c ****   assert_param(IS_UART_FIFO_INSTANCE(huart->Instance));
 577:../03_Drivers/STM32L4xx_HAL_Driver/Src/stm32l4xx_hal_uart_ex.c **** 
 578:../03_Drivers/STM32L4xx_HAL_Driver/Src/stm32l4xx_hal_uart_ex.c ****   /* Process Locked */
 579:../03_Drivers/STM32L4xx_HAL_Driver/Src/stm32l4xx_hal_uart_ex.c ****   __HAL_LOCK(huart);
 580:../03_Drivers/STM32L4xx_HAL_Driver/Src/stm32l4xx_hal_uart_ex.c **** 
 581:../03_Drivers/STM32L4xx_HAL_Driver/Src/stm32l4xx_hal_uart_ex.c ****   huart->gState = HAL_UART_STATE_BUSY;
 582:../03_Drivers/STM32L4xx_HAL_Driver/Src/stm32l4xx_hal_uart_ex.c **** 
 583:../03_Drivers/STM32L4xx_HAL_Driver/Src/stm32l4xx_hal_uart_ex.c ****   /* Save actual UART configuration */
 584:../03_Drivers/STM32L4xx_HAL_Driver/Src/stm32l4xx_hal_uart_ex.c ****   tmpcr1 = READ_REG(huart->Instance->CR1);
 585:../03_Drivers/STM32L4xx_HAL_Driver/Src/stm32l4xx_hal_uart_ex.c **** 
 586:../03_Drivers/STM32L4xx_HAL_Driver/Src/stm32l4xx_hal_uart_ex.c ****   /* Disable UART */
 587:../03_Drivers/STM32L4xx_HAL_Driver/Src/stm32l4xx_hal_uart_ex.c ****   __HAL_UART_DISABLE(huart);
 588:../03_Drivers/STM32L4xx_HAL_Driver/Src/stm32l4xx_hal_uart_ex.c **** 
 589:../03_Drivers/STM32L4xx_HAL_Driver/Src/stm32l4xx_hal_uart_ex.c ****   /* Enable FIFO mode */
ARM GAS  C:\Users\minde\AppData\Local\Temp\ccUwUXx6.s 			page 12


 590:../03_Drivers/STM32L4xx_HAL_Driver/Src/stm32l4xx_hal_uart_ex.c ****   SET_BIT(tmpcr1, USART_CR1_FIFOEN);
 591:../03_Drivers/STM32L4xx_HAL_Driver/Src/stm32l4xx_hal_uart_ex.c ****   huart->FifoMode = UART_FIFOMODE_ENABLE;
 592:../03_Drivers/STM32L4xx_HAL_Driver/Src/stm32l4xx_hal_uart_ex.c **** 
 593:../03_Drivers/STM32L4xx_HAL_Driver/Src/stm32l4xx_hal_uart_ex.c ****   /* Restore UART configuration */
 594:../03_Drivers/STM32L4xx_HAL_Driver/Src/stm32l4xx_hal_uart_ex.c ****   WRITE_REG(huart->Instance->CR1, tmpcr1);
 595:../03_Drivers/STM32L4xx_HAL_Driver/Src/stm32l4xx_hal_uart_ex.c **** 
 596:../03_Drivers/STM32L4xx_HAL_Driver/Src/stm32l4xx_hal_uart_ex.c ****   /* Determine the number of data to process during RX/TX ISR execution */
 597:../03_Drivers/STM32L4xx_HAL_Driver/Src/stm32l4xx_hal_uart_ex.c ****   UARTEx_SetNbDataToProcess(huart);
 598:../03_Drivers/STM32L4xx_HAL_Driver/Src/stm32l4xx_hal_uart_ex.c **** 
 599:../03_Drivers/STM32L4xx_HAL_Driver/Src/stm32l4xx_hal_uart_ex.c ****   huart->gState = HAL_UART_STATE_READY;
 600:../03_Drivers/STM32L4xx_HAL_Driver/Src/stm32l4xx_hal_uart_ex.c **** 
 601:../03_Drivers/STM32L4xx_HAL_Driver/Src/stm32l4xx_hal_uart_ex.c ****   /* Process Unlocked */
 602:../03_Drivers/STM32L4xx_HAL_Driver/Src/stm32l4xx_hal_uart_ex.c ****   __HAL_UNLOCK(huart);
 603:../03_Drivers/STM32L4xx_HAL_Driver/Src/stm32l4xx_hal_uart_ex.c **** 
 604:../03_Drivers/STM32L4xx_HAL_Driver/Src/stm32l4xx_hal_uart_ex.c ****   return HAL_OK;
 605:../03_Drivers/STM32L4xx_HAL_Driver/Src/stm32l4xx_hal_uart_ex.c **** }
 606:../03_Drivers/STM32L4xx_HAL_Driver/Src/stm32l4xx_hal_uart_ex.c **** 
 607:../03_Drivers/STM32L4xx_HAL_Driver/Src/stm32l4xx_hal_uart_ex.c **** /**
 608:../03_Drivers/STM32L4xx_HAL_Driver/Src/stm32l4xx_hal_uart_ex.c ****   * @brief  Disable the FIFO mode.
 609:../03_Drivers/STM32L4xx_HAL_Driver/Src/stm32l4xx_hal_uart_ex.c ****   * @param huart      UART handle.
 610:../03_Drivers/STM32L4xx_HAL_Driver/Src/stm32l4xx_hal_uart_ex.c ****   * @retval HAL status
 611:../03_Drivers/STM32L4xx_HAL_Driver/Src/stm32l4xx_hal_uart_ex.c ****   */
 612:../03_Drivers/STM32L4xx_HAL_Driver/Src/stm32l4xx_hal_uart_ex.c **** HAL_StatusTypeDef HAL_UARTEx_DisableFifoMode(UART_HandleTypeDef *huart)
 613:../03_Drivers/STM32L4xx_HAL_Driver/Src/stm32l4xx_hal_uart_ex.c **** {
 614:../03_Drivers/STM32L4xx_HAL_Driver/Src/stm32l4xx_hal_uart_ex.c ****   uint32_t tmpcr1;
 615:../03_Drivers/STM32L4xx_HAL_Driver/Src/stm32l4xx_hal_uart_ex.c **** 
 616:../03_Drivers/STM32L4xx_HAL_Driver/Src/stm32l4xx_hal_uart_ex.c ****   /* Check parameters */
 617:../03_Drivers/STM32L4xx_HAL_Driver/Src/stm32l4xx_hal_uart_ex.c ****   assert_param(IS_UART_FIFO_INSTANCE(huart->Instance));
 618:../03_Drivers/STM32L4xx_HAL_Driver/Src/stm32l4xx_hal_uart_ex.c **** 
 619:../03_Drivers/STM32L4xx_HAL_Driver/Src/stm32l4xx_hal_uart_ex.c ****   /* Process Locked */
 620:../03_Drivers/STM32L4xx_HAL_Driver/Src/stm32l4xx_hal_uart_ex.c ****   __HAL_LOCK(huart);
 621:../03_Drivers/STM32L4xx_HAL_Driver/Src/stm32l4xx_hal_uart_ex.c **** 
 622:../03_Drivers/STM32L4xx_HAL_Driver/Src/stm32l4xx_hal_uart_ex.c ****   huart->gState = HAL_UART_STATE_BUSY;
 623:../03_Drivers/STM32L4xx_HAL_Driver/Src/stm32l4xx_hal_uart_ex.c **** 
 624:../03_Drivers/STM32L4xx_HAL_Driver/Src/stm32l4xx_hal_uart_ex.c ****   /* Save actual UART configuration */
 625:../03_Drivers/STM32L4xx_HAL_Driver/Src/stm32l4xx_hal_uart_ex.c ****   tmpcr1 = READ_REG(huart->Instance->CR1);
 626:../03_Drivers/STM32L4xx_HAL_Driver/Src/stm32l4xx_hal_uart_ex.c **** 
 627:../03_Drivers/STM32L4xx_HAL_Driver/Src/stm32l4xx_hal_uart_ex.c ****   /* Disable UART */
 628:../03_Drivers/STM32L4xx_HAL_Driver/Src/stm32l4xx_hal_uart_ex.c ****   __HAL_UART_DISABLE(huart);
 629:../03_Drivers/STM32L4xx_HAL_Driver/Src/stm32l4xx_hal_uart_ex.c **** 
 630:../03_Drivers/STM32L4xx_HAL_Driver/Src/stm32l4xx_hal_uart_ex.c ****   /* Enable FIFO mode */
 631:../03_Drivers/STM32L4xx_HAL_Driver/Src/stm32l4xx_hal_uart_ex.c ****   CLEAR_BIT(tmpcr1, USART_CR1_FIFOEN);
 632:../03_Drivers/STM32L4xx_HAL_Driver/Src/stm32l4xx_hal_uart_ex.c ****   huart->FifoMode = UART_FIFOMODE_DISABLE;
 633:../03_Drivers/STM32L4xx_HAL_Driver/Src/stm32l4xx_hal_uart_ex.c **** 
 634:../03_Drivers/STM32L4xx_HAL_Driver/Src/stm32l4xx_hal_uart_ex.c ****   /* Restore UART configuration */
 635:../03_Drivers/STM32L4xx_HAL_Driver/Src/stm32l4xx_hal_uart_ex.c ****   WRITE_REG(huart->Instance->CR1, tmpcr1);
 636:../03_Drivers/STM32L4xx_HAL_Driver/Src/stm32l4xx_hal_uart_ex.c **** 
 637:../03_Drivers/STM32L4xx_HAL_Driver/Src/stm32l4xx_hal_uart_ex.c ****   huart->gState = HAL_UART_STATE_READY;
 638:../03_Drivers/STM32L4xx_HAL_Driver/Src/stm32l4xx_hal_uart_ex.c **** 
 639:../03_Drivers/STM32L4xx_HAL_Driver/Src/stm32l4xx_hal_uart_ex.c ****   /* Process Unlocked */
 640:../03_Drivers/STM32L4xx_HAL_Driver/Src/stm32l4xx_hal_uart_ex.c ****   __HAL_UNLOCK(huart);
 641:../03_Drivers/STM32L4xx_HAL_Driver/Src/stm32l4xx_hal_uart_ex.c **** 
 642:../03_Drivers/STM32L4xx_HAL_Driver/Src/stm32l4xx_hal_uart_ex.c ****   return HAL_OK;
 643:../03_Drivers/STM32L4xx_HAL_Driver/Src/stm32l4xx_hal_uart_ex.c **** }
 644:../03_Drivers/STM32L4xx_HAL_Driver/Src/stm32l4xx_hal_uart_ex.c **** 
 645:../03_Drivers/STM32L4xx_HAL_Driver/Src/stm32l4xx_hal_uart_ex.c **** /**
 646:../03_Drivers/STM32L4xx_HAL_Driver/Src/stm32l4xx_hal_uart_ex.c ****   * @brief  Set the TXFIFO threshold.
ARM GAS  C:\Users\minde\AppData\Local\Temp\ccUwUXx6.s 			page 13


 647:../03_Drivers/STM32L4xx_HAL_Driver/Src/stm32l4xx_hal_uart_ex.c ****   * @param huart      UART handle.
 648:../03_Drivers/STM32L4xx_HAL_Driver/Src/stm32l4xx_hal_uart_ex.c ****   * @param Threshold  TX FIFO threshold value
 649:../03_Drivers/STM32L4xx_HAL_Driver/Src/stm32l4xx_hal_uart_ex.c ****   *          This parameter can be one of the following values:
 650:../03_Drivers/STM32L4xx_HAL_Driver/Src/stm32l4xx_hal_uart_ex.c ****   *            @arg @ref UART_TXFIFO_THRESHOLD_1_8
 651:../03_Drivers/STM32L4xx_HAL_Driver/Src/stm32l4xx_hal_uart_ex.c ****   *            @arg @ref UART_TXFIFO_THRESHOLD_1_4
 652:../03_Drivers/STM32L4xx_HAL_Driver/Src/stm32l4xx_hal_uart_ex.c ****   *            @arg @ref UART_TXFIFO_THRESHOLD_1_2
 653:../03_Drivers/STM32L4xx_HAL_Driver/Src/stm32l4xx_hal_uart_ex.c ****   *            @arg @ref UART_TXFIFO_THRESHOLD_3_4
 654:../03_Drivers/STM32L4xx_HAL_Driver/Src/stm32l4xx_hal_uart_ex.c ****   *            @arg @ref UART_TXFIFO_THRESHOLD_7_8
 655:../03_Drivers/STM32L4xx_HAL_Driver/Src/stm32l4xx_hal_uart_ex.c ****   *            @arg @ref UART_TXFIFO_THRESHOLD_8_8
 656:../03_Drivers/STM32L4xx_HAL_Driver/Src/stm32l4xx_hal_uart_ex.c ****   * @retval HAL status
 657:../03_Drivers/STM32L4xx_HAL_Driver/Src/stm32l4xx_hal_uart_ex.c ****   */
 658:../03_Drivers/STM32L4xx_HAL_Driver/Src/stm32l4xx_hal_uart_ex.c **** HAL_StatusTypeDef HAL_UARTEx_SetTxFifoThreshold(UART_HandleTypeDef *huart, uint32_t Threshold)
 659:../03_Drivers/STM32L4xx_HAL_Driver/Src/stm32l4xx_hal_uart_ex.c **** {
 660:../03_Drivers/STM32L4xx_HAL_Driver/Src/stm32l4xx_hal_uart_ex.c ****   uint32_t tmpcr1;
 661:../03_Drivers/STM32L4xx_HAL_Driver/Src/stm32l4xx_hal_uart_ex.c **** 
 662:../03_Drivers/STM32L4xx_HAL_Driver/Src/stm32l4xx_hal_uart_ex.c ****   /* Check parameters */
 663:../03_Drivers/STM32L4xx_HAL_Driver/Src/stm32l4xx_hal_uart_ex.c ****   assert_param(IS_UART_FIFO_INSTANCE(huart->Instance));
 664:../03_Drivers/STM32L4xx_HAL_Driver/Src/stm32l4xx_hal_uart_ex.c ****   assert_param(IS_UART_TXFIFO_THRESHOLD(Threshold));
 665:../03_Drivers/STM32L4xx_HAL_Driver/Src/stm32l4xx_hal_uart_ex.c **** 
 666:../03_Drivers/STM32L4xx_HAL_Driver/Src/stm32l4xx_hal_uart_ex.c ****   /* Process Locked */
 667:../03_Drivers/STM32L4xx_HAL_Driver/Src/stm32l4xx_hal_uart_ex.c ****   __HAL_LOCK(huart);
 668:../03_Drivers/STM32L4xx_HAL_Driver/Src/stm32l4xx_hal_uart_ex.c **** 
 669:../03_Drivers/STM32L4xx_HAL_Driver/Src/stm32l4xx_hal_uart_ex.c ****   huart->gState = HAL_UART_STATE_BUSY;
 670:../03_Drivers/STM32L4xx_HAL_Driver/Src/stm32l4xx_hal_uart_ex.c **** 
 671:../03_Drivers/STM32L4xx_HAL_Driver/Src/stm32l4xx_hal_uart_ex.c ****   /* Save actual UART configuration */
 672:../03_Drivers/STM32L4xx_HAL_Driver/Src/stm32l4xx_hal_uart_ex.c ****   tmpcr1 = READ_REG(huart->Instance->CR1);
 673:../03_Drivers/STM32L4xx_HAL_Driver/Src/stm32l4xx_hal_uart_ex.c **** 
 674:../03_Drivers/STM32L4xx_HAL_Driver/Src/stm32l4xx_hal_uart_ex.c ****   /* Disable UART */
 675:../03_Drivers/STM32L4xx_HAL_Driver/Src/stm32l4xx_hal_uart_ex.c ****   __HAL_UART_DISABLE(huart);
 676:../03_Drivers/STM32L4xx_HAL_Driver/Src/stm32l4xx_hal_uart_ex.c **** 
 677:../03_Drivers/STM32L4xx_HAL_Driver/Src/stm32l4xx_hal_uart_ex.c ****   /* Update TX threshold configuration */
 678:../03_Drivers/STM32L4xx_HAL_Driver/Src/stm32l4xx_hal_uart_ex.c ****   MODIFY_REG(huart->Instance->CR3, USART_CR3_TXFTCFG, Threshold);
 679:../03_Drivers/STM32L4xx_HAL_Driver/Src/stm32l4xx_hal_uart_ex.c **** 
 680:../03_Drivers/STM32L4xx_HAL_Driver/Src/stm32l4xx_hal_uart_ex.c ****   /* Determine the number of data to process during RX/TX ISR execution */
 681:../03_Drivers/STM32L4xx_HAL_Driver/Src/stm32l4xx_hal_uart_ex.c ****   UARTEx_SetNbDataToProcess(huart);
 682:../03_Drivers/STM32L4xx_HAL_Driver/Src/stm32l4xx_hal_uart_ex.c **** 
 683:../03_Drivers/STM32L4xx_HAL_Driver/Src/stm32l4xx_hal_uart_ex.c ****   /* Restore UART configuration */
 684:../03_Drivers/STM32L4xx_HAL_Driver/Src/stm32l4xx_hal_uart_ex.c ****   WRITE_REG(huart->Instance->CR1, tmpcr1);
 685:../03_Drivers/STM32L4xx_HAL_Driver/Src/stm32l4xx_hal_uart_ex.c **** 
 686:../03_Drivers/STM32L4xx_HAL_Driver/Src/stm32l4xx_hal_uart_ex.c ****   huart->gState = HAL_UART_STATE_READY;
 687:../03_Drivers/STM32L4xx_HAL_Driver/Src/stm32l4xx_hal_uart_ex.c **** 
 688:../03_Drivers/STM32L4xx_HAL_Driver/Src/stm32l4xx_hal_uart_ex.c ****   /* Process Unlocked */
 689:../03_Drivers/STM32L4xx_HAL_Driver/Src/stm32l4xx_hal_uart_ex.c ****   __HAL_UNLOCK(huart);
 690:../03_Drivers/STM32L4xx_HAL_Driver/Src/stm32l4xx_hal_uart_ex.c **** 
 691:../03_Drivers/STM32L4xx_HAL_Driver/Src/stm32l4xx_hal_uart_ex.c ****   return HAL_OK;
 692:../03_Drivers/STM32L4xx_HAL_Driver/Src/stm32l4xx_hal_uart_ex.c **** }
 693:../03_Drivers/STM32L4xx_HAL_Driver/Src/stm32l4xx_hal_uart_ex.c **** 
 694:../03_Drivers/STM32L4xx_HAL_Driver/Src/stm32l4xx_hal_uart_ex.c **** /**
 695:../03_Drivers/STM32L4xx_HAL_Driver/Src/stm32l4xx_hal_uart_ex.c ****   * @brief  Set the RXFIFO threshold.
 696:../03_Drivers/STM32L4xx_HAL_Driver/Src/stm32l4xx_hal_uart_ex.c ****   * @param huart      UART handle.
 697:../03_Drivers/STM32L4xx_HAL_Driver/Src/stm32l4xx_hal_uart_ex.c ****   * @param Threshold  RX FIFO threshold value
 698:../03_Drivers/STM32L4xx_HAL_Driver/Src/stm32l4xx_hal_uart_ex.c ****   *          This parameter can be one of the following values:
 699:../03_Drivers/STM32L4xx_HAL_Driver/Src/stm32l4xx_hal_uart_ex.c ****   *            @arg @ref UART_RXFIFO_THRESHOLD_1_8
 700:../03_Drivers/STM32L4xx_HAL_Driver/Src/stm32l4xx_hal_uart_ex.c ****   *            @arg @ref UART_RXFIFO_THRESHOLD_1_4
 701:../03_Drivers/STM32L4xx_HAL_Driver/Src/stm32l4xx_hal_uart_ex.c ****   *            @arg @ref UART_RXFIFO_THRESHOLD_1_2
 702:../03_Drivers/STM32L4xx_HAL_Driver/Src/stm32l4xx_hal_uart_ex.c ****   *            @arg @ref UART_RXFIFO_THRESHOLD_3_4
 703:../03_Drivers/STM32L4xx_HAL_Driver/Src/stm32l4xx_hal_uart_ex.c ****   *            @arg @ref UART_RXFIFO_THRESHOLD_7_8
ARM GAS  C:\Users\minde\AppData\Local\Temp\ccUwUXx6.s 			page 14


 704:../03_Drivers/STM32L4xx_HAL_Driver/Src/stm32l4xx_hal_uart_ex.c ****   *            @arg @ref UART_RXFIFO_THRESHOLD_8_8
 705:../03_Drivers/STM32L4xx_HAL_Driver/Src/stm32l4xx_hal_uart_ex.c ****   * @retval HAL status
 706:../03_Drivers/STM32L4xx_HAL_Driver/Src/stm32l4xx_hal_uart_ex.c ****   */
 707:../03_Drivers/STM32L4xx_HAL_Driver/Src/stm32l4xx_hal_uart_ex.c **** HAL_StatusTypeDef HAL_UARTEx_SetRxFifoThreshold(UART_HandleTypeDef *huart, uint32_t Threshold)
 708:../03_Drivers/STM32L4xx_HAL_Driver/Src/stm32l4xx_hal_uart_ex.c **** {
 709:../03_Drivers/STM32L4xx_HAL_Driver/Src/stm32l4xx_hal_uart_ex.c ****   uint32_t tmpcr1;
 710:../03_Drivers/STM32L4xx_HAL_Driver/Src/stm32l4xx_hal_uart_ex.c **** 
 711:../03_Drivers/STM32L4xx_HAL_Driver/Src/stm32l4xx_hal_uart_ex.c ****   /* Check the parameters */
 712:../03_Drivers/STM32L4xx_HAL_Driver/Src/stm32l4xx_hal_uart_ex.c ****   assert_param(IS_UART_FIFO_INSTANCE(huart->Instance));
 713:../03_Drivers/STM32L4xx_HAL_Driver/Src/stm32l4xx_hal_uart_ex.c ****   assert_param(IS_UART_RXFIFO_THRESHOLD(Threshold));
 714:../03_Drivers/STM32L4xx_HAL_Driver/Src/stm32l4xx_hal_uart_ex.c **** 
 715:../03_Drivers/STM32L4xx_HAL_Driver/Src/stm32l4xx_hal_uart_ex.c ****   /* Process Locked */
 716:../03_Drivers/STM32L4xx_HAL_Driver/Src/stm32l4xx_hal_uart_ex.c ****   __HAL_LOCK(huart);
 717:../03_Drivers/STM32L4xx_HAL_Driver/Src/stm32l4xx_hal_uart_ex.c **** 
 718:../03_Drivers/STM32L4xx_HAL_Driver/Src/stm32l4xx_hal_uart_ex.c ****   huart->gState = HAL_UART_STATE_BUSY;
 719:../03_Drivers/STM32L4xx_HAL_Driver/Src/stm32l4xx_hal_uart_ex.c **** 
 720:../03_Drivers/STM32L4xx_HAL_Driver/Src/stm32l4xx_hal_uart_ex.c ****   /* Save actual UART configuration */
 721:../03_Drivers/STM32L4xx_HAL_Driver/Src/stm32l4xx_hal_uart_ex.c ****   tmpcr1 = READ_REG(huart->Instance->CR1);
 722:../03_Drivers/STM32L4xx_HAL_Driver/Src/stm32l4xx_hal_uart_ex.c **** 
 723:../03_Drivers/STM32L4xx_HAL_Driver/Src/stm32l4xx_hal_uart_ex.c ****   /* Disable UART */
 724:../03_Drivers/STM32L4xx_HAL_Driver/Src/stm32l4xx_hal_uart_ex.c ****   __HAL_UART_DISABLE(huart);
 725:../03_Drivers/STM32L4xx_HAL_Driver/Src/stm32l4xx_hal_uart_ex.c **** 
 726:../03_Drivers/STM32L4xx_HAL_Driver/Src/stm32l4xx_hal_uart_ex.c ****   /* Update RX threshold configuration */
 727:../03_Drivers/STM32L4xx_HAL_Driver/Src/stm32l4xx_hal_uart_ex.c ****   MODIFY_REG(huart->Instance->CR3, USART_CR3_RXFTCFG, Threshold);
 728:../03_Drivers/STM32L4xx_HAL_Driver/Src/stm32l4xx_hal_uart_ex.c **** 
 729:../03_Drivers/STM32L4xx_HAL_Driver/Src/stm32l4xx_hal_uart_ex.c ****   /* Determine the number of data to process during RX/TX ISR execution */
 730:../03_Drivers/STM32L4xx_HAL_Driver/Src/stm32l4xx_hal_uart_ex.c ****   UARTEx_SetNbDataToProcess(huart);
 731:../03_Drivers/STM32L4xx_HAL_Driver/Src/stm32l4xx_hal_uart_ex.c **** 
 732:../03_Drivers/STM32L4xx_HAL_Driver/Src/stm32l4xx_hal_uart_ex.c ****   /* Restore UART configuration */
 733:../03_Drivers/STM32L4xx_HAL_Driver/Src/stm32l4xx_hal_uart_ex.c ****   WRITE_REG(huart->Instance->CR1, tmpcr1);
 734:../03_Drivers/STM32L4xx_HAL_Driver/Src/stm32l4xx_hal_uart_ex.c **** 
 735:../03_Drivers/STM32L4xx_HAL_Driver/Src/stm32l4xx_hal_uart_ex.c ****   huart->gState = HAL_UART_STATE_READY;
 736:../03_Drivers/STM32L4xx_HAL_Driver/Src/stm32l4xx_hal_uart_ex.c **** 
 737:../03_Drivers/STM32L4xx_HAL_Driver/Src/stm32l4xx_hal_uart_ex.c ****   /* Process Unlocked */
 738:../03_Drivers/STM32L4xx_HAL_Driver/Src/stm32l4xx_hal_uart_ex.c ****   __HAL_UNLOCK(huart);
 739:../03_Drivers/STM32L4xx_HAL_Driver/Src/stm32l4xx_hal_uart_ex.c **** 
 740:../03_Drivers/STM32L4xx_HAL_Driver/Src/stm32l4xx_hal_uart_ex.c ****   return HAL_OK;
 741:../03_Drivers/STM32L4xx_HAL_Driver/Src/stm32l4xx_hal_uart_ex.c **** }
 742:../03_Drivers/STM32L4xx_HAL_Driver/Src/stm32l4xx_hal_uart_ex.c **** 
 743:../03_Drivers/STM32L4xx_HAL_Driver/Src/stm32l4xx_hal_uart_ex.c **** #endif /* USART_CR1_FIFOEN */
 744:../03_Drivers/STM32L4xx_HAL_Driver/Src/stm32l4xx_hal_uart_ex.c **** /**
 745:../03_Drivers/STM32L4xx_HAL_Driver/Src/stm32l4xx_hal_uart_ex.c ****   * @brief Receive an amount of data in blocking mode till either the expected number of data is re
 746:../03_Drivers/STM32L4xx_HAL_Driver/Src/stm32l4xx_hal_uart_ex.c ****   * @note   HAL_OK is returned if reception is completed (expected number of data has been received
 747:../03_Drivers/STM32L4xx_HAL_Driver/Src/stm32l4xx_hal_uart_ex.c ****   *         or if reception is stopped after IDLE event (less than the expected number of data has 
 748:../03_Drivers/STM32L4xx_HAL_Driver/Src/stm32l4xx_hal_uart_ex.c ****   *         In this case, RxLen output parameter indicates number of data available in reception bu
 749:../03_Drivers/STM32L4xx_HAL_Driver/Src/stm32l4xx_hal_uart_ex.c ****   * @note   When UART parity is not enabled (PCE = 0), and Word Length is configured to 9 bits (M1-
 750:../03_Drivers/STM32L4xx_HAL_Driver/Src/stm32l4xx_hal_uart_ex.c ****   *         the received data is handled as a set of uint16_t. In this case, Size must indicate the
 751:../03_Drivers/STM32L4xx_HAL_Driver/Src/stm32l4xx_hal_uart_ex.c ****   *         of uint16_t available through pData.
 752:../03_Drivers/STM32L4xx_HAL_Driver/Src/stm32l4xx_hal_uart_ex.c ****   * @note When FIFO mode is enabled, the RXFNE flag is set as long as the RXFIFO
 753:../03_Drivers/STM32L4xx_HAL_Driver/Src/stm32l4xx_hal_uart_ex.c ****   *       is not empty. Read operations from the RDR register are performed when
 754:../03_Drivers/STM32L4xx_HAL_Driver/Src/stm32l4xx_hal_uart_ex.c ****   *       RXFNE flag is set. From hardware perspective, RXFNE flag and
 755:../03_Drivers/STM32L4xx_HAL_Driver/Src/stm32l4xx_hal_uart_ex.c ****   *       RXNE are mapped on the same bit-field.
 756:../03_Drivers/STM32L4xx_HAL_Driver/Src/stm32l4xx_hal_uart_ex.c ****   * @param huart   UART handle.
 757:../03_Drivers/STM32L4xx_HAL_Driver/Src/stm32l4xx_hal_uart_ex.c ****   * @param pData   Pointer to data buffer (uint8_t or uint16_t data elements).
 758:../03_Drivers/STM32L4xx_HAL_Driver/Src/stm32l4xx_hal_uart_ex.c ****   * @param Size    Amount of data elements (uint8_t or uint16_t) to be received.
 759:../03_Drivers/STM32L4xx_HAL_Driver/Src/stm32l4xx_hal_uart_ex.c ****   * @param RxLen   Number of data elements finally received (could be lower than Size, in case rece
 760:../03_Drivers/STM32L4xx_HAL_Driver/Src/stm32l4xx_hal_uart_ex.c ****   * @param Timeout Timeout duration expressed in ms (covers the whole reception sequence).
ARM GAS  C:\Users\minde\AppData\Local\Temp\ccUwUXx6.s 			page 15


 761:../03_Drivers/STM32L4xx_HAL_Driver/Src/stm32l4xx_hal_uart_ex.c ****   * @retval HAL status
 762:../03_Drivers/STM32L4xx_HAL_Driver/Src/stm32l4xx_hal_uart_ex.c ****   */
 763:../03_Drivers/STM32L4xx_HAL_Driver/Src/stm32l4xx_hal_uart_ex.c **** HAL_StatusTypeDef HAL_UARTEx_ReceiveToIdle(UART_HandleTypeDef *huart, uint8_t *pData, uint16_t Size
 764:../03_Drivers/STM32L4xx_HAL_Driver/Src/stm32l4xx_hal_uart_ex.c **** {
 765:../03_Drivers/STM32L4xx_HAL_Driver/Src/stm32l4xx_hal_uart_ex.c ****   uint8_t  *pdata8bits;
 766:../03_Drivers/STM32L4xx_HAL_Driver/Src/stm32l4xx_hal_uart_ex.c ****   uint16_t *pdata16bits;
 767:../03_Drivers/STM32L4xx_HAL_Driver/Src/stm32l4xx_hal_uart_ex.c ****   uint16_t uhMask;
 768:../03_Drivers/STM32L4xx_HAL_Driver/Src/stm32l4xx_hal_uart_ex.c ****   uint32_t tickstart;
 769:../03_Drivers/STM32L4xx_HAL_Driver/Src/stm32l4xx_hal_uart_ex.c **** 
 770:../03_Drivers/STM32L4xx_HAL_Driver/Src/stm32l4xx_hal_uart_ex.c ****   /* Check that a Rx process is not already ongoing */
 771:../03_Drivers/STM32L4xx_HAL_Driver/Src/stm32l4xx_hal_uart_ex.c ****   if (huart->RxState == HAL_UART_STATE_READY)
 772:../03_Drivers/STM32L4xx_HAL_Driver/Src/stm32l4xx_hal_uart_ex.c ****   {
 773:../03_Drivers/STM32L4xx_HAL_Driver/Src/stm32l4xx_hal_uart_ex.c ****     if ((pData == NULL) || (Size == 0U))
 774:../03_Drivers/STM32L4xx_HAL_Driver/Src/stm32l4xx_hal_uart_ex.c ****     {
 775:../03_Drivers/STM32L4xx_HAL_Driver/Src/stm32l4xx_hal_uart_ex.c ****       return  HAL_ERROR;
 776:../03_Drivers/STM32L4xx_HAL_Driver/Src/stm32l4xx_hal_uart_ex.c ****     }
 777:../03_Drivers/STM32L4xx_HAL_Driver/Src/stm32l4xx_hal_uart_ex.c **** 
 778:../03_Drivers/STM32L4xx_HAL_Driver/Src/stm32l4xx_hal_uart_ex.c ****     __HAL_LOCK(huart);
 779:../03_Drivers/STM32L4xx_HAL_Driver/Src/stm32l4xx_hal_uart_ex.c **** 
 780:../03_Drivers/STM32L4xx_HAL_Driver/Src/stm32l4xx_hal_uart_ex.c ****     huart->ErrorCode = HAL_UART_ERROR_NONE;
 781:../03_Drivers/STM32L4xx_HAL_Driver/Src/stm32l4xx_hal_uart_ex.c ****     huart->RxState = HAL_UART_STATE_BUSY_RX;
 782:../03_Drivers/STM32L4xx_HAL_Driver/Src/stm32l4xx_hal_uart_ex.c ****     huart->ReceptionType = HAL_UART_RECEPTION_TOIDLE;
 783:../03_Drivers/STM32L4xx_HAL_Driver/Src/stm32l4xx_hal_uart_ex.c **** 
 784:../03_Drivers/STM32L4xx_HAL_Driver/Src/stm32l4xx_hal_uart_ex.c ****     /* Init tickstart for timeout management */
 785:../03_Drivers/STM32L4xx_HAL_Driver/Src/stm32l4xx_hal_uart_ex.c ****     tickstart = HAL_GetTick();
 786:../03_Drivers/STM32L4xx_HAL_Driver/Src/stm32l4xx_hal_uart_ex.c **** 
 787:../03_Drivers/STM32L4xx_HAL_Driver/Src/stm32l4xx_hal_uart_ex.c ****     huart->RxXferSize  = Size;
 788:../03_Drivers/STM32L4xx_HAL_Driver/Src/stm32l4xx_hal_uart_ex.c ****     huart->RxXferCount = Size;
 789:../03_Drivers/STM32L4xx_HAL_Driver/Src/stm32l4xx_hal_uart_ex.c **** 
 790:../03_Drivers/STM32L4xx_HAL_Driver/Src/stm32l4xx_hal_uart_ex.c ****     /* Computation of UART mask to apply to RDR register */
 791:../03_Drivers/STM32L4xx_HAL_Driver/Src/stm32l4xx_hal_uart_ex.c ****     UART_MASK_COMPUTATION(huart);
 792:../03_Drivers/STM32L4xx_HAL_Driver/Src/stm32l4xx_hal_uart_ex.c ****     uhMask = huart->Mask;
 793:../03_Drivers/STM32L4xx_HAL_Driver/Src/stm32l4xx_hal_uart_ex.c **** 
 794:../03_Drivers/STM32L4xx_HAL_Driver/Src/stm32l4xx_hal_uart_ex.c ****     /* In case of 9bits/No Parity transfer, pRxData needs to be handled as a uint16_t pointer */
 795:../03_Drivers/STM32L4xx_HAL_Driver/Src/stm32l4xx_hal_uart_ex.c ****     if ((huart->Init.WordLength == UART_WORDLENGTH_9B) && (huart->Init.Parity == UART_PARITY_NONE))
 796:../03_Drivers/STM32L4xx_HAL_Driver/Src/stm32l4xx_hal_uart_ex.c ****     {
 797:../03_Drivers/STM32L4xx_HAL_Driver/Src/stm32l4xx_hal_uart_ex.c ****       pdata8bits  = NULL;
 798:../03_Drivers/STM32L4xx_HAL_Driver/Src/stm32l4xx_hal_uart_ex.c ****       pdata16bits = (uint16_t *) pData;
 799:../03_Drivers/STM32L4xx_HAL_Driver/Src/stm32l4xx_hal_uart_ex.c ****     }
 800:../03_Drivers/STM32L4xx_HAL_Driver/Src/stm32l4xx_hal_uart_ex.c ****     else
 801:../03_Drivers/STM32L4xx_HAL_Driver/Src/stm32l4xx_hal_uart_ex.c ****     {
 802:../03_Drivers/STM32L4xx_HAL_Driver/Src/stm32l4xx_hal_uart_ex.c ****       pdata8bits  = pData;
 803:../03_Drivers/STM32L4xx_HAL_Driver/Src/stm32l4xx_hal_uart_ex.c ****       pdata16bits = NULL;
 804:../03_Drivers/STM32L4xx_HAL_Driver/Src/stm32l4xx_hal_uart_ex.c ****     }
 805:../03_Drivers/STM32L4xx_HAL_Driver/Src/stm32l4xx_hal_uart_ex.c **** 
 806:../03_Drivers/STM32L4xx_HAL_Driver/Src/stm32l4xx_hal_uart_ex.c ****     __HAL_UNLOCK(huart);
 807:../03_Drivers/STM32L4xx_HAL_Driver/Src/stm32l4xx_hal_uart_ex.c **** 
 808:../03_Drivers/STM32L4xx_HAL_Driver/Src/stm32l4xx_hal_uart_ex.c ****     /* Initialize output number of received elements */
 809:../03_Drivers/STM32L4xx_HAL_Driver/Src/stm32l4xx_hal_uart_ex.c ****     *RxLen = 0U;
 810:../03_Drivers/STM32L4xx_HAL_Driver/Src/stm32l4xx_hal_uart_ex.c **** 
 811:../03_Drivers/STM32L4xx_HAL_Driver/Src/stm32l4xx_hal_uart_ex.c ****     /* as long as data have to be received */
 812:../03_Drivers/STM32L4xx_HAL_Driver/Src/stm32l4xx_hal_uart_ex.c ****     while (huart->RxXferCount > 0U)
 813:../03_Drivers/STM32L4xx_HAL_Driver/Src/stm32l4xx_hal_uart_ex.c ****     {
 814:../03_Drivers/STM32L4xx_HAL_Driver/Src/stm32l4xx_hal_uart_ex.c ****       /* Check if IDLE flag is set */
 815:../03_Drivers/STM32L4xx_HAL_Driver/Src/stm32l4xx_hal_uart_ex.c ****       if (__HAL_UART_GET_FLAG(huart, UART_FLAG_IDLE))
 816:../03_Drivers/STM32L4xx_HAL_Driver/Src/stm32l4xx_hal_uart_ex.c ****       {
 817:../03_Drivers/STM32L4xx_HAL_Driver/Src/stm32l4xx_hal_uart_ex.c ****         /* Clear IDLE flag in ISR */
ARM GAS  C:\Users\minde\AppData\Local\Temp\ccUwUXx6.s 			page 16


 818:../03_Drivers/STM32L4xx_HAL_Driver/Src/stm32l4xx_hal_uart_ex.c ****         __HAL_UART_CLEAR_FLAG(huart, UART_CLEAR_IDLEF);
 819:../03_Drivers/STM32L4xx_HAL_Driver/Src/stm32l4xx_hal_uart_ex.c **** 
 820:../03_Drivers/STM32L4xx_HAL_Driver/Src/stm32l4xx_hal_uart_ex.c ****         /* If Set, but no data ever received, clear flag without exiting loop */
 821:../03_Drivers/STM32L4xx_HAL_Driver/Src/stm32l4xx_hal_uart_ex.c ****         /* If Set, and data has already been received, this means Idle Event is valid : End recepti
 822:../03_Drivers/STM32L4xx_HAL_Driver/Src/stm32l4xx_hal_uart_ex.c ****         if (*RxLen > 0U)
 823:../03_Drivers/STM32L4xx_HAL_Driver/Src/stm32l4xx_hal_uart_ex.c ****         {
 824:../03_Drivers/STM32L4xx_HAL_Driver/Src/stm32l4xx_hal_uart_ex.c ****           huart->RxState = HAL_UART_STATE_READY;
 825:../03_Drivers/STM32L4xx_HAL_Driver/Src/stm32l4xx_hal_uart_ex.c **** 
 826:../03_Drivers/STM32L4xx_HAL_Driver/Src/stm32l4xx_hal_uart_ex.c ****           return HAL_OK;
 827:../03_Drivers/STM32L4xx_HAL_Driver/Src/stm32l4xx_hal_uart_ex.c ****         }
 828:../03_Drivers/STM32L4xx_HAL_Driver/Src/stm32l4xx_hal_uart_ex.c ****       }
 829:../03_Drivers/STM32L4xx_HAL_Driver/Src/stm32l4xx_hal_uart_ex.c **** 
 830:../03_Drivers/STM32L4xx_HAL_Driver/Src/stm32l4xx_hal_uart_ex.c ****       /* Check if RXNE flag is set */
 831:../03_Drivers/STM32L4xx_HAL_Driver/Src/stm32l4xx_hal_uart_ex.c ****       if (__HAL_UART_GET_FLAG(huart, UART_FLAG_RXNE))
 832:../03_Drivers/STM32L4xx_HAL_Driver/Src/stm32l4xx_hal_uart_ex.c ****       {
 833:../03_Drivers/STM32L4xx_HAL_Driver/Src/stm32l4xx_hal_uart_ex.c ****         if (pdata8bits == NULL)
 834:../03_Drivers/STM32L4xx_HAL_Driver/Src/stm32l4xx_hal_uart_ex.c ****         {
 835:../03_Drivers/STM32L4xx_HAL_Driver/Src/stm32l4xx_hal_uart_ex.c ****           *pdata16bits = (uint16_t)(huart->Instance->RDR & uhMask);
 836:../03_Drivers/STM32L4xx_HAL_Driver/Src/stm32l4xx_hal_uart_ex.c ****           pdata16bits++;
 837:../03_Drivers/STM32L4xx_HAL_Driver/Src/stm32l4xx_hal_uart_ex.c ****         }
 838:../03_Drivers/STM32L4xx_HAL_Driver/Src/stm32l4xx_hal_uart_ex.c ****         else
 839:../03_Drivers/STM32L4xx_HAL_Driver/Src/stm32l4xx_hal_uart_ex.c ****         {
 840:../03_Drivers/STM32L4xx_HAL_Driver/Src/stm32l4xx_hal_uart_ex.c ****           *pdata8bits = (uint8_t)(huart->Instance->RDR & (uint8_t)uhMask);
 841:../03_Drivers/STM32L4xx_HAL_Driver/Src/stm32l4xx_hal_uart_ex.c ****           pdata8bits++;
 842:../03_Drivers/STM32L4xx_HAL_Driver/Src/stm32l4xx_hal_uart_ex.c ****         }
 843:../03_Drivers/STM32L4xx_HAL_Driver/Src/stm32l4xx_hal_uart_ex.c ****         /* Increment number of received elements */
 844:../03_Drivers/STM32L4xx_HAL_Driver/Src/stm32l4xx_hal_uart_ex.c ****         *RxLen += 1U;
 845:../03_Drivers/STM32L4xx_HAL_Driver/Src/stm32l4xx_hal_uart_ex.c ****         huart->RxXferCount--;
 846:../03_Drivers/STM32L4xx_HAL_Driver/Src/stm32l4xx_hal_uart_ex.c ****       }
 847:../03_Drivers/STM32L4xx_HAL_Driver/Src/stm32l4xx_hal_uart_ex.c **** 
 848:../03_Drivers/STM32L4xx_HAL_Driver/Src/stm32l4xx_hal_uart_ex.c ****       /* Check for the Timeout */
 849:../03_Drivers/STM32L4xx_HAL_Driver/Src/stm32l4xx_hal_uart_ex.c ****       if (Timeout != HAL_MAX_DELAY)
 850:../03_Drivers/STM32L4xx_HAL_Driver/Src/stm32l4xx_hal_uart_ex.c ****       {
 851:../03_Drivers/STM32L4xx_HAL_Driver/Src/stm32l4xx_hal_uart_ex.c ****         if (((HAL_GetTick() - tickstart) > Timeout) || (Timeout == 0U))
 852:../03_Drivers/STM32L4xx_HAL_Driver/Src/stm32l4xx_hal_uart_ex.c ****         {
 853:../03_Drivers/STM32L4xx_HAL_Driver/Src/stm32l4xx_hal_uart_ex.c ****           huart->RxState = HAL_UART_STATE_READY;
 854:../03_Drivers/STM32L4xx_HAL_Driver/Src/stm32l4xx_hal_uart_ex.c **** 
 855:../03_Drivers/STM32L4xx_HAL_Driver/Src/stm32l4xx_hal_uart_ex.c ****           return HAL_TIMEOUT;
 856:../03_Drivers/STM32L4xx_HAL_Driver/Src/stm32l4xx_hal_uart_ex.c ****         }
 857:../03_Drivers/STM32L4xx_HAL_Driver/Src/stm32l4xx_hal_uart_ex.c ****       }
 858:../03_Drivers/STM32L4xx_HAL_Driver/Src/stm32l4xx_hal_uart_ex.c ****     }
 859:../03_Drivers/STM32L4xx_HAL_Driver/Src/stm32l4xx_hal_uart_ex.c **** 
 860:../03_Drivers/STM32L4xx_HAL_Driver/Src/stm32l4xx_hal_uart_ex.c ****     /* Set number of received elements in output parameter : RxLen */
 861:../03_Drivers/STM32L4xx_HAL_Driver/Src/stm32l4xx_hal_uart_ex.c ****     *RxLen = huart->RxXferSize - huart->RxXferCount;
 862:../03_Drivers/STM32L4xx_HAL_Driver/Src/stm32l4xx_hal_uart_ex.c ****     /* At end of Rx process, restore huart->RxState to Ready */
 863:../03_Drivers/STM32L4xx_HAL_Driver/Src/stm32l4xx_hal_uart_ex.c ****     huart->RxState = HAL_UART_STATE_READY;
 864:../03_Drivers/STM32L4xx_HAL_Driver/Src/stm32l4xx_hal_uart_ex.c **** 
 865:../03_Drivers/STM32L4xx_HAL_Driver/Src/stm32l4xx_hal_uart_ex.c ****     return HAL_OK;
 866:../03_Drivers/STM32L4xx_HAL_Driver/Src/stm32l4xx_hal_uart_ex.c ****   }
 867:../03_Drivers/STM32L4xx_HAL_Driver/Src/stm32l4xx_hal_uart_ex.c ****   else
 868:../03_Drivers/STM32L4xx_HAL_Driver/Src/stm32l4xx_hal_uart_ex.c ****   {
 869:../03_Drivers/STM32L4xx_HAL_Driver/Src/stm32l4xx_hal_uart_ex.c ****     return HAL_BUSY;
 870:../03_Drivers/STM32L4xx_HAL_Driver/Src/stm32l4xx_hal_uart_ex.c ****   }
 871:../03_Drivers/STM32L4xx_HAL_Driver/Src/stm32l4xx_hal_uart_ex.c **** }
 872:../03_Drivers/STM32L4xx_HAL_Driver/Src/stm32l4xx_hal_uart_ex.c **** 
 873:../03_Drivers/STM32L4xx_HAL_Driver/Src/stm32l4xx_hal_uart_ex.c **** /**
 874:../03_Drivers/STM32L4xx_HAL_Driver/Src/stm32l4xx_hal_uart_ex.c ****   * @brief Receive an amount of data in interrupt mode till either the expected number of data is r
ARM GAS  C:\Users\minde\AppData\Local\Temp\ccUwUXx6.s 			page 17


 875:../03_Drivers/STM32L4xx_HAL_Driver/Src/stm32l4xx_hal_uart_ex.c ****   * @note   Reception is initiated by this function call. Further progress of reception is achieved
 876:../03_Drivers/STM32L4xx_HAL_Driver/Src/stm32l4xx_hal_uart_ex.c ****   *         to UART interrupts raised by RXNE and IDLE events. Callback is called at end of recepti
 877:../03_Drivers/STM32L4xx_HAL_Driver/Src/stm32l4xx_hal_uart_ex.c ****   *         number of received data elements.
 878:../03_Drivers/STM32L4xx_HAL_Driver/Src/stm32l4xx_hal_uart_ex.c ****   * @note   When UART parity is not enabled (PCE = 0), and Word Length is configured to 9 bits (M1-
 879:../03_Drivers/STM32L4xx_HAL_Driver/Src/stm32l4xx_hal_uart_ex.c ****   *         the received data is handled as a set of uint16_t. In this case, Size must indicate the
 880:../03_Drivers/STM32L4xx_HAL_Driver/Src/stm32l4xx_hal_uart_ex.c ****   *         of uint16_t available through pData.
 881:../03_Drivers/STM32L4xx_HAL_Driver/Src/stm32l4xx_hal_uart_ex.c ****   * @param huart UART handle.
 882:../03_Drivers/STM32L4xx_HAL_Driver/Src/stm32l4xx_hal_uart_ex.c ****   * @param pData Pointer to data buffer (uint8_t or uint16_t data elements).
 883:../03_Drivers/STM32L4xx_HAL_Driver/Src/stm32l4xx_hal_uart_ex.c ****   * @param Size  Amount of data elements (uint8_t or uint16_t) to be received.
 884:../03_Drivers/STM32L4xx_HAL_Driver/Src/stm32l4xx_hal_uart_ex.c ****   * @retval HAL status
 885:../03_Drivers/STM32L4xx_HAL_Driver/Src/stm32l4xx_hal_uart_ex.c ****   */
 886:../03_Drivers/STM32L4xx_HAL_Driver/Src/stm32l4xx_hal_uart_ex.c **** HAL_StatusTypeDef HAL_UARTEx_ReceiveToIdle_IT(UART_HandleTypeDef *huart, uint8_t *pData, uint16_t S
 887:../03_Drivers/STM32L4xx_HAL_Driver/Src/stm32l4xx_hal_uart_ex.c **** {
 888:../03_Drivers/STM32L4xx_HAL_Driver/Src/stm32l4xx_hal_uart_ex.c ****   HAL_StatusTypeDef status;
 889:../03_Drivers/STM32L4xx_HAL_Driver/Src/stm32l4xx_hal_uart_ex.c **** 
 890:../03_Drivers/STM32L4xx_HAL_Driver/Src/stm32l4xx_hal_uart_ex.c ****   /* Check that a Rx process is not already ongoing */
 891:../03_Drivers/STM32L4xx_HAL_Driver/Src/stm32l4xx_hal_uart_ex.c ****   if (huart->RxState == HAL_UART_STATE_READY)
 892:../03_Drivers/STM32L4xx_HAL_Driver/Src/stm32l4xx_hal_uart_ex.c ****   {
 893:../03_Drivers/STM32L4xx_HAL_Driver/Src/stm32l4xx_hal_uart_ex.c ****     if ((pData == NULL) || (Size == 0U))
 894:../03_Drivers/STM32L4xx_HAL_Driver/Src/stm32l4xx_hal_uart_ex.c ****     {
 895:../03_Drivers/STM32L4xx_HAL_Driver/Src/stm32l4xx_hal_uart_ex.c ****       return HAL_ERROR;
 896:../03_Drivers/STM32L4xx_HAL_Driver/Src/stm32l4xx_hal_uart_ex.c ****     }
 897:../03_Drivers/STM32L4xx_HAL_Driver/Src/stm32l4xx_hal_uart_ex.c **** 
 898:../03_Drivers/STM32L4xx_HAL_Driver/Src/stm32l4xx_hal_uart_ex.c ****     __HAL_LOCK(huart);
 899:../03_Drivers/STM32L4xx_HAL_Driver/Src/stm32l4xx_hal_uart_ex.c **** 
 900:../03_Drivers/STM32L4xx_HAL_Driver/Src/stm32l4xx_hal_uart_ex.c ****     /* Set Reception type to reception till IDLE Event*/
 901:../03_Drivers/STM32L4xx_HAL_Driver/Src/stm32l4xx_hal_uart_ex.c ****     huart->ReceptionType = HAL_UART_RECEPTION_TOIDLE;
 902:../03_Drivers/STM32L4xx_HAL_Driver/Src/stm32l4xx_hal_uart_ex.c **** 
 903:../03_Drivers/STM32L4xx_HAL_Driver/Src/stm32l4xx_hal_uart_ex.c ****     status =  UART_Start_Receive_IT(huart, pData, Size);
 904:../03_Drivers/STM32L4xx_HAL_Driver/Src/stm32l4xx_hal_uart_ex.c **** 
 905:../03_Drivers/STM32L4xx_HAL_Driver/Src/stm32l4xx_hal_uart_ex.c ****     /* Check Rx process has been successfully started */
 906:../03_Drivers/STM32L4xx_HAL_Driver/Src/stm32l4xx_hal_uart_ex.c ****     if (status == HAL_OK)
 907:../03_Drivers/STM32L4xx_HAL_Driver/Src/stm32l4xx_hal_uart_ex.c ****     {
 908:../03_Drivers/STM32L4xx_HAL_Driver/Src/stm32l4xx_hal_uart_ex.c ****       if (huart->ReceptionType == HAL_UART_RECEPTION_TOIDLE)
 909:../03_Drivers/STM32L4xx_HAL_Driver/Src/stm32l4xx_hal_uart_ex.c ****       {
 910:../03_Drivers/STM32L4xx_HAL_Driver/Src/stm32l4xx_hal_uart_ex.c ****         __HAL_UART_CLEAR_FLAG(huart, UART_CLEAR_IDLEF);
 911:../03_Drivers/STM32L4xx_HAL_Driver/Src/stm32l4xx_hal_uart_ex.c ****         SET_BIT(huart->Instance->CR1, USART_CR1_IDLEIE);
 912:../03_Drivers/STM32L4xx_HAL_Driver/Src/stm32l4xx_hal_uart_ex.c ****       }
 913:../03_Drivers/STM32L4xx_HAL_Driver/Src/stm32l4xx_hal_uart_ex.c ****       else
 914:../03_Drivers/STM32L4xx_HAL_Driver/Src/stm32l4xx_hal_uart_ex.c ****       {
 915:../03_Drivers/STM32L4xx_HAL_Driver/Src/stm32l4xx_hal_uart_ex.c ****         /* In case of errors already pending when reception is started,
 916:../03_Drivers/STM32L4xx_HAL_Driver/Src/stm32l4xx_hal_uart_ex.c ****            Interrupts may have already been raised and lead to reception abortion.
 917:../03_Drivers/STM32L4xx_HAL_Driver/Src/stm32l4xx_hal_uart_ex.c ****            (Overrun error for instance).
 918:../03_Drivers/STM32L4xx_HAL_Driver/Src/stm32l4xx_hal_uart_ex.c ****            In such case Reception Type has been reset to HAL_UART_RECEPTION_STANDARD. */
 919:../03_Drivers/STM32L4xx_HAL_Driver/Src/stm32l4xx_hal_uart_ex.c ****         status = HAL_ERROR;
 920:../03_Drivers/STM32L4xx_HAL_Driver/Src/stm32l4xx_hal_uart_ex.c ****       }
 921:../03_Drivers/STM32L4xx_HAL_Driver/Src/stm32l4xx_hal_uart_ex.c ****     }
 922:../03_Drivers/STM32L4xx_HAL_Driver/Src/stm32l4xx_hal_uart_ex.c **** 
 923:../03_Drivers/STM32L4xx_HAL_Driver/Src/stm32l4xx_hal_uart_ex.c ****     return status;
 924:../03_Drivers/STM32L4xx_HAL_Driver/Src/stm32l4xx_hal_uart_ex.c ****   }
 925:../03_Drivers/STM32L4xx_HAL_Driver/Src/stm32l4xx_hal_uart_ex.c ****   else
 926:../03_Drivers/STM32L4xx_HAL_Driver/Src/stm32l4xx_hal_uart_ex.c ****   {
 927:../03_Drivers/STM32L4xx_HAL_Driver/Src/stm32l4xx_hal_uart_ex.c ****     return HAL_BUSY;
 928:../03_Drivers/STM32L4xx_HAL_Driver/Src/stm32l4xx_hal_uart_ex.c ****   }
 929:../03_Drivers/STM32L4xx_HAL_Driver/Src/stm32l4xx_hal_uart_ex.c **** }
 930:../03_Drivers/STM32L4xx_HAL_Driver/Src/stm32l4xx_hal_uart_ex.c **** 
 931:../03_Drivers/STM32L4xx_HAL_Driver/Src/stm32l4xx_hal_uart_ex.c **** /**
ARM GAS  C:\Users\minde\AppData\Local\Temp\ccUwUXx6.s 			page 18


 932:../03_Drivers/STM32L4xx_HAL_Driver/Src/stm32l4xx_hal_uart_ex.c ****   * @brief Receive an amount of data in DMA mode till either the expected number of data is receive
 933:../03_Drivers/STM32L4xx_HAL_Driver/Src/stm32l4xx_hal_uart_ex.c ****   * @note   Reception is initiated by this function call. Further progress of reception is achieved
 934:../03_Drivers/STM32L4xx_HAL_Driver/Src/stm32l4xx_hal_uart_ex.c ****   *         to DMA services, transferring automatically received data elements in user reception bu
 935:../03_Drivers/STM32L4xx_HAL_Driver/Src/stm32l4xx_hal_uart_ex.c ****   *         calling registered callbacks at half/end of reception. UART IDLE events are also used t
 936:../03_Drivers/STM32L4xx_HAL_Driver/Src/stm32l4xx_hal_uart_ex.c ****   *         reception phase as ended. In all cases, callback execution will indicate number of rece
 937:../03_Drivers/STM32L4xx_HAL_Driver/Src/stm32l4xx_hal_uart_ex.c ****   * @note   When the UART parity is enabled (PCE = 1), the received data contain
 938:../03_Drivers/STM32L4xx_HAL_Driver/Src/stm32l4xx_hal_uart_ex.c ****   *         the parity bit (MSB position).
 939:../03_Drivers/STM32L4xx_HAL_Driver/Src/stm32l4xx_hal_uart_ex.c ****   * @note   When UART parity is not enabled (PCE = 0), and Word Length is configured to 9 bits (M1-
 940:../03_Drivers/STM32L4xx_HAL_Driver/Src/stm32l4xx_hal_uart_ex.c ****   *         the received data is handled as a set of uint16_t. In this case, Size must indicate the
 941:../03_Drivers/STM32L4xx_HAL_Driver/Src/stm32l4xx_hal_uart_ex.c ****   *         of uint16_t available through pData.
 942:../03_Drivers/STM32L4xx_HAL_Driver/Src/stm32l4xx_hal_uart_ex.c ****   * @param huart UART handle.
 943:../03_Drivers/STM32L4xx_HAL_Driver/Src/stm32l4xx_hal_uart_ex.c ****   * @param pData Pointer to data buffer (uint8_t or uint16_t data elements).
 944:../03_Drivers/STM32L4xx_HAL_Driver/Src/stm32l4xx_hal_uart_ex.c ****   * @param Size  Amount of data elements (uint8_t or uint16_t) to be received.
 945:../03_Drivers/STM32L4xx_HAL_Driver/Src/stm32l4xx_hal_uart_ex.c ****   * @retval HAL status
 946:../03_Drivers/STM32L4xx_HAL_Driver/Src/stm32l4xx_hal_uart_ex.c ****   */
 947:../03_Drivers/STM32L4xx_HAL_Driver/Src/stm32l4xx_hal_uart_ex.c **** HAL_StatusTypeDef HAL_UARTEx_ReceiveToIdle_DMA(UART_HandleTypeDef *huart, uint8_t *pData, uint16_t 
 948:../03_Drivers/STM32L4xx_HAL_Driver/Src/stm32l4xx_hal_uart_ex.c **** {
 949:../03_Drivers/STM32L4xx_HAL_Driver/Src/stm32l4xx_hal_uart_ex.c ****   HAL_StatusTypeDef status;
 950:../03_Drivers/STM32L4xx_HAL_Driver/Src/stm32l4xx_hal_uart_ex.c **** 
 951:../03_Drivers/STM32L4xx_HAL_Driver/Src/stm32l4xx_hal_uart_ex.c ****   /* Check that a Rx process is not already ongoing */
 952:../03_Drivers/STM32L4xx_HAL_Driver/Src/stm32l4xx_hal_uart_ex.c ****   if (huart->RxState == HAL_UART_STATE_READY)
 953:../03_Drivers/STM32L4xx_HAL_Driver/Src/stm32l4xx_hal_uart_ex.c ****   {
 954:../03_Drivers/STM32L4xx_HAL_Driver/Src/stm32l4xx_hal_uart_ex.c ****     if ((pData == NULL) || (Size == 0U))
 955:../03_Drivers/STM32L4xx_HAL_Driver/Src/stm32l4xx_hal_uart_ex.c ****     {
 956:../03_Drivers/STM32L4xx_HAL_Driver/Src/stm32l4xx_hal_uart_ex.c ****       return HAL_ERROR;
 957:../03_Drivers/STM32L4xx_HAL_Driver/Src/stm32l4xx_hal_uart_ex.c ****     }
 958:../03_Drivers/STM32L4xx_HAL_Driver/Src/stm32l4xx_hal_uart_ex.c **** 
 959:../03_Drivers/STM32L4xx_HAL_Driver/Src/stm32l4xx_hal_uart_ex.c ****     __HAL_LOCK(huart);
 960:../03_Drivers/STM32L4xx_HAL_Driver/Src/stm32l4xx_hal_uart_ex.c **** 
 961:../03_Drivers/STM32L4xx_HAL_Driver/Src/stm32l4xx_hal_uart_ex.c ****     /* Set Reception type to reception till IDLE Event*/
 962:../03_Drivers/STM32L4xx_HAL_Driver/Src/stm32l4xx_hal_uart_ex.c ****     huart->ReceptionType = HAL_UART_RECEPTION_TOIDLE;
 963:../03_Drivers/STM32L4xx_HAL_Driver/Src/stm32l4xx_hal_uart_ex.c **** 
 964:../03_Drivers/STM32L4xx_HAL_Driver/Src/stm32l4xx_hal_uart_ex.c ****     status =  UART_Start_Receive_DMA(huart, pData, Size);
 965:../03_Drivers/STM32L4xx_HAL_Driver/Src/stm32l4xx_hal_uart_ex.c **** 
 966:../03_Drivers/STM32L4xx_HAL_Driver/Src/stm32l4xx_hal_uart_ex.c ****     /* Check Rx process has been successfully started */
 967:../03_Drivers/STM32L4xx_HAL_Driver/Src/stm32l4xx_hal_uart_ex.c ****     if (status == HAL_OK)
 968:../03_Drivers/STM32L4xx_HAL_Driver/Src/stm32l4xx_hal_uart_ex.c ****     {
 969:../03_Drivers/STM32L4xx_HAL_Driver/Src/stm32l4xx_hal_uart_ex.c ****       if (huart->ReceptionType == HAL_UART_RECEPTION_TOIDLE)
 970:../03_Drivers/STM32L4xx_HAL_Driver/Src/stm32l4xx_hal_uart_ex.c ****       {
 971:../03_Drivers/STM32L4xx_HAL_Driver/Src/stm32l4xx_hal_uart_ex.c ****         __HAL_UART_CLEAR_FLAG(huart, UART_CLEAR_IDLEF);
 972:../03_Drivers/STM32L4xx_HAL_Driver/Src/stm32l4xx_hal_uart_ex.c ****         SET_BIT(huart->Instance->CR1, USART_CR1_IDLEIE);
 973:../03_Drivers/STM32L4xx_HAL_Driver/Src/stm32l4xx_hal_uart_ex.c ****       }
 974:../03_Drivers/STM32L4xx_HAL_Driver/Src/stm32l4xx_hal_uart_ex.c ****       else
 975:../03_Drivers/STM32L4xx_HAL_Driver/Src/stm32l4xx_hal_uart_ex.c ****       {
 976:../03_Drivers/STM32L4xx_HAL_Driver/Src/stm32l4xx_hal_uart_ex.c ****         /* In case of errors already pending when reception is started,
 977:../03_Drivers/STM32L4xx_HAL_Driver/Src/stm32l4xx_hal_uart_ex.c ****            Interrupts may have already been raised and lead to reception abortion.
 978:../03_Drivers/STM32L4xx_HAL_Driver/Src/stm32l4xx_hal_uart_ex.c ****            (Overrun error for instance).
 979:../03_Drivers/STM32L4xx_HAL_Driver/Src/stm32l4xx_hal_uart_ex.c ****            In such case Reception Type has been reset to HAL_UART_RECEPTION_STANDARD. */
 980:../03_Drivers/STM32L4xx_HAL_Driver/Src/stm32l4xx_hal_uart_ex.c ****         status = HAL_ERROR;
 981:../03_Drivers/STM32L4xx_HAL_Driver/Src/stm32l4xx_hal_uart_ex.c ****       }
 982:../03_Drivers/STM32L4xx_HAL_Driver/Src/stm32l4xx_hal_uart_ex.c ****     }
 983:../03_Drivers/STM32L4xx_HAL_Driver/Src/stm32l4xx_hal_uart_ex.c **** 
 984:../03_Drivers/STM32L4xx_HAL_Driver/Src/stm32l4xx_hal_uart_ex.c ****     return status;
 985:../03_Drivers/STM32L4xx_HAL_Driver/Src/stm32l4xx_hal_uart_ex.c ****   }
 986:../03_Drivers/STM32L4xx_HAL_Driver/Src/stm32l4xx_hal_uart_ex.c ****   else
 987:../03_Drivers/STM32L4xx_HAL_Driver/Src/stm32l4xx_hal_uart_ex.c ****   {
 988:../03_Drivers/STM32L4xx_HAL_Driver/Src/stm32l4xx_hal_uart_ex.c ****     return HAL_BUSY;
ARM GAS  C:\Users\minde\AppData\Local\Temp\ccUwUXx6.s 			page 19


 989:../03_Drivers/STM32L4xx_HAL_Driver/Src/stm32l4xx_hal_uart_ex.c ****   }
 990:../03_Drivers/STM32L4xx_HAL_Driver/Src/stm32l4xx_hal_uart_ex.c **** }
 991:../03_Drivers/STM32L4xx_HAL_Driver/Src/stm32l4xx_hal_uart_ex.c **** 
 992:../03_Drivers/STM32L4xx_HAL_Driver/Src/stm32l4xx_hal_uart_ex.c **** /**
 993:../03_Drivers/STM32L4xx_HAL_Driver/Src/stm32l4xx_hal_uart_ex.c ****   * @}
 994:../03_Drivers/STM32L4xx_HAL_Driver/Src/stm32l4xx_hal_uart_ex.c ****   */
 995:../03_Drivers/STM32L4xx_HAL_Driver/Src/stm32l4xx_hal_uart_ex.c **** 
 996:../03_Drivers/STM32L4xx_HAL_Driver/Src/stm32l4xx_hal_uart_ex.c **** /**
 997:../03_Drivers/STM32L4xx_HAL_Driver/Src/stm32l4xx_hal_uart_ex.c ****   * @}
 998:../03_Drivers/STM32L4xx_HAL_Driver/Src/stm32l4xx_hal_uart_ex.c ****   */
 999:../03_Drivers/STM32L4xx_HAL_Driver/Src/stm32l4xx_hal_uart_ex.c **** 
1000:../03_Drivers/STM32L4xx_HAL_Driver/Src/stm32l4xx_hal_uart_ex.c **** /** @addtogroup UARTEx_Private_Functions
1001:../03_Drivers/STM32L4xx_HAL_Driver/Src/stm32l4xx_hal_uart_ex.c ****   * @{
1002:../03_Drivers/STM32L4xx_HAL_Driver/Src/stm32l4xx_hal_uart_ex.c ****   */
1003:../03_Drivers/STM32L4xx_HAL_Driver/Src/stm32l4xx_hal_uart_ex.c **** 
1004:../03_Drivers/STM32L4xx_HAL_Driver/Src/stm32l4xx_hal_uart_ex.c **** /**
1005:../03_Drivers/STM32L4xx_HAL_Driver/Src/stm32l4xx_hal_uart_ex.c ****   * @brief Initialize the UART wake-up from stop mode parameters when triggered by address detectio
1006:../03_Drivers/STM32L4xx_HAL_Driver/Src/stm32l4xx_hal_uart_ex.c ****   * @param huart           UART handle.
1007:../03_Drivers/STM32L4xx_HAL_Driver/Src/stm32l4xx_hal_uart_ex.c ****   * @param WakeUpSelection UART wake up from stop mode parameters.
1008:../03_Drivers/STM32L4xx_HAL_Driver/Src/stm32l4xx_hal_uart_ex.c ****   * @retval None
1009:../03_Drivers/STM32L4xx_HAL_Driver/Src/stm32l4xx_hal_uart_ex.c ****   */
1010:../03_Drivers/STM32L4xx_HAL_Driver/Src/stm32l4xx_hal_uart_ex.c **** static void UARTEx_Wakeup_AddressConfig(UART_HandleTypeDef *huart, UART_WakeUpTypeDef WakeUpSelecti
1011:../03_Drivers/STM32L4xx_HAL_Driver/Src/stm32l4xx_hal_uart_ex.c **** {
  34              		.loc 1 1011 1 view -0
  35              		.cfi_startproc
  36              		@ args = 0, pretend = 0, frame = 8
  37              		@ frame_needed = 0, uses_anonymous_args = 0
  38              		.loc 1 1011 1 is_stmt 0 view .LVU1
  39 0000 30B5     		push	{r4, r5, lr}
  40              	.LCFI0:
  41              		.cfi_def_cfa_offset 12
  42              		.cfi_offset 4, -12
  43              		.cfi_offset 5, -8
  44              		.cfi_offset 14, -4
  45 0002 83B0     		sub	sp, sp, #12
  46              	.LCFI1:
  47              		.cfi_def_cfa_offset 24
  48 0004 0446     		mov	r4, r0
  49 0006 02AB     		add	r3, sp, #8
  50 0008 03E90600 		stmdb	r3, {r1, r2}
1012:../03_Drivers/STM32L4xx_HAL_Driver/Src/stm32l4xx_hal_uart_ex.c ****   assert_param(IS_UART_ADDRESSLENGTH_DETECT(WakeUpSelection.AddressLength));
  51              		.loc 1 1012 3 is_stmt 1 view .LVU2
  52 000c BDF80450 		ldrh	r5, [sp, #4]
  53 0010 0DB1     		cbz	r5, .L2
  54              		.loc 1 1012 3 is_stmt 0 discriminator 1 view .LVU3
  55 0012 102D     		cmp	r5, #16
  56 0014 10D1     		bne	.L4
  57              	.LVL1:
  58              	.L2:
1013:../03_Drivers/STM32L4xx_HAL_Driver/Src/stm32l4xx_hal_uart_ex.c **** 
1014:../03_Drivers/STM32L4xx_HAL_Driver/Src/stm32l4xx_hal_uart_ex.c ****   /* Set the USART address length */
1015:../03_Drivers/STM32L4xx_HAL_Driver/Src/stm32l4xx_hal_uart_ex.c ****   MODIFY_REG(huart->Instance->CR2, USART_CR2_ADDM7, WakeUpSelection.AddressLength);
  59              		.loc 1 1015 3 is_stmt 1 view .LVU4
  60 0016 2268     		ldr	r2, [r4]
  61 0018 5368     		ldr	r3, [r2, #4]
  62 001a 23F01003 		bic	r3, r3, #16
  63 001e 2B43     		orrs	r3, r3, r5
ARM GAS  C:\Users\minde\AppData\Local\Temp\ccUwUXx6.s 			page 20


  64 0020 5360     		str	r3, [r2, #4]
1016:../03_Drivers/STM32L4xx_HAL_Driver/Src/stm32l4xx_hal_uart_ex.c **** 
1017:../03_Drivers/STM32L4xx_HAL_Driver/Src/stm32l4xx_hal_uart_ex.c ****   /* Set the USART address node */
1018:../03_Drivers/STM32L4xx_HAL_Driver/Src/stm32l4xx_hal_uart_ex.c ****   MODIFY_REG(huart->Instance->CR2, USART_CR2_ADD, ((uint32_t)WakeUpSelection.Address << UART_CR2_AD
  65              		.loc 1 1018 3 view .LVU5
  66 0022 2268     		ldr	r2, [r4]
  67 0024 5368     		ldr	r3, [r2, #4]
  68 0026 23F07F43 		bic	r3, r3, #-16777216
  69 002a 9DF80610 		ldrb	r1, [sp, #6]	@ zero_extendqisi2
  70 002e 43EA0163 		orr	r3, r3, r1, lsl #24
  71 0032 5360     		str	r3, [r2, #4]
1019:../03_Drivers/STM32L4xx_HAL_Driver/Src/stm32l4xx_hal_uart_ex.c **** }
  72              		.loc 1 1019 1 is_stmt 0 view .LVU6
  73 0034 03B0     		add	sp, sp, #12
  74              	.LCFI2:
  75              		.cfi_remember_state
  76              		.cfi_def_cfa_offset 12
  77              		@ sp needed
  78 0036 30BD     		pop	{r4, r5, pc}
  79              	.LVL2:
  80              	.L4:
  81              	.LCFI3:
  82              		.cfi_restore_state
1012:../03_Drivers/STM32L4xx_HAL_Driver/Src/stm32l4xx_hal_uart_ex.c **** 
  83              		.loc 1 1012 3 discriminator 2 view .LVU7
  84 0038 4FF47D71 		mov	r1, #1012
  85 003c 0148     		ldr	r0, .L5
  86              	.LVL3:
1012:../03_Drivers/STM32L4xx_HAL_Driver/Src/stm32l4xx_hal_uart_ex.c **** 
  87              		.loc 1 1012 3 discriminator 2 view .LVU8
  88 003e FFF7FEFF 		bl	assert_failed
  89              	.LVL4:
  90 0042 E8E7     		b	.L2
  91              	.L6:
  92              		.align	2
  93              	.L5:
  94 0044 00000000 		.word	.LC0
  95              		.cfi_endproc
  96              	.LFE299:
  98              		.section	.text.HAL_RS485Ex_Init,"ax",%progbits
  99              		.align	1
 100              		.global	HAL_RS485Ex_Init
 101              		.syntax unified
 102              		.thumb
 103              		.thumb_func
 104              		.fpu fpv4-sp-d16
 106              	HAL_RS485Ex_Init:
 107              	.LVL5:
 108              	.LFB288:
 172:../03_Drivers/STM32L4xx_HAL_Driver/Src/stm32l4xx_hal_uart_ex.c ****   uint32_t temp;
 109              		.loc 1 172 1 is_stmt 1 view -0
 110              		.cfi_startproc
 111              		@ args = 0, pretend = 0, frame = 0
 112              		@ frame_needed = 0, uses_anonymous_args = 0
 173:../03_Drivers/STM32L4xx_HAL_Driver/Src/stm32l4xx_hal_uart_ex.c **** 
 113              		.loc 1 173 3 view .LVU10
 176:../03_Drivers/STM32L4xx_HAL_Driver/Src/stm32l4xx_hal_uart_ex.c ****   {
ARM GAS  C:\Users\minde\AppData\Local\Temp\ccUwUXx6.s 			page 21


 114              		.loc 1 176 3 view .LVU11
 176:../03_Drivers/STM32L4xx_HAL_Driver/Src/stm32l4xx_hal_uart_ex.c ****   {
 115              		.loc 1 176 6 is_stmt 0 view .LVU12
 116 0000 0028     		cmp	r0, #0
 117 0002 66D0     		beq	.L15
 172:../03_Drivers/STM32L4xx_HAL_Driver/Src/stm32l4xx_hal_uart_ex.c ****   uint32_t temp;
 118              		.loc 1 172 1 view .LVU13
 119 0004 F8B5     		push	{r3, r4, r5, r6, r7, lr}
 120              	.LCFI4:
 121              		.cfi_def_cfa_offset 24
 122              		.cfi_offset 3, -24
 123              		.cfi_offset 4, -20
 124              		.cfi_offset 5, -16
 125              		.cfi_offset 6, -12
 126              		.cfi_offset 7, -8
 127              		.cfi_offset 14, -4
 128 0006 0E46     		mov	r6, r1
 129 0008 1746     		mov	r7, r2
 130 000a 1D46     		mov	r5, r3
 131 000c 0446     		mov	r4, r0
 181:../03_Drivers/STM32L4xx_HAL_Driver/Src/stm32l4xx_hal_uart_ex.c **** 
 132              		.loc 1 181 3 is_stmt 1 view .LVU14
 133 000e 0368     		ldr	r3, [r0]
 134              	.LVL6:
 181:../03_Drivers/STM32L4xx_HAL_Driver/Src/stm32l4xx_hal_uart_ex.c **** 
 135              		.loc 1 181 3 is_stmt 0 view .LVU15
 136 0010 314A     		ldr	r2, .L25
 137              	.LVL7:
 181:../03_Drivers/STM32L4xx_HAL_Driver/Src/stm32l4xx_hal_uart_ex.c **** 
 138              		.loc 1 181 3 view .LVU16
 139 0012 9342     		cmp	r3, r2
 140 0014 0BD0     		beq	.L9
 181:../03_Drivers/STM32L4xx_HAL_Driver/Src/stm32l4xx_hal_uart_ex.c **** 
 141              		.loc 1 181 3 discriminator 1 view .LVU17
 142 0016 A2F57442 		sub	r2, r2, #62464
 143 001a 9342     		cmp	r3, r2
 144 001c 07D0     		beq	.L9
 181:../03_Drivers/STM32L4xx_HAL_Driver/Src/stm32l4xx_hal_uart_ex.c **** 
 145              		.loc 1 181 3 discriminator 2 view .LVU18
 146 001e 02F57052 		add	r2, r2, #15360
 147 0022 9342     		cmp	r3, r2
 148 0024 03D0     		beq	.L9
 181:../03_Drivers/STM32L4xx_HAL_Driver/Src/stm32l4xx_hal_uart_ex.c **** 
 149              		.loc 1 181 3 discriminator 3 view .LVU19
 150 0026 B521     		movs	r1, #181
 151              	.LVL8:
 181:../03_Drivers/STM32L4xx_HAL_Driver/Src/stm32l4xx_hal_uart_ex.c **** 
 152              		.loc 1 181 3 discriminator 3 view .LVU20
 153 0028 2C48     		ldr	r0, .L25+4
 154              	.LVL9:
 181:../03_Drivers/STM32L4xx_HAL_Driver/Src/stm32l4xx_hal_uart_ex.c **** 
 155              		.loc 1 181 3 discriminator 3 view .LVU21
 156 002a FFF7FEFF 		bl	assert_failed
 157              	.LVL10:
 158              	.L9:
 184:../03_Drivers/STM32L4xx_HAL_Driver/Src/stm32l4xx_hal_uart_ex.c **** 
 159              		.loc 1 184 3 is_stmt 1 view .LVU22
ARM GAS  C:\Users\minde\AppData\Local\Temp\ccUwUXx6.s 			page 22


 160 002e 16B1     		cbz	r6, .L10
 184:../03_Drivers/STM32L4xx_HAL_Driver/Src/stm32l4xx_hal_uart_ex.c **** 
 161              		.loc 1 184 3 is_stmt 0 discriminator 1 view .LVU23
 162 0030 B6F5004F 		cmp	r6, #32768
 163 0034 34D1     		bne	.L20
 164              	.L10:
 187:../03_Drivers/STM32L4xx_HAL_Driver/Src/stm32l4xx_hal_uart_ex.c **** 
 165              		.loc 1 187 3 is_stmt 1 view .LVU24
 166 0036 1F2F     		cmp	r7, #31
 167 0038 37D8     		bhi	.L21
 168              	.L11:
 190:../03_Drivers/STM32L4xx_HAL_Driver/Src/stm32l4xx_hal_uart_ex.c **** 
 169              		.loc 1 190 3 view .LVU25
 170 003a 1F2D     		cmp	r5, #31
 171 003c 3AD8     		bhi	.L22
 172              	.L12:
 192:../03_Drivers/STM32L4xx_HAL_Driver/Src/stm32l4xx_hal_uart_ex.c ****   {
 173              		.loc 1 192 3 view .LVU26
 192:../03_Drivers/STM32L4xx_HAL_Driver/Src/stm32l4xx_hal_uart_ex.c ****   {
 174              		.loc 1 192 12 is_stmt 0 view .LVU27
 175 003e A36F     		ldr	r3, [r4, #120]
 192:../03_Drivers/STM32L4xx_HAL_Driver/Src/stm32l4xx_hal_uart_ex.c ****   {
 176              		.loc 1 192 6 view .LVU28
 177 0040 002B     		cmp	r3, #0
 178 0042 3CD0     		beq	.L23
 179              	.L13:
 213:../03_Drivers/STM32L4xx_HAL_Driver/Src/stm32l4xx_hal_uart_ex.c **** 
 180              		.loc 1 213 3 is_stmt 1 view .LVU29
 213:../03_Drivers/STM32L4xx_HAL_Driver/Src/stm32l4xx_hal_uart_ex.c **** 
 181              		.loc 1 213 17 is_stmt 0 view .LVU30
 182 0044 2423     		movs	r3, #36
 183 0046 A367     		str	r3, [r4, #120]
 216:../03_Drivers/STM32L4xx_HAL_Driver/Src/stm32l4xx_hal_uart_ex.c **** 
 184              		.loc 1 216 3 is_stmt 1 view .LVU31
 185 0048 2268     		ldr	r2, [r4]
 186 004a 1368     		ldr	r3, [r2]
 187 004c 23F00103 		bic	r3, r3, #1
 188 0050 1360     		str	r3, [r2]
 219:../03_Drivers/STM32L4xx_HAL_Driver/Src/stm32l4xx_hal_uart_ex.c ****   {
 189              		.loc 1 219 3 view .LVU32
 219:../03_Drivers/STM32L4xx_HAL_Driver/Src/stm32l4xx_hal_uart_ex.c ****   {
 190              		.loc 1 219 7 is_stmt 0 view .LVU33
 191 0052 2046     		mov	r0, r4
 192 0054 FFF7FEFF 		bl	UART_SetConfig
 193              	.LVL11:
 219:../03_Drivers/STM32L4xx_HAL_Driver/Src/stm32l4xx_hal_uart_ex.c ****   {
 194              		.loc 1 219 6 view .LVU34
 195 0058 0128     		cmp	r0, #1
 196 005a 20D0     		beq	.L8
 224:../03_Drivers/STM32L4xx_HAL_Driver/Src/stm32l4xx_hal_uart_ex.c ****   {
 197              		.loc 1 224 3 is_stmt 1 view .LVU35
 224:../03_Drivers/STM32L4xx_HAL_Driver/Src/stm32l4xx_hal_uart_ex.c ****   {
 198              		.loc 1 224 26 is_stmt 0 view .LVU36
 199 005c 636A     		ldr	r3, [r4, #36]
 224:../03_Drivers/STM32L4xx_HAL_Driver/Src/stm32l4xx_hal_uart_ex.c ****   {
 200              		.loc 1 224 6 view .LVU37
 201 005e 002B     		cmp	r3, #0
ARM GAS  C:\Users\minde\AppData\Local\Temp\ccUwUXx6.s 			page 23


 202 0060 33D1     		bne	.L24
 203              	.L14:
 230:../03_Drivers/STM32L4xx_HAL_Driver/Src/stm32l4xx_hal_uart_ex.c **** 
 204              		.loc 1 230 3 is_stmt 1 view .LVU38
 205 0062 2268     		ldr	r2, [r4]
 206 0064 9368     		ldr	r3, [r2, #8]
 207 0066 43F48043 		orr	r3, r3, #16384
 208 006a 9360     		str	r3, [r2, #8]
 233:../03_Drivers/STM32L4xx_HAL_Driver/Src/stm32l4xx_hal_uart_ex.c **** 
 209              		.loc 1 233 3 view .LVU39
 210 006c 2368     		ldr	r3, [r4]
 211 006e 9968     		ldr	r1, [r3, #8]
 212 0070 21F40041 		bic	r1, r1, #32768
 213 0074 0E43     		orrs	r6, r6, r1
 214              	.LVL12:
 233:../03_Drivers/STM32L4xx_HAL_Driver/Src/stm32l4xx_hal_uart_ex.c **** 
 215              		.loc 1 233 3 is_stmt 0 view .LVU40
 216 0076 9E60     		str	r6, [r3, #8]
 236:../03_Drivers/STM32L4xx_HAL_Driver/Src/stm32l4xx_hal_uart_ex.c ****   temp |= (DeassertionTime << UART_CR1_DEDT_ADDRESS_LSB_POS);
 217              		.loc 1 236 3 is_stmt 1 view .LVU41
 218              	.LVL13:
 237:../03_Drivers/STM32L4xx_HAL_Driver/Src/stm32l4xx_hal_uart_ex.c ****   MODIFY_REG(huart->Instance->CR1, (USART_CR1_DEDT | USART_CR1_DEAT), temp);
 219              		.loc 1 237 3 view .LVU42
 237:../03_Drivers/STM32L4xx_HAL_Driver/Src/stm32l4xx_hal_uart_ex.c ****   MODIFY_REG(huart->Instance->CR1, (USART_CR1_DEDT | USART_CR1_DEAT), temp);
 220              		.loc 1 237 28 is_stmt 0 view .LVU43
 221 0078 2D04     		lsls	r5, r5, #16
 222              	.LVL14:
 237:../03_Drivers/STM32L4xx_HAL_Driver/Src/stm32l4xx_hal_uart_ex.c ****   MODIFY_REG(huart->Instance->CR1, (USART_CR1_DEDT | USART_CR1_DEAT), temp);
 223              		.loc 1 237 8 view .LVU44
 224 007a 45EA4755 		orr	r5, r5, r7, lsl #21
 225              	.LVL15:
 238:../03_Drivers/STM32L4xx_HAL_Driver/Src/stm32l4xx_hal_uart_ex.c **** 
 226              		.loc 1 238 3 is_stmt 1 view .LVU45
 227 007e 2368     		ldr	r3, [r4]
 228 0080 1A68     		ldr	r2, [r3]
 229 0082 22F07F72 		bic	r2, r2, #66846720
 230 0086 22F44032 		bic	r2, r2, #196608
 231 008a 2A43     		orrs	r2, r2, r5
 232 008c 1A60     		str	r2, [r3]
 241:../03_Drivers/STM32L4xx_HAL_Driver/Src/stm32l4xx_hal_uart_ex.c **** 
 233              		.loc 1 241 3 view .LVU46
 234 008e 2268     		ldr	r2, [r4]
 235 0090 1368     		ldr	r3, [r2]
 236 0092 43F00103 		orr	r3, r3, #1
 237 0096 1360     		str	r3, [r2]
 244:../03_Drivers/STM32L4xx_HAL_Driver/Src/stm32l4xx_hal_uart_ex.c **** }
 238              		.loc 1 244 3 view .LVU47
 244:../03_Drivers/STM32L4xx_HAL_Driver/Src/stm32l4xx_hal_uart_ex.c **** }
 239              		.loc 1 244 11 is_stmt 0 view .LVU48
 240 0098 2046     		mov	r0, r4
 241 009a FFF7FEFF 		bl	UART_CheckIdleState
 242              	.LVL16:
 243              	.L8:
 245:../03_Drivers/STM32L4xx_HAL_Driver/Src/stm32l4xx_hal_uart_ex.c **** 
 244              		.loc 1 245 1 view .LVU49
 245 009e F8BD     		pop	{r3, r4, r5, r6, r7, pc}
 246              	.LVL17:
ARM GAS  C:\Users\minde\AppData\Local\Temp\ccUwUXx6.s 			page 24


 247              	.L20:
 184:../03_Drivers/STM32L4xx_HAL_Driver/Src/stm32l4xx_hal_uart_ex.c **** 
 248              		.loc 1 184 3 discriminator 2 view .LVU50
 249 00a0 B821     		movs	r1, #184
 250 00a2 0E48     		ldr	r0, .L25+4
 251 00a4 FFF7FEFF 		bl	assert_failed
 252              	.LVL18:
 253 00a8 C5E7     		b	.L10
 254              	.L21:
 187:../03_Drivers/STM32L4xx_HAL_Driver/Src/stm32l4xx_hal_uart_ex.c **** 
 255              		.loc 1 187 3 discriminator 1 view .LVU51
 256 00aa BB21     		movs	r1, #187
 257 00ac 0B48     		ldr	r0, .L25+4
 258 00ae FFF7FEFF 		bl	assert_failed
 259              	.LVL19:
 260 00b2 C2E7     		b	.L11
 261              	.L22:
 190:../03_Drivers/STM32L4xx_HAL_Driver/Src/stm32l4xx_hal_uart_ex.c **** 
 262              		.loc 1 190 3 discriminator 1 view .LVU52
 263 00b4 BE21     		movs	r1, #190
 264 00b6 0948     		ldr	r0, .L25+4
 265 00b8 FFF7FEFF 		bl	assert_failed
 266              	.LVL20:
 267 00bc BFE7     		b	.L12
 268              	.L23:
 195:../03_Drivers/STM32L4xx_HAL_Driver/Src/stm32l4xx_hal_uart_ex.c **** 
 269              		.loc 1 195 5 is_stmt 1 view .LVU53
 195:../03_Drivers/STM32L4xx_HAL_Driver/Src/stm32l4xx_hal_uart_ex.c **** 
 270              		.loc 1 195 17 is_stmt 0 view .LVU54
 271 00be 84F87430 		strb	r3, [r4, #116]
 209:../03_Drivers/STM32L4xx_HAL_Driver/Src/stm32l4xx_hal_uart_ex.c **** #endif /* (USE_HAL_UART_REGISTER_CALLBACKS) */
 272              		.loc 1 209 5 is_stmt 1 view .LVU55
 273 00c2 2046     		mov	r0, r4
 274 00c4 FFF7FEFF 		bl	HAL_UART_MspInit
 275              	.LVL21:
 276 00c8 BCE7     		b	.L13
 277              	.L24:
 226:../03_Drivers/STM32L4xx_HAL_Driver/Src/stm32l4xx_hal_uart_ex.c ****   }
 278              		.loc 1 226 5 view .LVU56
 279 00ca 2046     		mov	r0, r4
 280 00cc FFF7FEFF 		bl	UART_AdvFeatureConfig
 281              	.LVL22:
 282 00d0 C7E7     		b	.L14
 283              	.LVL23:
 284              	.L15:
 285              	.LCFI5:
 286              		.cfi_def_cfa_offset 0
 287              		.cfi_restore 3
 288              		.cfi_restore 4
 289              		.cfi_restore 5
 290              		.cfi_restore 6
 291              		.cfi_restore 7
 292              		.cfi_restore 14
 178:../03_Drivers/STM32L4xx_HAL_Driver/Src/stm32l4xx_hal_uart_ex.c ****   }
 293              		.loc 1 178 12 is_stmt 0 view .LVU57
 294 00d2 0120     		movs	r0, #1
 295              	.LVL24:
ARM GAS  C:\Users\minde\AppData\Local\Temp\ccUwUXx6.s 			page 25


 245:../03_Drivers/STM32L4xx_HAL_Driver/Src/stm32l4xx_hal_uart_ex.c **** 
 296              		.loc 1 245 1 view .LVU58
 297 00d4 7047     		bx	lr
 298              	.L26:
 299 00d6 00BF     		.align	2
 300              	.L25:
 301 00d8 00380140 		.word	1073821696
 302 00dc 00000000 		.word	.LC0
 303              		.cfi_endproc
 304              	.LFE288:
 306              		.section	.text.HAL_UARTEx_WakeupCallback,"ax",%progbits
 307              		.align	1
 308              		.weak	HAL_UARTEx_WakeupCallback
 309              		.syntax unified
 310              		.thumb
 311              		.thumb_func
 312              		.fpu fpv4-sp-d16
 314              	HAL_UARTEx_WakeupCallback:
 315              	.LVL25:
 316              	.LFB289:
 277:../03_Drivers/STM32L4xx_HAL_Driver/Src/stm32l4xx_hal_uart_ex.c ****   /* Prevent unused argument(s) compilation warning */
 317              		.loc 1 277 1 is_stmt 1 view -0
 318              		.cfi_startproc
 319              		@ args = 0, pretend = 0, frame = 0
 320              		@ frame_needed = 0, uses_anonymous_args = 0
 321              		@ link register save eliminated.
 279:../03_Drivers/STM32L4xx_HAL_Driver/Src/stm32l4xx_hal_uart_ex.c **** 
 322              		.loc 1 279 3 view .LVU60
 284:../03_Drivers/STM32L4xx_HAL_Driver/Src/stm32l4xx_hal_uart_ex.c **** 
 323              		.loc 1 284 1 is_stmt 0 view .LVU61
 324 0000 7047     		bx	lr
 325              		.cfi_endproc
 326              	.LFE289:
 328              		.section	.text.HAL_UARTEx_EnableClockStopMode,"ax",%progbits
 329              		.align	1
 330              		.global	HAL_UARTEx_EnableClockStopMode
 331              		.syntax unified
 332              		.thumb
 333              		.thumb_func
 334              		.fpu fpv4-sp-d16
 336              	HAL_UARTEx_EnableClockStopMode:
 337              	.LVL26:
 338              	.LFB290:
 393:../03_Drivers/STM32L4xx_HAL_Driver/Src/stm32l4xx_hal_uart_ex.c ****   /* Process Locked */
 339              		.loc 1 393 1 is_stmt 1 view -0
 340              		.cfi_startproc
 341              		@ args = 0, pretend = 0, frame = 0
 342              		@ frame_needed = 0, uses_anonymous_args = 0
 343              		@ link register save eliminated.
 395:../03_Drivers/STM32L4xx_HAL_Driver/Src/stm32l4xx_hal_uart_ex.c **** 
 344              		.loc 1 395 3 view .LVU63
 395:../03_Drivers/STM32L4xx_HAL_Driver/Src/stm32l4xx_hal_uart_ex.c **** 
 345              		.loc 1 395 3 view .LVU64
 346 0000 90F87430 		ldrb	r3, [r0, #116]	@ zero_extendqisi2
 347 0004 012B     		cmp	r3, #1
 348 0006 0CD0     		beq	.L30
 395:../03_Drivers/STM32L4xx_HAL_Driver/Src/stm32l4xx_hal_uart_ex.c **** 
ARM GAS  C:\Users\minde\AppData\Local\Temp\ccUwUXx6.s 			page 26


 349              		.loc 1 395 3 discriminator 2 view .LVU65
 350 0008 0123     		movs	r3, #1
 351 000a 80F87430 		strb	r3, [r0, #116]
 395:../03_Drivers/STM32L4xx_HAL_Driver/Src/stm32l4xx_hal_uart_ex.c **** 
 352              		.loc 1 395 3 discriminator 2 view .LVU66
 398:../03_Drivers/STM32L4xx_HAL_Driver/Src/stm32l4xx_hal_uart_ex.c **** 
 353              		.loc 1 398 3 discriminator 2 view .LVU67
 354 000e 0268     		ldr	r2, [r0]
 355 0010 9368     		ldr	r3, [r2, #8]
 356 0012 43F40003 		orr	r3, r3, #8388608
 357 0016 9360     		str	r3, [r2, #8]
 401:../03_Drivers/STM32L4xx_HAL_Driver/Src/stm32l4xx_hal_uart_ex.c **** 
 358              		.loc 1 401 3 discriminator 2 view .LVU68
 401:../03_Drivers/STM32L4xx_HAL_Driver/Src/stm32l4xx_hal_uart_ex.c **** 
 359              		.loc 1 401 3 discriminator 2 view .LVU69
 360 0018 0023     		movs	r3, #0
 361 001a 80F87430 		strb	r3, [r0, #116]
 401:../03_Drivers/STM32L4xx_HAL_Driver/Src/stm32l4xx_hal_uart_ex.c **** 
 362              		.loc 1 401 3 discriminator 2 view .LVU70
 403:../03_Drivers/STM32L4xx_HAL_Driver/Src/stm32l4xx_hal_uart_ex.c **** }
 363              		.loc 1 403 3 discriminator 2 view .LVU71
 403:../03_Drivers/STM32L4xx_HAL_Driver/Src/stm32l4xx_hal_uart_ex.c **** }
 364              		.loc 1 403 10 is_stmt 0 discriminator 2 view .LVU72
 365 001e 1846     		mov	r0, r3
 366              	.LVL27:
 403:../03_Drivers/STM32L4xx_HAL_Driver/Src/stm32l4xx_hal_uart_ex.c **** }
 367              		.loc 1 403 10 discriminator 2 view .LVU73
 368 0020 7047     		bx	lr
 369              	.LVL28:
 370              	.L30:
 395:../03_Drivers/STM32L4xx_HAL_Driver/Src/stm32l4xx_hal_uart_ex.c **** 
 371              		.loc 1 395 3 view .LVU74
 372 0022 0220     		movs	r0, #2
 373              	.LVL29:
 404:../03_Drivers/STM32L4xx_HAL_Driver/Src/stm32l4xx_hal_uart_ex.c **** 
 374              		.loc 1 404 1 view .LVU75
 375 0024 7047     		bx	lr
 376              		.cfi_endproc
 377              	.LFE290:
 379              		.section	.text.HAL_UARTEx_DisableClockStopMode,"ax",%progbits
 380              		.align	1
 381              		.global	HAL_UARTEx_DisableClockStopMode
 382              		.syntax unified
 383              		.thumb
 384              		.thumb_func
 385              		.fpu fpv4-sp-d16
 387              	HAL_UARTEx_DisableClockStopMode:
 388              	.LVL30:
 389              	.LFB291:
 412:../03_Drivers/STM32L4xx_HAL_Driver/Src/stm32l4xx_hal_uart_ex.c ****   /* Process Locked */
 390              		.loc 1 412 1 is_stmt 1 view -0
 391              		.cfi_startproc
 392              		@ args = 0, pretend = 0, frame = 0
 393              		@ frame_needed = 0, uses_anonymous_args = 0
 394              		@ link register save eliminated.
 414:../03_Drivers/STM32L4xx_HAL_Driver/Src/stm32l4xx_hal_uart_ex.c **** 
 395              		.loc 1 414 3 view .LVU77
ARM GAS  C:\Users\minde\AppData\Local\Temp\ccUwUXx6.s 			page 27


 414:../03_Drivers/STM32L4xx_HAL_Driver/Src/stm32l4xx_hal_uart_ex.c **** 
 396              		.loc 1 414 3 view .LVU78
 397 0000 90F87430 		ldrb	r3, [r0, #116]	@ zero_extendqisi2
 398 0004 012B     		cmp	r3, #1
 399 0006 0CD0     		beq	.L33
 414:../03_Drivers/STM32L4xx_HAL_Driver/Src/stm32l4xx_hal_uart_ex.c **** 
 400              		.loc 1 414 3 discriminator 2 view .LVU79
 401 0008 0123     		movs	r3, #1
 402 000a 80F87430 		strb	r3, [r0, #116]
 414:../03_Drivers/STM32L4xx_HAL_Driver/Src/stm32l4xx_hal_uart_ex.c **** 
 403              		.loc 1 414 3 discriminator 2 view .LVU80
 417:../03_Drivers/STM32L4xx_HAL_Driver/Src/stm32l4xx_hal_uart_ex.c **** 
 404              		.loc 1 417 3 discriminator 2 view .LVU81
 405 000e 0268     		ldr	r2, [r0]
 406 0010 9368     		ldr	r3, [r2, #8]
 407 0012 23F40003 		bic	r3, r3, #8388608
 408 0016 9360     		str	r3, [r2, #8]
 420:../03_Drivers/STM32L4xx_HAL_Driver/Src/stm32l4xx_hal_uart_ex.c **** 
 409              		.loc 1 420 3 discriminator 2 view .LVU82
 420:../03_Drivers/STM32L4xx_HAL_Driver/Src/stm32l4xx_hal_uart_ex.c **** 
 410              		.loc 1 420 3 discriminator 2 view .LVU83
 411 0018 0023     		movs	r3, #0
 412 001a 80F87430 		strb	r3, [r0, #116]
 420:../03_Drivers/STM32L4xx_HAL_Driver/Src/stm32l4xx_hal_uart_ex.c **** 
 413              		.loc 1 420 3 discriminator 2 view .LVU84
 422:../03_Drivers/STM32L4xx_HAL_Driver/Src/stm32l4xx_hal_uart_ex.c **** }
 414              		.loc 1 422 3 discriminator 2 view .LVU85
 422:../03_Drivers/STM32L4xx_HAL_Driver/Src/stm32l4xx_hal_uart_ex.c **** }
 415              		.loc 1 422 10 is_stmt 0 discriminator 2 view .LVU86
 416 001e 1846     		mov	r0, r3
 417              	.LVL31:
 422:../03_Drivers/STM32L4xx_HAL_Driver/Src/stm32l4xx_hal_uart_ex.c **** }
 418              		.loc 1 422 10 discriminator 2 view .LVU87
 419 0020 7047     		bx	lr
 420              	.LVL32:
 421              	.L33:
 414:../03_Drivers/STM32L4xx_HAL_Driver/Src/stm32l4xx_hal_uart_ex.c **** 
 422              		.loc 1 414 3 view .LVU88
 423 0022 0220     		movs	r0, #2
 424              	.LVL33:
 423:../03_Drivers/STM32L4xx_HAL_Driver/Src/stm32l4xx_hal_uart_ex.c **** 
 425              		.loc 1 423 1 view .LVU89
 426 0024 7047     		bx	lr
 427              		.cfi_endproc
 428              	.LFE291:
 430              		.section	.text.HAL_MultiProcessorEx_AddressLength_Set,"ax",%progbits
 431              		.align	1
 432              		.global	HAL_MultiProcessorEx_AddressLength_Set
 433              		.syntax unified
 434              		.thumb
 435              		.thumb_func
 436              		.fpu fpv4-sp-d16
 438              	HAL_MultiProcessorEx_AddressLength_Set:
 439              	.LVL34:
 440              	.LFB292:
 440:../03_Drivers/STM32L4xx_HAL_Driver/Src/stm32l4xx_hal_uart_ex.c ****   /* Check the UART handle allocation */
 441              		.loc 1 440 1 is_stmt 1 view -0
ARM GAS  C:\Users\minde\AppData\Local\Temp\ccUwUXx6.s 			page 28


 442              		.cfi_startproc
 443              		@ args = 0, pretend = 0, frame = 0
 444              		@ frame_needed = 0, uses_anonymous_args = 0
 442:../03_Drivers/STM32L4xx_HAL_Driver/Src/stm32l4xx_hal_uart_ex.c ****   {
 445              		.loc 1 442 3 view .LVU91
 442:../03_Drivers/STM32L4xx_HAL_Driver/Src/stm32l4xx_hal_uart_ex.c ****   {
 446              		.loc 1 442 6 is_stmt 0 view .LVU92
 447 0000 08B3     		cbz	r0, .L37
 440:../03_Drivers/STM32L4xx_HAL_Driver/Src/stm32l4xx_hal_uart_ex.c ****   /* Check the UART handle allocation */
 448              		.loc 1 440 1 view .LVU93
 449 0002 38B5     		push	{r3, r4, r5, lr}
 450              	.LCFI6:
 451              		.cfi_def_cfa_offset 16
 452              		.cfi_offset 3, -16
 453              		.cfi_offset 4, -12
 454              		.cfi_offset 5, -8
 455              		.cfi_offset 14, -4
 456 0004 0D46     		mov	r5, r1
 457 0006 0446     		mov	r4, r0
 448:../03_Drivers/STM32L4xx_HAL_Driver/Src/stm32l4xx_hal_uart_ex.c **** 
 458              		.loc 1 448 3 is_stmt 1 view .LVU94
 459 0008 09B1     		cbz	r1, .L36
 448:../03_Drivers/STM32L4xx_HAL_Driver/Src/stm32l4xx_hal_uart_ex.c **** 
 460              		.loc 1 448 3 is_stmt 0 discriminator 1 view .LVU95
 461 000a 1029     		cmp	r1, #16
 462 000c 15D1     		bne	.L42
 463              	.LVL35:
 464              	.L36:
 450:../03_Drivers/STM32L4xx_HAL_Driver/Src/stm32l4xx_hal_uart_ex.c **** 
 465              		.loc 1 450 3 is_stmt 1 view .LVU96
 450:../03_Drivers/STM32L4xx_HAL_Driver/Src/stm32l4xx_hal_uart_ex.c **** 
 466              		.loc 1 450 17 is_stmt 0 view .LVU97
 467 000e 2423     		movs	r3, #36
 468 0010 A367     		str	r3, [r4, #120]
 453:../03_Drivers/STM32L4xx_HAL_Driver/Src/stm32l4xx_hal_uart_ex.c **** 
 469              		.loc 1 453 3 is_stmt 1 view .LVU98
 470 0012 2268     		ldr	r2, [r4]
 471 0014 1368     		ldr	r3, [r2]
 472 0016 23F00103 		bic	r3, r3, #1
 473 001a 1360     		str	r3, [r2]
 456:../03_Drivers/STM32L4xx_HAL_Driver/Src/stm32l4xx_hal_uart_ex.c **** 
 474              		.loc 1 456 3 view .LVU99
 475 001c 2368     		ldr	r3, [r4]
 476 001e 5968     		ldr	r1, [r3, #4]
 477 0020 21F01001 		bic	r1, r1, #16
 478 0024 0D43     		orrs	r5, r5, r1
 479              	.LVL36:
 456:../03_Drivers/STM32L4xx_HAL_Driver/Src/stm32l4xx_hal_uart_ex.c **** 
 480              		.loc 1 456 3 is_stmt 0 view .LVU100
 481 0026 5D60     		str	r5, [r3, #4]
 459:../03_Drivers/STM32L4xx_HAL_Driver/Src/stm32l4xx_hal_uart_ex.c **** 
 482              		.loc 1 459 3 is_stmt 1 view .LVU101
 483 0028 2268     		ldr	r2, [r4]
 484 002a 1368     		ldr	r3, [r2]
 485 002c 43F00103 		orr	r3, r3, #1
 486 0030 1360     		str	r3, [r2]
 462:../03_Drivers/STM32L4xx_HAL_Driver/Src/stm32l4xx_hal_uart_ex.c **** }
ARM GAS  C:\Users\minde\AppData\Local\Temp\ccUwUXx6.s 			page 29


 487              		.loc 1 462 3 view .LVU102
 462:../03_Drivers/STM32L4xx_HAL_Driver/Src/stm32l4xx_hal_uart_ex.c **** }
 488              		.loc 1 462 11 is_stmt 0 view .LVU103
 489 0032 2046     		mov	r0, r4
 490 0034 FFF7FEFF 		bl	UART_CheckIdleState
 491              	.LVL37:
 463:../03_Drivers/STM32L4xx_HAL_Driver/Src/stm32l4xx_hal_uart_ex.c **** 
 492              		.loc 1 463 1 view .LVU104
 493 0038 38BD     		pop	{r3, r4, r5, pc}
 494              	.LVL38:
 495              	.L42:
 448:../03_Drivers/STM32L4xx_HAL_Driver/Src/stm32l4xx_hal_uart_ex.c **** 
 496              		.loc 1 448 3 discriminator 2 view .LVU105
 497 003a 4FF4E071 		mov	r1, #448
 498              	.LVL39:
 448:../03_Drivers/STM32L4xx_HAL_Driver/Src/stm32l4xx_hal_uart_ex.c **** 
 499              		.loc 1 448 3 discriminator 2 view .LVU106
 500 003e 0348     		ldr	r0, .L43
 501              	.LVL40:
 448:../03_Drivers/STM32L4xx_HAL_Driver/Src/stm32l4xx_hal_uart_ex.c **** 
 502              		.loc 1 448 3 discriminator 2 view .LVU107
 503 0040 FFF7FEFF 		bl	assert_failed
 504              	.LVL41:
 505 0044 E3E7     		b	.L36
 506              	.LVL42:
 507              	.L37:
 508              	.LCFI7:
 509              		.cfi_def_cfa_offset 0
 510              		.cfi_restore 3
 511              		.cfi_restore 4
 512              		.cfi_restore 5
 513              		.cfi_restore 14
 444:../03_Drivers/STM32L4xx_HAL_Driver/Src/stm32l4xx_hal_uart_ex.c ****   }
 514              		.loc 1 444 12 view .LVU108
 515 0046 0120     		movs	r0, #1
 516              	.LVL43:
 463:../03_Drivers/STM32L4xx_HAL_Driver/Src/stm32l4xx_hal_uart_ex.c **** 
 517              		.loc 1 463 1 view .LVU109
 518 0048 7047     		bx	lr
 519              	.L44:
 520 004a 00BF     		.align	2
 521              	.L43:
 522 004c 00000000 		.word	.LC0
 523              		.cfi_endproc
 524              	.LFE292:
 526              		.section	.text.HAL_UARTEx_StopModeWakeUpSourceConfig,"ax",%progbits
 527              		.align	1
 528              		.global	HAL_UARTEx_StopModeWakeUpSourceConfig
 529              		.syntax unified
 530              		.thumb
 531              		.thumb_func
 532              		.fpu fpv4-sp-d16
 534              	HAL_UARTEx_StopModeWakeUpSourceConfig:
 535              	.LVL44:
 536              	.LFB293:
 478:../03_Drivers/STM32L4xx_HAL_Driver/Src/stm32l4xx_hal_uart_ex.c ****   HAL_StatusTypeDef status = HAL_OK;
 537              		.loc 1 478 1 is_stmt 1 view -0
ARM GAS  C:\Users\minde\AppData\Local\Temp\ccUwUXx6.s 			page 30


 538              		.cfi_startproc
 539              		@ args = 0, pretend = 0, frame = 8
 540              		@ frame_needed = 0, uses_anonymous_args = 0
 478:../03_Drivers/STM32L4xx_HAL_Driver/Src/stm32l4xx_hal_uart_ex.c ****   HAL_StatusTypeDef status = HAL_OK;
 541              		.loc 1 478 1 is_stmt 0 view .LVU111
 542 0000 30B5     		push	{r4, r5, lr}
 543              	.LCFI8:
 544              		.cfi_def_cfa_offset 12
 545              		.cfi_offset 4, -12
 546              		.cfi_offset 5, -8
 547              		.cfi_offset 14, -4
 548 0002 85B0     		sub	sp, sp, #20
 549              	.LCFI9:
 550              		.cfi_def_cfa_offset 32
 551 0004 0446     		mov	r4, r0
 552 0006 04AB     		add	r3, sp, #16
 553 0008 03E90600 		stmdb	r3, {r1, r2}
 479:../03_Drivers/STM32L4xx_HAL_Driver/Src/stm32l4xx_hal_uart_ex.c ****   uint32_t tickstart;
 554              		.loc 1 479 3 is_stmt 1 view .LVU112
 555              	.LVL45:
 480:../03_Drivers/STM32L4xx_HAL_Driver/Src/stm32l4xx_hal_uart_ex.c **** 
 556              		.loc 1 480 3 view .LVU113
 483:../03_Drivers/STM32L4xx_HAL_Driver/Src/stm32l4xx_hal_uart_ex.c ****   /* check the wake-up selection parameter */
 557              		.loc 1 483 3 view .LVU114
 558 000c 0368     		ldr	r3, [r0]
 559 000e 2B4A     		ldr	r2, .L56
 560 0010 9342     		cmp	r3, r2
 561 0012 0CD0     		beq	.L46
 483:../03_Drivers/STM32L4xx_HAL_Driver/Src/stm32l4xx_hal_uart_ex.c ****   /* check the wake-up selection parameter */
 562              		.loc 1 483 3 is_stmt 0 discriminator 1 view .LVU115
 563 0014 A2F57442 		sub	r2, r2, #62464
 564 0018 9342     		cmp	r3, r2
 565 001a 08D0     		beq	.L46
 483:../03_Drivers/STM32L4xx_HAL_Driver/Src/stm32l4xx_hal_uart_ex.c ****   /* check the wake-up selection parameter */
 566              		.loc 1 483 3 discriminator 2 view .LVU116
 567 001c 02F57052 		add	r2, r2, #15360
 568 0020 9342     		cmp	r3, r2
 569 0022 04D0     		beq	.L46
 483:../03_Drivers/STM32L4xx_HAL_Driver/Src/stm32l4xx_hal_uart_ex.c ****   /* check the wake-up selection parameter */
 570              		.loc 1 483 3 discriminator 3 view .LVU117
 571 0024 40F2E311 		movw	r1, #483
 572 0028 2548     		ldr	r0, .L56+4
 573              	.LVL46:
 483:../03_Drivers/STM32L4xx_HAL_Driver/Src/stm32l4xx_hal_uart_ex.c ****   /* check the wake-up selection parameter */
 574              		.loc 1 483 3 discriminator 3 view .LVU118
 575 002a FFF7FEFF 		bl	assert_failed
 576              	.LVL47:
 577              	.L46:
 485:../03_Drivers/STM32L4xx_HAL_Driver/Src/stm32l4xx_hal_uart_ex.c **** 
 578              		.loc 1 485 3 is_stmt 1 view .LVU119
 579 002e 029D     		ldr	r5, [sp, #8]
 580 0030 2DB1     		cbz	r5, .L47
 485:../03_Drivers/STM32L4xx_HAL_Driver/Src/stm32l4xx_hal_uart_ex.c **** 
 581              		.loc 1 485 3 is_stmt 0 discriminator 1 view .LVU120
 582 0032 B5F5001F 		cmp	r5, #2097152
 583 0036 02D0     		beq	.L47
 485:../03_Drivers/STM32L4xx_HAL_Driver/Src/stm32l4xx_hal_uart_ex.c **** 
ARM GAS  C:\Users\minde\AppData\Local\Temp\ccUwUXx6.s 			page 31


 584              		.loc 1 485 3 discriminator 2 view .LVU121
 585 0038 B5F5401F 		cmp	r5, #3145728
 586 003c 29D1     		bne	.L54
 587              	.L47:
 488:../03_Drivers/STM32L4xx_HAL_Driver/Src/stm32l4xx_hal_uart_ex.c **** 
 588              		.loc 1 488 3 is_stmt 1 view .LVU122
 488:../03_Drivers/STM32L4xx_HAL_Driver/Src/stm32l4xx_hal_uart_ex.c **** 
 589              		.loc 1 488 3 view .LVU123
 590 003e 94F87430 		ldrb	r3, [r4, #116]	@ zero_extendqisi2
 591 0042 012B     		cmp	r3, #1
 592 0044 38D0     		beq	.L51
 488:../03_Drivers/STM32L4xx_HAL_Driver/Src/stm32l4xx_hal_uart_ex.c **** 
 593              		.loc 1 488 3 discriminator 2 view .LVU124
 594 0046 0123     		movs	r3, #1
 595 0048 84F87430 		strb	r3, [r4, #116]
 488:../03_Drivers/STM32L4xx_HAL_Driver/Src/stm32l4xx_hal_uart_ex.c **** 
 596              		.loc 1 488 3 discriminator 2 view .LVU125
 490:../03_Drivers/STM32L4xx_HAL_Driver/Src/stm32l4xx_hal_uart_ex.c **** 
 597              		.loc 1 490 3 discriminator 2 view .LVU126
 490:../03_Drivers/STM32L4xx_HAL_Driver/Src/stm32l4xx_hal_uart_ex.c **** 
 598              		.loc 1 490 17 is_stmt 0 discriminator 2 view .LVU127
 599 004c 2423     		movs	r3, #36
 600 004e A367     		str	r3, [r4, #120]
 493:../03_Drivers/STM32L4xx_HAL_Driver/Src/stm32l4xx_hal_uart_ex.c **** 
 601              		.loc 1 493 3 is_stmt 1 discriminator 2 view .LVU128
 602 0050 2268     		ldr	r2, [r4]
 603 0052 1368     		ldr	r3, [r2]
 604 0054 23F00103 		bic	r3, r3, #1
 605 0058 1360     		str	r3, [r2]
 496:../03_Drivers/STM32L4xx_HAL_Driver/Src/stm32l4xx_hal_uart_ex.c **** 
 606              		.loc 1 496 3 discriminator 2 view .LVU129
 607 005a 2268     		ldr	r2, [r4]
 608 005c 9368     		ldr	r3, [r2, #8]
 609 005e 23F44013 		bic	r3, r3, #3145728
 610 0062 2B43     		orrs	r3, r3, r5
 611 0064 9360     		str	r3, [r2, #8]
 498:../03_Drivers/STM32L4xx_HAL_Driver/Src/stm32l4xx_hal_uart_ex.c ****   {
 612              		.loc 1 498 3 discriminator 2 view .LVU130
 498:../03_Drivers/STM32L4xx_HAL_Driver/Src/stm32l4xx_hal_uart_ex.c ****   {
 613              		.loc 1 498 6 is_stmt 0 discriminator 2 view .LVU131
 614 0066 D5B1     		cbz	r5, .L55
 615              	.L49:
 504:../03_Drivers/STM32L4xx_HAL_Driver/Src/stm32l4xx_hal_uart_ex.c **** 
 616              		.loc 1 504 3 is_stmt 1 view .LVU132
 617 0068 2268     		ldr	r2, [r4]
 618 006a 1368     		ldr	r3, [r2]
 619 006c 43F00103 		orr	r3, r3, #1
 620 0070 1360     		str	r3, [r2]
 507:../03_Drivers/STM32L4xx_HAL_Driver/Src/stm32l4xx_hal_uart_ex.c **** 
 621              		.loc 1 507 3 view .LVU133
 507:../03_Drivers/STM32L4xx_HAL_Driver/Src/stm32l4xx_hal_uart_ex.c **** 
 622              		.loc 1 507 15 is_stmt 0 view .LVU134
 623 0072 FFF7FEFF 		bl	HAL_GetTick
 624              	.LVL48:
 625 0076 0346     		mov	r3, r0
 626              	.LVL49:
 510:../03_Drivers/STM32L4xx_HAL_Driver/Src/stm32l4xx_hal_uart_ex.c ****   {
ARM GAS  C:\Users\minde\AppData\Local\Temp\ccUwUXx6.s 			page 32


 627              		.loc 1 510 3 is_stmt 1 view .LVU135
 510:../03_Drivers/STM32L4xx_HAL_Driver/Src/stm32l4xx_hal_uart_ex.c ****   {
 628              		.loc 1 510 7 is_stmt 0 view .LVU136
 629 0078 6FF07E42 		mvn	r2, #-33554432
 630 007c 0092     		str	r2, [sp]
 631 007e 0022     		movs	r2, #0
 632 0080 4FF48001 		mov	r1, #4194304
 633 0084 2046     		mov	r0, r4
 634              	.LVL50:
 510:../03_Drivers/STM32L4xx_HAL_Driver/Src/stm32l4xx_hal_uart_ex.c ****   {
 635              		.loc 1 510 7 view .LVU137
 636 0086 FFF7FEFF 		bl	UART_WaitOnFlagUntilTimeout
 637              	.LVL51:
 510:../03_Drivers/STM32L4xx_HAL_Driver/Src/stm32l4xx_hal_uart_ex.c ****   {
 638              		.loc 1 510 6 view .LVU138
 639 008a 78B9     		cbnz	r0, .L52
 517:../03_Drivers/STM32L4xx_HAL_Driver/Src/stm32l4xx_hal_uart_ex.c ****   }
 640              		.loc 1 517 5 is_stmt 1 view .LVU139
 517:../03_Drivers/STM32L4xx_HAL_Driver/Src/stm32l4xx_hal_uart_ex.c ****   }
 641              		.loc 1 517 19 is_stmt 0 view .LVU140
 642 008c 2023     		movs	r3, #32
 643 008e A367     		str	r3, [r4, #120]
 644 0090 0DE0     		b	.L50
 645              	.L54:
 485:../03_Drivers/STM32L4xx_HAL_Driver/Src/stm32l4xx_hal_uart_ex.c **** 
 646              		.loc 1 485 3 discriminator 3 view .LVU141
 647 0092 40F2E511 		movw	r1, #485
 648 0096 0A48     		ldr	r0, .L56+4
 649 0098 FFF7FEFF 		bl	assert_failed
 650              	.LVL52:
 651 009c CFE7     		b	.L47
 652              	.L55:
 500:../03_Drivers/STM32L4xx_HAL_Driver/Src/stm32l4xx_hal_uart_ex.c ****   }
 653              		.loc 1 500 5 is_stmt 1 view .LVU142
 654 009e 04AB     		add	r3, sp, #16
 655 00a0 13E90600 		ldmdb	r3, {r1, r2}
 656 00a4 2046     		mov	r0, r4
 657 00a6 FFF7FEFF 		bl	UARTEx_Wakeup_AddressConfig
 658              	.LVL53:
 659 00aa DDE7     		b	.L49
 660              	.L52:
 512:../03_Drivers/STM32L4xx_HAL_Driver/Src/stm32l4xx_hal_uart_ex.c ****   }
 661              		.loc 1 512 12 is_stmt 0 view .LVU143
 662 00ac 0320     		movs	r0, #3
 663              	.L50:
 664              	.LVL54:
 521:../03_Drivers/STM32L4xx_HAL_Driver/Src/stm32l4xx_hal_uart_ex.c **** 
 665              		.loc 1 521 3 is_stmt 1 view .LVU144
 521:../03_Drivers/STM32L4xx_HAL_Driver/Src/stm32l4xx_hal_uart_ex.c **** 
 666              		.loc 1 521 3 view .LVU145
 667 00ae 0023     		movs	r3, #0
 668 00b0 84F87430 		strb	r3, [r4, #116]
 521:../03_Drivers/STM32L4xx_HAL_Driver/Src/stm32l4xx_hal_uart_ex.c **** 
 669              		.loc 1 521 3 view .LVU146
 523:../03_Drivers/STM32L4xx_HAL_Driver/Src/stm32l4xx_hal_uart_ex.c **** }
 670              		.loc 1 523 3 view .LVU147
 671              	.LVL55:
ARM GAS  C:\Users\minde\AppData\Local\Temp\ccUwUXx6.s 			page 33


 672              	.L48:
 524:../03_Drivers/STM32L4xx_HAL_Driver/Src/stm32l4xx_hal_uart_ex.c **** 
 673              		.loc 1 524 1 is_stmt 0 view .LVU148
 674 00b4 05B0     		add	sp, sp, #20
 675              	.LCFI10:
 676              		.cfi_remember_state
 677              		.cfi_def_cfa_offset 12
 678              		@ sp needed
 679 00b6 30BD     		pop	{r4, r5, pc}
 680              	.LVL56:
 681              	.L51:
 682              	.LCFI11:
 683              		.cfi_restore_state
 488:../03_Drivers/STM32L4xx_HAL_Driver/Src/stm32l4xx_hal_uart_ex.c **** 
 684              		.loc 1 488 3 view .LVU149
 685 00b8 0220     		movs	r0, #2
 686 00ba FBE7     		b	.L48
 687              	.L57:
 688              		.align	2
 689              	.L56:
 690 00bc 00380140 		.word	1073821696
 691 00c0 00000000 		.word	.LC0
 692              		.cfi_endproc
 693              	.LFE293:
 695              		.section	.text.HAL_UARTEx_EnableStopMode,"ax",%progbits
 696              		.align	1
 697              		.global	HAL_UARTEx_EnableStopMode
 698              		.syntax unified
 699              		.thumb
 700              		.thumb_func
 701              		.fpu fpv4-sp-d16
 703              	HAL_UARTEx_EnableStopMode:
 704              	.LVL57:
 705              	.LFB294:
 533:../03_Drivers/STM32L4xx_HAL_Driver/Src/stm32l4xx_hal_uart_ex.c ****   /* Process Locked */
 706              		.loc 1 533 1 is_stmt 1 view -0
 707              		.cfi_startproc
 708              		@ args = 0, pretend = 0, frame = 0
 709              		@ frame_needed = 0, uses_anonymous_args = 0
 710              		@ link register save eliminated.
 535:../03_Drivers/STM32L4xx_HAL_Driver/Src/stm32l4xx_hal_uart_ex.c **** 
 711              		.loc 1 535 3 view .LVU151
 535:../03_Drivers/STM32L4xx_HAL_Driver/Src/stm32l4xx_hal_uart_ex.c **** 
 712              		.loc 1 535 3 view .LVU152
 713 0000 90F87430 		ldrb	r3, [r0, #116]	@ zero_extendqisi2
 714 0004 012B     		cmp	r3, #1
 715 0006 0CD0     		beq	.L60
 535:../03_Drivers/STM32L4xx_HAL_Driver/Src/stm32l4xx_hal_uart_ex.c **** 
 716              		.loc 1 535 3 discriminator 2 view .LVU153
 717 0008 0123     		movs	r3, #1
 718 000a 80F87430 		strb	r3, [r0, #116]
 535:../03_Drivers/STM32L4xx_HAL_Driver/Src/stm32l4xx_hal_uart_ex.c **** 
 719              		.loc 1 535 3 discriminator 2 view .LVU154
 538:../03_Drivers/STM32L4xx_HAL_Driver/Src/stm32l4xx_hal_uart_ex.c **** 
 720              		.loc 1 538 3 discriminator 2 view .LVU155
 721 000e 0268     		ldr	r2, [r0]
 722 0010 1368     		ldr	r3, [r2]
ARM GAS  C:\Users\minde\AppData\Local\Temp\ccUwUXx6.s 			page 34


 723 0012 43F00203 		orr	r3, r3, #2
 724 0016 1360     		str	r3, [r2]
 541:../03_Drivers/STM32L4xx_HAL_Driver/Src/stm32l4xx_hal_uart_ex.c **** 
 725              		.loc 1 541 3 discriminator 2 view .LVU156
 541:../03_Drivers/STM32L4xx_HAL_Driver/Src/stm32l4xx_hal_uart_ex.c **** 
 726              		.loc 1 541 3 discriminator 2 view .LVU157
 727 0018 0023     		movs	r3, #0
 728 001a 80F87430 		strb	r3, [r0, #116]
 541:../03_Drivers/STM32L4xx_HAL_Driver/Src/stm32l4xx_hal_uart_ex.c **** 
 729              		.loc 1 541 3 discriminator 2 view .LVU158
 543:../03_Drivers/STM32L4xx_HAL_Driver/Src/stm32l4xx_hal_uart_ex.c **** }
 730              		.loc 1 543 3 discriminator 2 view .LVU159
 543:../03_Drivers/STM32L4xx_HAL_Driver/Src/stm32l4xx_hal_uart_ex.c **** }
 731              		.loc 1 543 10 is_stmt 0 discriminator 2 view .LVU160
 732 001e 1846     		mov	r0, r3
 733              	.LVL58:
 543:../03_Drivers/STM32L4xx_HAL_Driver/Src/stm32l4xx_hal_uart_ex.c **** }
 734              		.loc 1 543 10 discriminator 2 view .LVU161
 735 0020 7047     		bx	lr
 736              	.LVL59:
 737              	.L60:
 535:../03_Drivers/STM32L4xx_HAL_Driver/Src/stm32l4xx_hal_uart_ex.c **** 
 738              		.loc 1 535 3 view .LVU162
 739 0022 0220     		movs	r0, #2
 740              	.LVL60:
 544:../03_Drivers/STM32L4xx_HAL_Driver/Src/stm32l4xx_hal_uart_ex.c **** 
 741              		.loc 1 544 1 view .LVU163
 742 0024 7047     		bx	lr
 743              		.cfi_endproc
 744              	.LFE294:
 746              		.section	.text.HAL_UARTEx_DisableStopMode,"ax",%progbits
 747              		.align	1
 748              		.global	HAL_UARTEx_DisableStopMode
 749              		.syntax unified
 750              		.thumb
 751              		.thumb_func
 752              		.fpu fpv4-sp-d16
 754              	HAL_UARTEx_DisableStopMode:
 755              	.LVL61:
 756              	.LFB295:
 552:../03_Drivers/STM32L4xx_HAL_Driver/Src/stm32l4xx_hal_uart_ex.c ****   /* Process Locked */
 757              		.loc 1 552 1 is_stmt 1 view -0
 758              		.cfi_startproc
 759              		@ args = 0, pretend = 0, frame = 0
 760              		@ frame_needed = 0, uses_anonymous_args = 0
 761              		@ link register save eliminated.
 554:../03_Drivers/STM32L4xx_HAL_Driver/Src/stm32l4xx_hal_uart_ex.c **** 
 762              		.loc 1 554 3 view .LVU165
 554:../03_Drivers/STM32L4xx_HAL_Driver/Src/stm32l4xx_hal_uart_ex.c **** 
 763              		.loc 1 554 3 view .LVU166
 764 0000 90F87430 		ldrb	r3, [r0, #116]	@ zero_extendqisi2
 765 0004 012B     		cmp	r3, #1
 766 0006 0CD0     		beq	.L63
 554:../03_Drivers/STM32L4xx_HAL_Driver/Src/stm32l4xx_hal_uart_ex.c **** 
 767              		.loc 1 554 3 discriminator 2 view .LVU167
 768 0008 0123     		movs	r3, #1
 769 000a 80F87430 		strb	r3, [r0, #116]
ARM GAS  C:\Users\minde\AppData\Local\Temp\ccUwUXx6.s 			page 35


 554:../03_Drivers/STM32L4xx_HAL_Driver/Src/stm32l4xx_hal_uart_ex.c **** 
 770              		.loc 1 554 3 discriminator 2 view .LVU168
 557:../03_Drivers/STM32L4xx_HAL_Driver/Src/stm32l4xx_hal_uart_ex.c **** 
 771              		.loc 1 557 3 discriminator 2 view .LVU169
 772 000e 0268     		ldr	r2, [r0]
 773 0010 1368     		ldr	r3, [r2]
 774 0012 23F00203 		bic	r3, r3, #2
 775 0016 1360     		str	r3, [r2]
 560:../03_Drivers/STM32L4xx_HAL_Driver/Src/stm32l4xx_hal_uart_ex.c **** 
 776              		.loc 1 560 3 discriminator 2 view .LVU170
 560:../03_Drivers/STM32L4xx_HAL_Driver/Src/stm32l4xx_hal_uart_ex.c **** 
 777              		.loc 1 560 3 discriminator 2 view .LVU171
 778 0018 0023     		movs	r3, #0
 779 001a 80F87430 		strb	r3, [r0, #116]
 560:../03_Drivers/STM32L4xx_HAL_Driver/Src/stm32l4xx_hal_uart_ex.c **** 
 780              		.loc 1 560 3 discriminator 2 view .LVU172
 562:../03_Drivers/STM32L4xx_HAL_Driver/Src/stm32l4xx_hal_uart_ex.c **** }
 781              		.loc 1 562 3 discriminator 2 view .LVU173
 562:../03_Drivers/STM32L4xx_HAL_Driver/Src/stm32l4xx_hal_uart_ex.c **** }
 782              		.loc 1 562 10 is_stmt 0 discriminator 2 view .LVU174
 783 001e 1846     		mov	r0, r3
 784              	.LVL62:
 562:../03_Drivers/STM32L4xx_HAL_Driver/Src/stm32l4xx_hal_uart_ex.c **** }
 785              		.loc 1 562 10 discriminator 2 view .LVU175
 786 0020 7047     		bx	lr
 787              	.LVL63:
 788              	.L63:
 554:../03_Drivers/STM32L4xx_HAL_Driver/Src/stm32l4xx_hal_uart_ex.c **** 
 789              		.loc 1 554 3 view .LVU176
 790 0022 0220     		movs	r0, #2
 791              	.LVL64:
 563:../03_Drivers/STM32L4xx_HAL_Driver/Src/stm32l4xx_hal_uart_ex.c **** 
 792              		.loc 1 563 1 view .LVU177
 793 0024 7047     		bx	lr
 794              		.cfi_endproc
 795              	.LFE295:
 797              		.section	.text.HAL_UARTEx_ReceiveToIdle,"ax",%progbits
 798              		.align	1
 799              		.global	HAL_UARTEx_ReceiveToIdle
 800              		.syntax unified
 801              		.thumb
 802              		.thumb_func
 803              		.fpu fpv4-sp-d16
 805              	HAL_UARTEx_ReceiveToIdle:
 806              	.LVL65:
 807              	.LFB296:
 764:../03_Drivers/STM32L4xx_HAL_Driver/Src/stm32l4xx_hal_uart_ex.c ****   uint8_t  *pdata8bits;
 808              		.loc 1 764 1 is_stmt 1 view -0
 809              		.cfi_startproc
 810              		@ args = 4, pretend = 0, frame = 0
 811              		@ frame_needed = 0, uses_anonymous_args = 0
 764:../03_Drivers/STM32L4xx_HAL_Driver/Src/stm32l4xx_hal_uart_ex.c ****   uint8_t  *pdata8bits;
 812              		.loc 1 764 1 is_stmt 0 view .LVU179
 813 0000 2DE9F047 		push	{r4, r5, r6, r7, r8, r9, r10, lr}
 814              	.LCFI12:
 815              		.cfi_def_cfa_offset 32
 816              		.cfi_offset 4, -32
ARM GAS  C:\Users\minde\AppData\Local\Temp\ccUwUXx6.s 			page 36


 817              		.cfi_offset 5, -28
 818              		.cfi_offset 6, -24
 819              		.cfi_offset 7, -20
 820              		.cfi_offset 8, -16
 821              		.cfi_offset 9, -12
 822              		.cfi_offset 10, -8
 823              		.cfi_offset 14, -4
 824 0004 1D46     		mov	r5, r3
 825 0006 089E     		ldr	r6, [sp, #32]
 765:../03_Drivers/STM32L4xx_HAL_Driver/Src/stm32l4xx_hal_uart_ex.c ****   uint16_t *pdata16bits;
 826              		.loc 1 765 3 is_stmt 1 view .LVU180
 766:../03_Drivers/STM32L4xx_HAL_Driver/Src/stm32l4xx_hal_uart_ex.c ****   uint16_t uhMask;
 827              		.loc 1 766 3 view .LVU181
 767:../03_Drivers/STM32L4xx_HAL_Driver/Src/stm32l4xx_hal_uart_ex.c ****   uint32_t tickstart;
 828              		.loc 1 767 3 view .LVU182
 768:../03_Drivers/STM32L4xx_HAL_Driver/Src/stm32l4xx_hal_uart_ex.c **** 
 829              		.loc 1 768 3 view .LVU183
 771:../03_Drivers/STM32L4xx_HAL_Driver/Src/stm32l4xx_hal_uart_ex.c ****   {
 830              		.loc 1 771 3 view .LVU184
 771:../03_Drivers/STM32L4xx_HAL_Driver/Src/stm32l4xx_hal_uart_ex.c ****   {
 831              		.loc 1 771 12 is_stmt 0 view .LVU185
 832 0008 C36F     		ldr	r3, [r0, #124]
 833              	.LVL66:
 771:../03_Drivers/STM32L4xx_HAL_Driver/Src/stm32l4xx_hal_uart_ex.c ****   {
 834              		.loc 1 771 6 view .LVU186
 835 000a 202B     		cmp	r3, #32
 836 000c 40F0A580 		bne	.L82
 837 0010 0446     		mov	r4, r0
 838 0012 0F46     		mov	r7, r1
 839 0014 9146     		mov	r9, r2
 773:../03_Drivers/STM32L4xx_HAL_Driver/Src/stm32l4xx_hal_uart_ex.c ****     {
 840              		.loc 1 773 5 is_stmt 1 view .LVU187
 773:../03_Drivers/STM32L4xx_HAL_Driver/Src/stm32l4xx_hal_uart_ex.c ****     {
 841              		.loc 1 773 8 is_stmt 0 view .LVU188
 842 0016 0029     		cmp	r1, #0
 843 0018 00F0A280 		beq	.L83
 773:../03_Drivers/STM32L4xx_HAL_Driver/Src/stm32l4xx_hal_uart_ex.c ****     {
 844              		.loc 1 773 25 discriminator 1 view .LVU189
 845 001c 002A     		cmp	r2, #0
 846 001e 00F0A180 		beq	.L84
 778:../03_Drivers/STM32L4xx_HAL_Driver/Src/stm32l4xx_hal_uart_ex.c **** 
 847              		.loc 1 778 5 is_stmt 1 view .LVU190
 778:../03_Drivers/STM32L4xx_HAL_Driver/Src/stm32l4xx_hal_uart_ex.c **** 
 848              		.loc 1 778 5 view .LVU191
 849 0022 90F87430 		ldrb	r3, [r0, #116]	@ zero_extendqisi2
 850 0026 012B     		cmp	r3, #1
 851 0028 00F09E80 		beq	.L85
 778:../03_Drivers/STM32L4xx_HAL_Driver/Src/stm32l4xx_hal_uart_ex.c **** 
 852              		.loc 1 778 5 discriminator 2 view .LVU192
 853 002c 0123     		movs	r3, #1
 854 002e 80F87430 		strb	r3, [r0, #116]
 778:../03_Drivers/STM32L4xx_HAL_Driver/Src/stm32l4xx_hal_uart_ex.c **** 
 855              		.loc 1 778 5 discriminator 2 view .LVU193
 780:../03_Drivers/STM32L4xx_HAL_Driver/Src/stm32l4xx_hal_uart_ex.c ****     huart->RxState = HAL_UART_STATE_BUSY_RX;
 856              		.loc 1 780 5 discriminator 2 view .LVU194
 780:../03_Drivers/STM32L4xx_HAL_Driver/Src/stm32l4xx_hal_uart_ex.c ****     huart->RxState = HAL_UART_STATE_BUSY_RX;
 857              		.loc 1 780 22 is_stmt 0 discriminator 2 view .LVU195
ARM GAS  C:\Users\minde\AppData\Local\Temp\ccUwUXx6.s 			page 37


 858 0032 0022     		movs	r2, #0
 859              	.LVL67:
 780:../03_Drivers/STM32L4xx_HAL_Driver/Src/stm32l4xx_hal_uart_ex.c ****     huart->RxState = HAL_UART_STATE_BUSY_RX;
 860              		.loc 1 780 22 discriminator 2 view .LVU196
 861 0034 C0F88020 		str	r2, [r0, #128]
 781:../03_Drivers/STM32L4xx_HAL_Driver/Src/stm32l4xx_hal_uart_ex.c ****     huart->ReceptionType = HAL_UART_RECEPTION_TOIDLE;
 862              		.loc 1 781 5 is_stmt 1 discriminator 2 view .LVU197
 781:../03_Drivers/STM32L4xx_HAL_Driver/Src/stm32l4xx_hal_uart_ex.c ****     huart->ReceptionType = HAL_UART_RECEPTION_TOIDLE;
 863              		.loc 1 781 20 is_stmt 0 discriminator 2 view .LVU198
 864 0038 2222     		movs	r2, #34
 865 003a C267     		str	r2, [r0, #124]
 782:../03_Drivers/STM32L4xx_HAL_Driver/Src/stm32l4xx_hal_uart_ex.c **** 
 866              		.loc 1 782 5 is_stmt 1 discriminator 2 view .LVU199
 782:../03_Drivers/STM32L4xx_HAL_Driver/Src/stm32l4xx_hal_uart_ex.c **** 
 867              		.loc 1 782 26 is_stmt 0 discriminator 2 view .LVU200
 868 003c 0366     		str	r3, [r0, #96]
 785:../03_Drivers/STM32L4xx_HAL_Driver/Src/stm32l4xx_hal_uart_ex.c **** 
 869              		.loc 1 785 5 is_stmt 1 discriminator 2 view .LVU201
 785:../03_Drivers/STM32L4xx_HAL_Driver/Src/stm32l4xx_hal_uart_ex.c **** 
 870              		.loc 1 785 17 is_stmt 0 discriminator 2 view .LVU202
 871 003e FFF7FEFF 		bl	HAL_GetTick
 872              	.LVL68:
 785:../03_Drivers/STM32L4xx_HAL_Driver/Src/stm32l4xx_hal_uart_ex.c **** 
 873              		.loc 1 785 17 discriminator 2 view .LVU203
 874 0042 8046     		mov	r8, r0
 875              	.LVL69:
 787:../03_Drivers/STM32L4xx_HAL_Driver/Src/stm32l4xx_hal_uart_ex.c ****     huart->RxXferCount = Size;
 876              		.loc 1 787 5 is_stmt 1 discriminator 2 view .LVU204
 787:../03_Drivers/STM32L4xx_HAL_Driver/Src/stm32l4xx_hal_uart_ex.c ****     huart->RxXferCount = Size;
 877              		.loc 1 787 24 is_stmt 0 discriminator 2 view .LVU205
 878 0044 A4F85890 		strh	r9, [r4, #88]	@ movhi
 788:../03_Drivers/STM32L4xx_HAL_Driver/Src/stm32l4xx_hal_uart_ex.c **** 
 879              		.loc 1 788 5 is_stmt 1 discriminator 2 view .LVU206
 788:../03_Drivers/STM32L4xx_HAL_Driver/Src/stm32l4xx_hal_uart_ex.c **** 
 880              		.loc 1 788 24 is_stmt 0 discriminator 2 view .LVU207
 881 0048 A4F85A90 		strh	r9, [r4, #90]	@ movhi
 791:../03_Drivers/STM32L4xx_HAL_Driver/Src/stm32l4xx_hal_uart_ex.c ****     uhMask = huart->Mask;
 882              		.loc 1 791 5 is_stmt 1 discriminator 2 view .LVU208
 791:../03_Drivers/STM32L4xx_HAL_Driver/Src/stm32l4xx_hal_uart_ex.c ****     uhMask = huart->Mask;
 883              		.loc 1 791 5 discriminator 2 view .LVU209
 884 004c A368     		ldr	r3, [r4, #8]
 885 004e B3F5805F 		cmp	r3, #4096
 886 0052 06D0     		beq	.L89
 791:../03_Drivers/STM32L4xx_HAL_Driver/Src/stm32l4xx_hal_uart_ex.c ****     uhMask = huart->Mask;
 887              		.loc 1 791 5 discriminator 2 view .LVU210
 888 0054 A3B9     		cbnz	r3, .L69
 791:../03_Drivers/STM32L4xx_HAL_Driver/Src/stm32l4xx_hal_uart_ex.c ****     uhMask = huart->Mask;
 889              		.loc 1 791 5 discriminator 5 view .LVU211
 890 0056 2269     		ldr	r2, [r4, #16]
 891 0058 72B9     		cbnz	r2, .L70
 791:../03_Drivers/STM32L4xx_HAL_Driver/Src/stm32l4xx_hal_uart_ex.c ****     uhMask = huart->Mask;
 892              		.loc 1 791 5 discriminator 7 view .LVU212
 893 005a FF22     		movs	r2, #255
 894 005c A4F85C20 		strh	r2, [r4, #92]	@ movhi
 895 0060 14E0     		b	.L68
 896              	.L89:
 791:../03_Drivers/STM32L4xx_HAL_Driver/Src/stm32l4xx_hal_uart_ex.c ****     uhMask = huart->Mask;
ARM GAS  C:\Users\minde\AppData\Local\Temp\ccUwUXx6.s 			page 38


 897              		.loc 1 791 5 discriminator 1 view .LVU213
 898 0062 2269     		ldr	r2, [r4, #16]
 899 0064 22B9     		cbnz	r2, .L67
 791:../03_Drivers/STM32L4xx_HAL_Driver/Src/stm32l4xx_hal_uart_ex.c ****     uhMask = huart->Mask;
 900              		.loc 1 791 5 discriminator 3 view .LVU214
 901 0066 40F2FF12 		movw	r2, #511
 902 006a A4F85C20 		strh	r2, [r4, #92]	@ movhi
 903 006e 0DE0     		b	.L68
 904              	.L67:
 791:../03_Drivers/STM32L4xx_HAL_Driver/Src/stm32l4xx_hal_uart_ex.c ****     uhMask = huart->Mask;
 905              		.loc 1 791 5 discriminator 4 view .LVU215
 906 0070 FF22     		movs	r2, #255
 907 0072 A4F85C20 		strh	r2, [r4, #92]	@ movhi
 908 0076 09E0     		b	.L68
 909              	.L70:
 791:../03_Drivers/STM32L4xx_HAL_Driver/Src/stm32l4xx_hal_uart_ex.c ****     uhMask = huart->Mask;
 910              		.loc 1 791 5 discriminator 8 view .LVU216
 911 0078 7F22     		movs	r2, #127
 912 007a A4F85C20 		strh	r2, [r4, #92]	@ movhi
 913 007e 05E0     		b	.L68
 914              	.L69:
 791:../03_Drivers/STM32L4xx_HAL_Driver/Src/stm32l4xx_hal_uart_ex.c ****     uhMask = huart->Mask;
 915              		.loc 1 791 5 discriminator 6 view .LVU217
 916 0080 B3F1805F 		cmp	r3, #268435456
 917 0084 0ED0     		beq	.L90
 791:../03_Drivers/STM32L4xx_HAL_Driver/Src/stm32l4xx_hal_uart_ex.c ****     uhMask = huart->Mask;
 918              		.loc 1 791 5 discriminator 10 view .LVU218
 919 0086 0022     		movs	r2, #0
 920 0088 A4F85C20 		strh	r2, [r4, #92]	@ movhi
 921              	.L68:
 791:../03_Drivers/STM32L4xx_HAL_Driver/Src/stm32l4xx_hal_uart_ex.c ****     uhMask = huart->Mask;
 922              		.loc 1 791 5 discriminator 13 view .LVU219
 792:../03_Drivers/STM32L4xx_HAL_Driver/Src/stm32l4xx_hal_uart_ex.c **** 
 923              		.loc 1 792 5 discriminator 13 view .LVU220
 792:../03_Drivers/STM32L4xx_HAL_Driver/Src/stm32l4xx_hal_uart_ex.c **** 
 924              		.loc 1 792 12 is_stmt 0 discriminator 13 view .LVU221
 925 008c B4F85C90 		ldrh	r9, [r4, #92]
 926              	.LVL70:
 795:../03_Drivers/STM32L4xx_HAL_Driver/Src/stm32l4xx_hal_uart_ex.c ****     {
 927              		.loc 1 795 5 is_stmt 1 discriminator 13 view .LVU222
 795:../03_Drivers/STM32L4xx_HAL_Driver/Src/stm32l4xx_hal_uart_ex.c ****     {
 928              		.loc 1 795 8 is_stmt 0 discriminator 13 view .LVU223
 929 0090 B3F5805F 		cmp	r3, #4096
 930 0094 10D0     		beq	.L91
 803:../03_Drivers/STM32L4xx_HAL_Driver/Src/stm32l4xx_hal_uart_ex.c ****     }
 931              		.loc 1 803 19 view .LVU224
 932 0096 4FF0000A 		mov	r10, #0
 933              	.LVL71:
 934              	.L73:
 806:../03_Drivers/STM32L4xx_HAL_Driver/Src/stm32l4xx_hal_uart_ex.c **** 
 935              		.loc 1 806 5 is_stmt 1 view .LVU225
 806:../03_Drivers/STM32L4xx_HAL_Driver/Src/stm32l4xx_hal_uart_ex.c **** 
 936              		.loc 1 806 5 view .LVU226
 937 009a 0023     		movs	r3, #0
 938 009c 84F87430 		strb	r3, [r4, #116]
 806:../03_Drivers/STM32L4xx_HAL_Driver/Src/stm32l4xx_hal_uart_ex.c **** 
 939              		.loc 1 806 5 view .LVU227
ARM GAS  C:\Users\minde\AppData\Local\Temp\ccUwUXx6.s 			page 39


 809:../03_Drivers/STM32L4xx_HAL_Driver/Src/stm32l4xx_hal_uart_ex.c **** 
 940              		.loc 1 809 5 view .LVU228
 809:../03_Drivers/STM32L4xx_HAL_Driver/Src/stm32l4xx_hal_uart_ex.c **** 
 941              		.loc 1 809 12 is_stmt 0 view .LVU229
 942 00a0 2B80     		strh	r3, [r5]	@ movhi
 812:../03_Drivers/STM32L4xx_HAL_Driver/Src/stm32l4xx_hal_uart_ex.c ****     {
 943              		.loc 1 812 5 is_stmt 1 view .LVU230
 812:../03_Drivers/STM32L4xx_HAL_Driver/Src/stm32l4xx_hal_uart_ex.c ****     {
 944              		.loc 1 812 11 is_stmt 0 view .LVU231
 945 00a2 27E0     		b	.L74
 946              	.LVL72:
 947              	.L90:
 791:../03_Drivers/STM32L4xx_HAL_Driver/Src/stm32l4xx_hal_uart_ex.c ****     uhMask = huart->Mask;
 948              		.loc 1 791 5 is_stmt 1 discriminator 9 view .LVU232
 949 00a4 2269     		ldr	r2, [r4, #16]
 950 00a6 1AB9     		cbnz	r2, .L72
 791:../03_Drivers/STM32L4xx_HAL_Driver/Src/stm32l4xx_hal_uart_ex.c ****     uhMask = huart->Mask;
 951              		.loc 1 791 5 discriminator 11 view .LVU233
 952 00a8 7F22     		movs	r2, #127
 953 00aa A4F85C20 		strh	r2, [r4, #92]	@ movhi
 954 00ae EDE7     		b	.L68
 955              	.L72:
 791:../03_Drivers/STM32L4xx_HAL_Driver/Src/stm32l4xx_hal_uart_ex.c ****     uhMask = huart->Mask;
 956              		.loc 1 791 5 discriminator 12 view .LVU234
 957 00b0 3F22     		movs	r2, #63
 958 00b2 A4F85C20 		strh	r2, [r4, #92]	@ movhi
 959 00b6 E9E7     		b	.L68
 960              	.LVL73:
 961              	.L91:
 795:../03_Drivers/STM32L4xx_HAL_Driver/Src/stm32l4xx_hal_uart_ex.c ****     {
 962              		.loc 1 795 71 is_stmt 0 discriminator 1 view .LVU235
 963 00b8 2369     		ldr	r3, [r4, #16]
 795:../03_Drivers/STM32L4xx_HAL_Driver/Src/stm32l4xx_hal_uart_ex.c ****     {
 964              		.loc 1 795 56 discriminator 1 view .LVU236
 965 00ba 13B1     		cbz	r3, .L87
 803:../03_Drivers/STM32L4xx_HAL_Driver/Src/stm32l4xx_hal_uart_ex.c ****     }
 966              		.loc 1 803 19 view .LVU237
 967 00bc 4FF0000A 		mov	r10, #0
 968 00c0 EBE7     		b	.L73
 969              	.L87:
 798:../03_Drivers/STM32L4xx_HAL_Driver/Src/stm32l4xx_hal_uart_ex.c ****     }
 970              		.loc 1 798 19 view .LVU238
 971 00c2 BA46     		mov	r10, r7
 797:../03_Drivers/STM32L4xx_HAL_Driver/Src/stm32l4xx_hal_uart_ex.c ****       pdata16bits = (uint16_t *) pData;
 972              		.loc 1 797 19 view .LVU239
 973 00c4 0027     		movs	r7, #0
 974              	.LVL74:
 797:../03_Drivers/STM32L4xx_HAL_Driver/Src/stm32l4xx_hal_uart_ex.c ****       pdata16bits = (uint16_t *) pData;
 975              		.loc 1 797 19 view .LVU240
 976 00c6 E8E7     		b	.L73
 977              	.LVL75:
 978              	.L94:
 824:../03_Drivers/STM32L4xx_HAL_Driver/Src/stm32l4xx_hal_uart_ex.c **** 
 979              		.loc 1 824 11 is_stmt 1 view .LVU241
 824:../03_Drivers/STM32L4xx_HAL_Driver/Src/stm32l4xx_hal_uart_ex.c **** 
 980              		.loc 1 824 26 is_stmt 0 view .LVU242
 981 00c8 2023     		movs	r3, #32
ARM GAS  C:\Users\minde\AppData\Local\Temp\ccUwUXx6.s 			page 40


 982 00ca E367     		str	r3, [r4, #124]
 826:../03_Drivers/STM32L4xx_HAL_Driver/Src/stm32l4xx_hal_uart_ex.c ****         }
 983              		.loc 1 826 11 is_stmt 1 view .LVU243
 826:../03_Drivers/STM32L4xx_HAL_Driver/Src/stm32l4xx_hal_uart_ex.c ****         }
 984              		.loc 1 826 18 is_stmt 0 view .LVU244
 985 00cc 0020     		movs	r0, #0
 986 00ce 45E0     		b	.L65
 987              	.L95:
 835:../03_Drivers/STM32L4xx_HAL_Driver/Src/stm32l4xx_hal_uart_ex.c ****           pdata16bits++;
 988              		.loc 1 835 11 is_stmt 1 view .LVU245
 835:../03_Drivers/STM32L4xx_HAL_Driver/Src/stm32l4xx_hal_uart_ex.c ****           pdata16bits++;
 989              		.loc 1 835 52 is_stmt 0 view .LVU246
 990 00d0 9B8C     		ldrh	r3, [r3, #36]
 835:../03_Drivers/STM32L4xx_HAL_Driver/Src/stm32l4xx_hal_uart_ex.c ****           pdata16bits++;
 991              		.loc 1 835 26 view .LVU247
 992 00d2 09EA0303 		and	r3, r9, r3
 835:../03_Drivers/STM32L4xx_HAL_Driver/Src/stm32l4xx_hal_uart_ex.c ****           pdata16bits++;
 993              		.loc 1 835 24 view .LVU248
 994 00d6 2AF8023B 		strh	r3, [r10], #2	@ movhi
 995              	.LVL76:
 836:../03_Drivers/STM32L4xx_HAL_Driver/Src/stm32l4xx_hal_uart_ex.c ****         }
 996              		.loc 1 836 11 is_stmt 1 view .LVU249
 997              	.L78:
 844:../03_Drivers/STM32L4xx_HAL_Driver/Src/stm32l4xx_hal_uart_ex.c ****         huart->RxXferCount--;
 998              		.loc 1 844 9 view .LVU250
 844:../03_Drivers/STM32L4xx_HAL_Driver/Src/stm32l4xx_hal_uart_ex.c ****         huart->RxXferCount--;
 999              		.loc 1 844 16 is_stmt 0 view .LVU251
 1000 00da 2B88     		ldrh	r3, [r5]
 1001 00dc 0133     		adds	r3, r3, #1
 1002 00de 2B80     		strh	r3, [r5]	@ movhi
 845:../03_Drivers/STM32L4xx_HAL_Driver/Src/stm32l4xx_hal_uart_ex.c ****       }
 1003              		.loc 1 845 9 is_stmt 1 view .LVU252
 845:../03_Drivers/STM32L4xx_HAL_Driver/Src/stm32l4xx_hal_uart_ex.c ****       }
 1004              		.loc 1 845 14 is_stmt 0 view .LVU253
 1005 00e0 B4F85A30 		ldrh	r3, [r4, #90]
 1006 00e4 9BB2     		uxth	r3, r3
 845:../03_Drivers/STM32L4xx_HAL_Driver/Src/stm32l4xx_hal_uart_ex.c ****       }
 1007              		.loc 1 845 27 view .LVU254
 1008 00e6 013B     		subs	r3, r3, #1
 1009 00e8 9BB2     		uxth	r3, r3
 1010 00ea A4F85A30 		strh	r3, [r4, #90]	@ movhi
 1011              	.L76:
 849:../03_Drivers/STM32L4xx_HAL_Driver/Src/stm32l4xx_hal_uart_ex.c ****       {
 1012              		.loc 1 849 7 is_stmt 1 view .LVU255
 849:../03_Drivers/STM32L4xx_HAL_Driver/Src/stm32l4xx_hal_uart_ex.c ****       {
 1013              		.loc 1 849 10 is_stmt 0 view .LVU256
 1014 00ee B6F1FF3F 		cmp	r6, #-1
 1015 00f2 1BD1     		bne	.L92
 1016              	.L74:
 812:../03_Drivers/STM32L4xx_HAL_Driver/Src/stm32l4xx_hal_uart_ex.c ****     {
 1017              		.loc 1 812 11 is_stmt 1 view .LVU257
 812:../03_Drivers/STM32L4xx_HAL_Driver/Src/stm32l4xx_hal_uart_ex.c ****     {
 1018              		.loc 1 812 17 is_stmt 0 view .LVU258
 1019 00f4 B4F85A20 		ldrh	r2, [r4, #90]
 1020 00f8 92B2     		uxth	r2, r2
 812:../03_Drivers/STM32L4xx_HAL_Driver/Src/stm32l4xx_hal_uart_ex.c ****     {
 1021              		.loc 1 812 11 view .LVU259
ARM GAS  C:\Users\minde\AppData\Local\Temp\ccUwUXx6.s 			page 41


 1022 00fa 1AB3     		cbz	r2, .L93
 815:../03_Drivers/STM32L4xx_HAL_Driver/Src/stm32l4xx_hal_uart_ex.c ****       {
 1023              		.loc 1 815 7 is_stmt 1 view .LVU260
 815:../03_Drivers/STM32L4xx_HAL_Driver/Src/stm32l4xx_hal_uart_ex.c ****       {
 1024              		.loc 1 815 11 is_stmt 0 view .LVU261
 1025 00fc 2368     		ldr	r3, [r4]
 1026 00fe DA69     		ldr	r2, [r3, #28]
 815:../03_Drivers/STM32L4xx_HAL_Driver/Src/stm32l4xx_hal_uart_ex.c ****       {
 1027              		.loc 1 815 10 view .LVU262
 1028 0100 12F0100F 		tst	r2, #16
 1029 0104 04D0     		beq	.L75
 818:../03_Drivers/STM32L4xx_HAL_Driver/Src/stm32l4xx_hal_uart_ex.c **** 
 1030              		.loc 1 818 9 is_stmt 1 view .LVU263
 1031 0106 1022     		movs	r2, #16
 1032 0108 1A62     		str	r2, [r3, #32]
 822:../03_Drivers/STM32L4xx_HAL_Driver/Src/stm32l4xx_hal_uart_ex.c ****         {
 1033              		.loc 1 822 9 view .LVU264
 822:../03_Drivers/STM32L4xx_HAL_Driver/Src/stm32l4xx_hal_uart_ex.c ****         {
 1034              		.loc 1 822 13 is_stmt 0 view .LVU265
 1035 010a 2B88     		ldrh	r3, [r5]
 822:../03_Drivers/STM32L4xx_HAL_Driver/Src/stm32l4xx_hal_uart_ex.c ****         {
 1036              		.loc 1 822 12 view .LVU266
 1037 010c 002B     		cmp	r3, #0
 1038 010e DBD1     		bne	.L94
 1039              	.L75:
 831:../03_Drivers/STM32L4xx_HAL_Driver/Src/stm32l4xx_hal_uart_ex.c ****       {
 1040              		.loc 1 831 7 is_stmt 1 view .LVU267
 831:../03_Drivers/STM32L4xx_HAL_Driver/Src/stm32l4xx_hal_uart_ex.c ****       {
 1041              		.loc 1 831 11 is_stmt 0 view .LVU268
 1042 0110 2368     		ldr	r3, [r4]
 1043 0112 DA69     		ldr	r2, [r3, #28]
 831:../03_Drivers/STM32L4xx_HAL_Driver/Src/stm32l4xx_hal_uart_ex.c ****       {
 1044              		.loc 1 831 10 view .LVU269
 1045 0114 12F0200F 		tst	r2, #32
 1046 0118 E9D0     		beq	.L76
 833:../03_Drivers/STM32L4xx_HAL_Driver/Src/stm32l4xx_hal_uart_ex.c ****         {
 1047              		.loc 1 833 9 is_stmt 1 view .LVU270
 833:../03_Drivers/STM32L4xx_HAL_Driver/Src/stm32l4xx_hal_uart_ex.c ****         {
 1048              		.loc 1 833 12 is_stmt 0 view .LVU271
 1049 011a 002F     		cmp	r7, #0
 1050 011c D8D0     		beq	.L95
 840:../03_Drivers/STM32L4xx_HAL_Driver/Src/stm32l4xx_hal_uart_ex.c ****           pdata8bits++;
 1051              		.loc 1 840 11 is_stmt 1 view .LVU272
 840:../03_Drivers/STM32L4xx_HAL_Driver/Src/stm32l4xx_hal_uart_ex.c ****           pdata8bits++;
 1052              		.loc 1 840 50 is_stmt 0 view .LVU273
 1053 011e 9A8C     		ldrh	r2, [r3, #36]
 840:../03_Drivers/STM32L4xx_HAL_Driver/Src/stm32l4xx_hal_uart_ex.c ****           pdata8bits++;
 1054              		.loc 1 840 58 view .LVU274
 1055 0120 5FFA89F3 		uxtb	r3, r9
 840:../03_Drivers/STM32L4xx_HAL_Driver/Src/stm32l4xx_hal_uart_ex.c ****           pdata8bits++;
 1056              		.loc 1 840 25 view .LVU275
 1057 0124 1340     		ands	r3, r3, r2
 840:../03_Drivers/STM32L4xx_HAL_Driver/Src/stm32l4xx_hal_uart_ex.c ****           pdata8bits++;
 1058              		.loc 1 840 23 view .LVU276
 1059 0126 07F8013B 		strb	r3, [r7], #1
 1060              	.LVL77:
 841:../03_Drivers/STM32L4xx_HAL_Driver/Src/stm32l4xx_hal_uart_ex.c ****         }
ARM GAS  C:\Users\minde\AppData\Local\Temp\ccUwUXx6.s 			page 42


 1061              		.loc 1 841 11 is_stmt 1 view .LVU277
 841:../03_Drivers/STM32L4xx_HAL_Driver/Src/stm32l4xx_hal_uart_ex.c ****         }
 1062              		.loc 1 841 11 is_stmt 0 view .LVU278
 1063 012a D6E7     		b	.L78
 1064              	.L92:
 851:../03_Drivers/STM32L4xx_HAL_Driver/Src/stm32l4xx_hal_uart_ex.c ****         {
 1065              		.loc 1 851 9 is_stmt 1 view .LVU279
 851:../03_Drivers/STM32L4xx_HAL_Driver/Src/stm32l4xx_hal_uart_ex.c ****         {
 1066              		.loc 1 851 15 is_stmt 0 view .LVU280
 1067 012c FFF7FEFF 		bl	HAL_GetTick
 1068              	.LVL78:
 851:../03_Drivers/STM32L4xx_HAL_Driver/Src/stm32l4xx_hal_uart_ex.c ****         {
 1069              		.loc 1 851 29 view .LVU281
 1070 0130 A0EB0800 		sub	r0, r0, r8
 851:../03_Drivers/STM32L4xx_HAL_Driver/Src/stm32l4xx_hal_uart_ex.c ****         {
 1071              		.loc 1 851 12 view .LVU282
 1072 0134 B042     		cmp	r0, r6
 1073 0136 01D8     		bhi	.L80
 851:../03_Drivers/STM32L4xx_HAL_Driver/Src/stm32l4xx_hal_uart_ex.c ****         {
 1074              		.loc 1 851 53 discriminator 1 view .LVU283
 1075 0138 002E     		cmp	r6, #0
 1076 013a DBD1     		bne	.L74
 1077              	.L80:
 853:../03_Drivers/STM32L4xx_HAL_Driver/Src/stm32l4xx_hal_uart_ex.c **** 
 1078              		.loc 1 853 11 is_stmt 1 view .LVU284
 853:../03_Drivers/STM32L4xx_HAL_Driver/Src/stm32l4xx_hal_uart_ex.c **** 
 1079              		.loc 1 853 26 is_stmt 0 view .LVU285
 1080 013c 2023     		movs	r3, #32
 1081 013e E367     		str	r3, [r4, #124]
 855:../03_Drivers/STM32L4xx_HAL_Driver/Src/stm32l4xx_hal_uart_ex.c ****         }
 1082              		.loc 1 855 11 is_stmt 1 view .LVU286
 855:../03_Drivers/STM32L4xx_HAL_Driver/Src/stm32l4xx_hal_uart_ex.c ****         }
 1083              		.loc 1 855 18 is_stmt 0 view .LVU287
 1084 0140 0320     		movs	r0, #3
 1085 0142 0BE0     		b	.L65
 1086              	.L93:
 861:../03_Drivers/STM32L4xx_HAL_Driver/Src/stm32l4xx_hal_uart_ex.c ****     /* At end of Rx process, restore huart->RxState to Ready */
 1087              		.loc 1 861 5 is_stmt 1 view .LVU288
 861:../03_Drivers/STM32L4xx_HAL_Driver/Src/stm32l4xx_hal_uart_ex.c ****     /* At end of Rx process, restore huart->RxState to Ready */
 1088              		.loc 1 861 19 is_stmt 0 view .LVU289
 1089 0144 B4F85830 		ldrh	r3, [r4, #88]
 861:../03_Drivers/STM32L4xx_HAL_Driver/Src/stm32l4xx_hal_uart_ex.c ****     /* At end of Rx process, restore huart->RxState to Ready */
 1090              		.loc 1 861 39 view .LVU290
 1091 0148 B4F85A20 		ldrh	r2, [r4, #90]
 1092 014c 92B2     		uxth	r2, r2
 861:../03_Drivers/STM32L4xx_HAL_Driver/Src/stm32l4xx_hal_uart_ex.c ****     /* At end of Rx process, restore huart->RxState to Ready */
 1093              		.loc 1 861 32 view .LVU291
 1094 014e 9B1A     		subs	r3, r3, r2
 861:../03_Drivers/STM32L4xx_HAL_Driver/Src/stm32l4xx_hal_uart_ex.c ****     /* At end of Rx process, restore huart->RxState to Ready */
 1095              		.loc 1 861 12 view .LVU292
 1096 0150 2B80     		strh	r3, [r5]	@ movhi
 863:../03_Drivers/STM32L4xx_HAL_Driver/Src/stm32l4xx_hal_uart_ex.c **** 
 1097              		.loc 1 863 5 is_stmt 1 view .LVU293
 863:../03_Drivers/STM32L4xx_HAL_Driver/Src/stm32l4xx_hal_uart_ex.c **** 
 1098              		.loc 1 863 20 is_stmt 0 view .LVU294
 1099 0152 2023     		movs	r3, #32
 1100 0154 E367     		str	r3, [r4, #124]
ARM GAS  C:\Users\minde\AppData\Local\Temp\ccUwUXx6.s 			page 43


 865:../03_Drivers/STM32L4xx_HAL_Driver/Src/stm32l4xx_hal_uart_ex.c ****   }
 1101              		.loc 1 865 5 is_stmt 1 view .LVU295
 865:../03_Drivers/STM32L4xx_HAL_Driver/Src/stm32l4xx_hal_uart_ex.c ****   }
 1102              		.loc 1 865 12 is_stmt 0 view .LVU296
 1103 0156 0020     		movs	r0, #0
 1104 0158 00E0     		b	.L65
 1105              	.LVL79:
 1106              	.L82:
 869:../03_Drivers/STM32L4xx_HAL_Driver/Src/stm32l4xx_hal_uart_ex.c ****   }
 1107              		.loc 1 869 12 view .LVU297
 1108 015a 0220     		movs	r0, #2
 1109              	.LVL80:
 1110              	.L65:
 871:../03_Drivers/STM32L4xx_HAL_Driver/Src/stm32l4xx_hal_uart_ex.c **** 
 1111              		.loc 1 871 1 view .LVU298
 1112 015c BDE8F087 		pop	{r4, r5, r6, r7, r8, r9, r10, pc}
 1113              	.LVL81:
 1114              	.L83:
 775:../03_Drivers/STM32L4xx_HAL_Driver/Src/stm32l4xx_hal_uart_ex.c ****     }
 1115              		.loc 1 775 15 view .LVU299
 1116 0160 0120     		movs	r0, #1
 1117              	.LVL82:
 775:../03_Drivers/STM32L4xx_HAL_Driver/Src/stm32l4xx_hal_uart_ex.c ****     }
 1118              		.loc 1 775 15 view .LVU300
 1119 0162 FBE7     		b	.L65
 1120              	.LVL83:
 1121              	.L84:
 775:../03_Drivers/STM32L4xx_HAL_Driver/Src/stm32l4xx_hal_uart_ex.c ****     }
 1122              		.loc 1 775 15 view .LVU301
 1123 0164 0120     		movs	r0, #1
 1124              	.LVL84:
 775:../03_Drivers/STM32L4xx_HAL_Driver/Src/stm32l4xx_hal_uart_ex.c ****     }
 1125              		.loc 1 775 15 view .LVU302
 1126 0166 F9E7     		b	.L65
 1127              	.LVL85:
 1128              	.L85:
 778:../03_Drivers/STM32L4xx_HAL_Driver/Src/stm32l4xx_hal_uart_ex.c **** 
 1129              		.loc 1 778 5 view .LVU303
 1130 0168 0220     		movs	r0, #2
 1131              	.LVL86:
 778:../03_Drivers/STM32L4xx_HAL_Driver/Src/stm32l4xx_hal_uart_ex.c **** 
 1132              		.loc 1 778 5 view .LVU304
 1133 016a F7E7     		b	.L65
 1134              		.cfi_endproc
 1135              	.LFE296:
 1137              		.section	.text.HAL_UARTEx_ReceiveToIdle_IT,"ax",%progbits
 1138              		.align	1
 1139              		.global	HAL_UARTEx_ReceiveToIdle_IT
 1140              		.syntax unified
 1141              		.thumb
 1142              		.thumb_func
 1143              		.fpu fpv4-sp-d16
 1145              	HAL_UARTEx_ReceiveToIdle_IT:
 1146              	.LVL87:
 1147              	.LFB297:
 887:../03_Drivers/STM32L4xx_HAL_Driver/Src/stm32l4xx_hal_uart_ex.c ****   HAL_StatusTypeDef status;
 1148              		.loc 1 887 1 is_stmt 1 view -0
ARM GAS  C:\Users\minde\AppData\Local\Temp\ccUwUXx6.s 			page 44


 1149              		.cfi_startproc
 1150              		@ args = 0, pretend = 0, frame = 0
 1151              		@ frame_needed = 0, uses_anonymous_args = 0
 888:../03_Drivers/STM32L4xx_HAL_Driver/Src/stm32l4xx_hal_uart_ex.c **** 
 1152              		.loc 1 888 3 view .LVU306
 891:../03_Drivers/STM32L4xx_HAL_Driver/Src/stm32l4xx_hal_uart_ex.c ****   {
 1153              		.loc 1 891 3 view .LVU307
 891:../03_Drivers/STM32L4xx_HAL_Driver/Src/stm32l4xx_hal_uart_ex.c ****   {
 1154              		.loc 1 891 12 is_stmt 0 view .LVU308
 1155 0000 C36F     		ldr	r3, [r0, #124]
 891:../03_Drivers/STM32L4xx_HAL_Driver/Src/stm32l4xx_hal_uart_ex.c ****   {
 1156              		.loc 1 891 6 view .LVU309
 1157 0002 202B     		cmp	r3, #32
 1158 0004 1CD1     		bne	.L99
 887:../03_Drivers/STM32L4xx_HAL_Driver/Src/stm32l4xx_hal_uart_ex.c ****   HAL_StatusTypeDef status;
 1159              		.loc 1 887 1 view .LVU310
 1160 0006 10B5     		push	{r4, lr}
 1161              	.LCFI13:
 1162              		.cfi_def_cfa_offset 8
 1163              		.cfi_offset 4, -8
 1164              		.cfi_offset 14, -4
 1165 0008 0446     		mov	r4, r0
 893:../03_Drivers/STM32L4xx_HAL_Driver/Src/stm32l4xx_hal_uart_ex.c ****     {
 1166              		.loc 1 893 5 is_stmt 1 view .LVU311
 893:../03_Drivers/STM32L4xx_HAL_Driver/Src/stm32l4xx_hal_uart_ex.c ****     {
 1167              		.loc 1 893 8 is_stmt 0 view .LVU312
 1168 000a D9B1     		cbz	r1, .L100
 893:../03_Drivers/STM32L4xx_HAL_Driver/Src/stm32l4xx_hal_uart_ex.c ****     {
 1169              		.loc 1 893 25 discriminator 1 view .LVU313
 1170 000c E2B1     		cbz	r2, .L101
 898:../03_Drivers/STM32L4xx_HAL_Driver/Src/stm32l4xx_hal_uart_ex.c **** 
 1171              		.loc 1 898 5 is_stmt 1 view .LVU314
 898:../03_Drivers/STM32L4xx_HAL_Driver/Src/stm32l4xx_hal_uart_ex.c **** 
 1172              		.loc 1 898 5 view .LVU315
 1173 000e 90F87430 		ldrb	r3, [r0, #116]	@ zero_extendqisi2
 1174 0012 012B     		cmp	r3, #1
 1175 0014 1AD0     		beq	.L102
 898:../03_Drivers/STM32L4xx_HAL_Driver/Src/stm32l4xx_hal_uart_ex.c **** 
 1176              		.loc 1 898 5 discriminator 2 view .LVU316
 1177 0016 0123     		movs	r3, #1
 1178 0018 80F87430 		strb	r3, [r0, #116]
 898:../03_Drivers/STM32L4xx_HAL_Driver/Src/stm32l4xx_hal_uart_ex.c **** 
 1179              		.loc 1 898 5 discriminator 2 view .LVU317
 901:../03_Drivers/STM32L4xx_HAL_Driver/Src/stm32l4xx_hal_uart_ex.c **** 
 1180              		.loc 1 901 5 discriminator 2 view .LVU318
 901:../03_Drivers/STM32L4xx_HAL_Driver/Src/stm32l4xx_hal_uart_ex.c **** 
 1181              		.loc 1 901 26 is_stmt 0 discriminator 2 view .LVU319
 1182 001c 0366     		str	r3, [r0, #96]
 903:../03_Drivers/STM32L4xx_HAL_Driver/Src/stm32l4xx_hal_uart_ex.c **** 
 1183              		.loc 1 903 5 is_stmt 1 discriminator 2 view .LVU320
 903:../03_Drivers/STM32L4xx_HAL_Driver/Src/stm32l4xx_hal_uart_ex.c **** 
 1184              		.loc 1 903 15 is_stmt 0 discriminator 2 view .LVU321
 1185 001e FFF7FEFF 		bl	UART_Start_Receive_IT
 1186              	.LVL88:
 906:../03_Drivers/STM32L4xx_HAL_Driver/Src/stm32l4xx_hal_uart_ex.c ****     {
 1187              		.loc 1 906 5 is_stmt 1 discriminator 2 view .LVU322
 906:../03_Drivers/STM32L4xx_HAL_Driver/Src/stm32l4xx_hal_uart_ex.c ****     {
ARM GAS  C:\Users\minde\AppData\Local\Temp\ccUwUXx6.s 			page 45


 1188              		.loc 1 906 8 is_stmt 0 discriminator 2 view .LVU323
 1189 0022 90B9     		cbnz	r0, .L97
 908:../03_Drivers/STM32L4xx_HAL_Driver/Src/stm32l4xx_hal_uart_ex.c ****       {
 1190              		.loc 1 908 7 is_stmt 1 view .LVU324
 908:../03_Drivers/STM32L4xx_HAL_Driver/Src/stm32l4xx_hal_uart_ex.c ****       {
 1191              		.loc 1 908 16 is_stmt 0 view .LVU325
 1192 0024 236E     		ldr	r3, [r4, #96]
 908:../03_Drivers/STM32L4xx_HAL_Driver/Src/stm32l4xx_hal_uart_ex.c ****       {
 1193              		.loc 1 908 10 view .LVU326
 1194 0026 012B     		cmp	r3, #1
 1195 0028 01D0     		beq	.L108
 919:../03_Drivers/STM32L4xx_HAL_Driver/Src/stm32l4xx_hal_uart_ex.c ****       }
 1196              		.loc 1 919 16 view .LVU327
 1197 002a 0120     		movs	r0, #1
 1198              	.LVL89:
 923:../03_Drivers/STM32L4xx_HAL_Driver/Src/stm32l4xx_hal_uart_ex.c ****   }
 1199              		.loc 1 923 5 is_stmt 1 view .LVU328
 923:../03_Drivers/STM32L4xx_HAL_Driver/Src/stm32l4xx_hal_uart_ex.c ****   }
 1200              		.loc 1 923 12 is_stmt 0 view .LVU329
 1201 002c 0DE0     		b	.L97
 1202              	.LVL90:
 1203              	.L108:
 910:../03_Drivers/STM32L4xx_HAL_Driver/Src/stm32l4xx_hal_uart_ex.c ****         SET_BIT(huart->Instance->CR1, USART_CR1_IDLEIE);
 1204              		.loc 1 910 9 is_stmt 1 view .LVU330
 1205 002e 2368     		ldr	r3, [r4]
 1206 0030 1022     		movs	r2, #16
 1207 0032 1A62     		str	r2, [r3, #32]
 911:../03_Drivers/STM32L4xx_HAL_Driver/Src/stm32l4xx_hal_uart_ex.c ****       }
 1208              		.loc 1 911 9 view .LVU331
 1209 0034 2268     		ldr	r2, [r4]
 1210 0036 1368     		ldr	r3, [r2]
 1211 0038 43F01003 		orr	r3, r3, #16
 1212 003c 1360     		str	r3, [r2]
 1213 003e 04E0     		b	.L97
 1214              	.LVL91:
 1215              	.L99:
 1216              	.LCFI14:
 1217              		.cfi_def_cfa_offset 0
 1218              		.cfi_restore 4
 1219              		.cfi_restore 14
 927:../03_Drivers/STM32L4xx_HAL_Driver/Src/stm32l4xx_hal_uart_ex.c ****   }
 1220              		.loc 1 927 12 is_stmt 0 view .LVU332
 1221 0040 0220     		movs	r0, #2
 1222              	.LVL92:
 929:../03_Drivers/STM32L4xx_HAL_Driver/Src/stm32l4xx_hal_uart_ex.c **** 
 1223              		.loc 1 929 1 view .LVU333
 1224 0042 7047     		bx	lr
 1225              	.LVL93:
 1226              	.L100:
 1227              	.LCFI15:
 1228              		.cfi_def_cfa_offset 8
 1229              		.cfi_offset 4, -8
 1230              		.cfi_offset 14, -4
 895:../03_Drivers/STM32L4xx_HAL_Driver/Src/stm32l4xx_hal_uart_ex.c ****     }
 1231              		.loc 1 895 14 view .LVU334
 1232 0044 0120     		movs	r0, #1
 1233              	.LVL94:
ARM GAS  C:\Users\minde\AppData\Local\Temp\ccUwUXx6.s 			page 46


 895:../03_Drivers/STM32L4xx_HAL_Driver/Src/stm32l4xx_hal_uart_ex.c ****     }
 1234              		.loc 1 895 14 view .LVU335
 1235 0046 00E0     		b	.L97
 1236              	.LVL95:
 1237              	.L101:
 895:../03_Drivers/STM32L4xx_HAL_Driver/Src/stm32l4xx_hal_uart_ex.c ****     }
 1238              		.loc 1 895 14 view .LVU336
 1239 0048 0120     		movs	r0, #1
 1240              	.LVL96:
 1241              	.L97:
 929:../03_Drivers/STM32L4xx_HAL_Driver/Src/stm32l4xx_hal_uart_ex.c **** 
 1242              		.loc 1 929 1 view .LVU337
 1243 004a 10BD     		pop	{r4, pc}
 1244              	.LVL97:
 1245              	.L102:
 898:../03_Drivers/STM32L4xx_HAL_Driver/Src/stm32l4xx_hal_uart_ex.c **** 
 1246              		.loc 1 898 5 view .LVU338
 1247 004c 0220     		movs	r0, #2
 1248              	.LVL98:
 898:../03_Drivers/STM32L4xx_HAL_Driver/Src/stm32l4xx_hal_uart_ex.c **** 
 1249              		.loc 1 898 5 view .LVU339
 1250 004e FCE7     		b	.L97
 1251              		.cfi_endproc
 1252              	.LFE297:
 1254              		.section	.text.HAL_UARTEx_ReceiveToIdle_DMA,"ax",%progbits
 1255              		.align	1
 1256              		.global	HAL_UARTEx_ReceiveToIdle_DMA
 1257              		.syntax unified
 1258              		.thumb
 1259              		.thumb_func
 1260              		.fpu fpv4-sp-d16
 1262              	HAL_UARTEx_ReceiveToIdle_DMA:
 1263              	.LVL99:
 1264              	.LFB298:
 948:../03_Drivers/STM32L4xx_HAL_Driver/Src/stm32l4xx_hal_uart_ex.c ****   HAL_StatusTypeDef status;
 1265              		.loc 1 948 1 is_stmt 1 view -0
 1266              		.cfi_startproc
 1267              		@ args = 0, pretend = 0, frame = 0
 1268              		@ frame_needed = 0, uses_anonymous_args = 0
 949:../03_Drivers/STM32L4xx_HAL_Driver/Src/stm32l4xx_hal_uart_ex.c **** 
 1269              		.loc 1 949 3 view .LVU341
 952:../03_Drivers/STM32L4xx_HAL_Driver/Src/stm32l4xx_hal_uart_ex.c ****   {
 1270              		.loc 1 952 3 view .LVU342
 952:../03_Drivers/STM32L4xx_HAL_Driver/Src/stm32l4xx_hal_uart_ex.c ****   {
 1271              		.loc 1 952 12 is_stmt 0 view .LVU343
 1272 0000 C36F     		ldr	r3, [r0, #124]
 952:../03_Drivers/STM32L4xx_HAL_Driver/Src/stm32l4xx_hal_uart_ex.c ****   {
 1273              		.loc 1 952 6 view .LVU344
 1274 0002 202B     		cmp	r3, #32
 1275 0004 1CD1     		bne	.L112
 948:../03_Drivers/STM32L4xx_HAL_Driver/Src/stm32l4xx_hal_uart_ex.c ****   HAL_StatusTypeDef status;
 1276              		.loc 1 948 1 view .LVU345
 1277 0006 10B5     		push	{r4, lr}
 1278              	.LCFI16:
 1279              		.cfi_def_cfa_offset 8
 1280              		.cfi_offset 4, -8
 1281              		.cfi_offset 14, -4
ARM GAS  C:\Users\minde\AppData\Local\Temp\ccUwUXx6.s 			page 47


 1282 0008 0446     		mov	r4, r0
 954:../03_Drivers/STM32L4xx_HAL_Driver/Src/stm32l4xx_hal_uart_ex.c ****     {
 1283              		.loc 1 954 5 is_stmt 1 view .LVU346
 954:../03_Drivers/STM32L4xx_HAL_Driver/Src/stm32l4xx_hal_uart_ex.c ****     {
 1284              		.loc 1 954 8 is_stmt 0 view .LVU347
 1285 000a D9B1     		cbz	r1, .L113
 954:../03_Drivers/STM32L4xx_HAL_Driver/Src/stm32l4xx_hal_uart_ex.c ****     {
 1286              		.loc 1 954 25 discriminator 1 view .LVU348
 1287 000c E2B1     		cbz	r2, .L114
 959:../03_Drivers/STM32L4xx_HAL_Driver/Src/stm32l4xx_hal_uart_ex.c **** 
 1288              		.loc 1 959 5 is_stmt 1 view .LVU349
 959:../03_Drivers/STM32L4xx_HAL_Driver/Src/stm32l4xx_hal_uart_ex.c **** 
 1289              		.loc 1 959 5 view .LVU350
 1290 000e 90F87430 		ldrb	r3, [r0, #116]	@ zero_extendqisi2
 1291 0012 012B     		cmp	r3, #1
 1292 0014 1AD0     		beq	.L115
 959:../03_Drivers/STM32L4xx_HAL_Driver/Src/stm32l4xx_hal_uart_ex.c **** 
 1293              		.loc 1 959 5 discriminator 2 view .LVU351
 1294 0016 0123     		movs	r3, #1
 1295 0018 80F87430 		strb	r3, [r0, #116]
 959:../03_Drivers/STM32L4xx_HAL_Driver/Src/stm32l4xx_hal_uart_ex.c **** 
 1296              		.loc 1 959 5 discriminator 2 view .LVU352
 962:../03_Drivers/STM32L4xx_HAL_Driver/Src/stm32l4xx_hal_uart_ex.c **** 
 1297              		.loc 1 962 5 discriminator 2 view .LVU353
 962:../03_Drivers/STM32L4xx_HAL_Driver/Src/stm32l4xx_hal_uart_ex.c **** 
 1298              		.loc 1 962 26 is_stmt 0 discriminator 2 view .LVU354
 1299 001c 0366     		str	r3, [r0, #96]
 964:../03_Drivers/STM32L4xx_HAL_Driver/Src/stm32l4xx_hal_uart_ex.c **** 
 1300              		.loc 1 964 5 is_stmt 1 discriminator 2 view .LVU355
 964:../03_Drivers/STM32L4xx_HAL_Driver/Src/stm32l4xx_hal_uart_ex.c **** 
 1301              		.loc 1 964 15 is_stmt 0 discriminator 2 view .LVU356
 1302 001e FFF7FEFF 		bl	UART_Start_Receive_DMA
 1303              	.LVL100:
 967:../03_Drivers/STM32L4xx_HAL_Driver/Src/stm32l4xx_hal_uart_ex.c ****     {
 1304              		.loc 1 967 5 is_stmt 1 discriminator 2 view .LVU357
 967:../03_Drivers/STM32L4xx_HAL_Driver/Src/stm32l4xx_hal_uart_ex.c ****     {
 1305              		.loc 1 967 8 is_stmt 0 discriminator 2 view .LVU358
 1306 0022 90B9     		cbnz	r0, .L110
 969:../03_Drivers/STM32L4xx_HAL_Driver/Src/stm32l4xx_hal_uart_ex.c ****       {
 1307              		.loc 1 969 7 is_stmt 1 view .LVU359
 969:../03_Drivers/STM32L4xx_HAL_Driver/Src/stm32l4xx_hal_uart_ex.c ****       {
 1308              		.loc 1 969 16 is_stmt 0 view .LVU360
 1309 0024 236E     		ldr	r3, [r4, #96]
 969:../03_Drivers/STM32L4xx_HAL_Driver/Src/stm32l4xx_hal_uart_ex.c ****       {
 1310              		.loc 1 969 10 view .LVU361
 1311 0026 012B     		cmp	r3, #1
 1312 0028 01D0     		beq	.L121
 980:../03_Drivers/STM32L4xx_HAL_Driver/Src/stm32l4xx_hal_uart_ex.c ****       }
 1313              		.loc 1 980 16 view .LVU362
 1314 002a 0120     		movs	r0, #1
 1315              	.LVL101:
 984:../03_Drivers/STM32L4xx_HAL_Driver/Src/stm32l4xx_hal_uart_ex.c ****   }
 1316              		.loc 1 984 5 is_stmt 1 view .LVU363
 984:../03_Drivers/STM32L4xx_HAL_Driver/Src/stm32l4xx_hal_uart_ex.c ****   }
 1317              		.loc 1 984 12 is_stmt 0 view .LVU364
 1318 002c 0DE0     		b	.L110
 1319              	.LVL102:
ARM GAS  C:\Users\minde\AppData\Local\Temp\ccUwUXx6.s 			page 48


 1320              	.L121:
 971:../03_Drivers/STM32L4xx_HAL_Driver/Src/stm32l4xx_hal_uart_ex.c ****         SET_BIT(huart->Instance->CR1, USART_CR1_IDLEIE);
 1321              		.loc 1 971 9 is_stmt 1 view .LVU365
 1322 002e 2368     		ldr	r3, [r4]
 1323 0030 1022     		movs	r2, #16
 1324 0032 1A62     		str	r2, [r3, #32]
 972:../03_Drivers/STM32L4xx_HAL_Driver/Src/stm32l4xx_hal_uart_ex.c ****       }
 1325              		.loc 1 972 9 view .LVU366
 1326 0034 2268     		ldr	r2, [r4]
 1327 0036 1368     		ldr	r3, [r2]
 1328 0038 43F01003 		orr	r3, r3, #16
 1329 003c 1360     		str	r3, [r2]
 1330 003e 04E0     		b	.L110
 1331              	.LVL103:
 1332              	.L112:
 1333              	.LCFI17:
 1334              		.cfi_def_cfa_offset 0
 1335              		.cfi_restore 4
 1336              		.cfi_restore 14
 988:../03_Drivers/STM32L4xx_HAL_Driver/Src/stm32l4xx_hal_uart_ex.c ****   }
 1337              		.loc 1 988 12 is_stmt 0 view .LVU367
 1338 0040 0220     		movs	r0, #2
 1339              	.LVL104:
 990:../03_Drivers/STM32L4xx_HAL_Driver/Src/stm32l4xx_hal_uart_ex.c **** 
 1340              		.loc 1 990 1 view .LVU368
 1341 0042 7047     		bx	lr
 1342              	.LVL105:
 1343              	.L113:
 1344              	.LCFI18:
 1345              		.cfi_def_cfa_offset 8
 1346              		.cfi_offset 4, -8
 1347              		.cfi_offset 14, -4
 956:../03_Drivers/STM32L4xx_HAL_Driver/Src/stm32l4xx_hal_uart_ex.c ****     }
 1348              		.loc 1 956 14 view .LVU369
 1349 0044 0120     		movs	r0, #1
 1350              	.LVL106:
 956:../03_Drivers/STM32L4xx_HAL_Driver/Src/stm32l4xx_hal_uart_ex.c ****     }
 1351              		.loc 1 956 14 view .LVU370
 1352 0046 00E0     		b	.L110
 1353              	.LVL107:
 1354              	.L114:
 956:../03_Drivers/STM32L4xx_HAL_Driver/Src/stm32l4xx_hal_uart_ex.c ****     }
 1355              		.loc 1 956 14 view .LVU371
 1356 0048 0120     		movs	r0, #1
 1357              	.LVL108:
 1358              	.L110:
 990:../03_Drivers/STM32L4xx_HAL_Driver/Src/stm32l4xx_hal_uart_ex.c **** 
 1359              		.loc 1 990 1 view .LVU372
 1360 004a 10BD     		pop	{r4, pc}
 1361              	.LVL109:
 1362              	.L115:
 959:../03_Drivers/STM32L4xx_HAL_Driver/Src/stm32l4xx_hal_uart_ex.c **** 
 1363              		.loc 1 959 5 view .LVU373
 1364 004c 0220     		movs	r0, #2
 1365              	.LVL110:
 959:../03_Drivers/STM32L4xx_HAL_Driver/Src/stm32l4xx_hal_uart_ex.c **** 
 1366              		.loc 1 959 5 view .LVU374
ARM GAS  C:\Users\minde\AppData\Local\Temp\ccUwUXx6.s 			page 49


 1367 004e FCE7     		b	.L110
 1368              		.cfi_endproc
 1369              	.LFE298:
 1371              		.text
 1372              	.Letext0:
 1373              		.file 2 "c:\\gnu arm embedded toolchain\\10 2020-q4-major\\arm-none-eabi\\include\\machine\\_defau
 1374              		.file 3 "c:\\gnu arm embedded toolchain\\10 2020-q4-major\\arm-none-eabi\\include\\sys\\_stdint.h"
 1375              		.file 4 "../03_Drivers/CMSIS/Device/ST/STM32L4xx/Include/stm32l432xx.h"
 1376              		.file 5 "../03_Drivers/CMSIS/Device/ST/STM32L4xx/Include/stm32l4xx.h"
 1377              		.file 6 "../03_Drivers/STM32L4xx_HAL_Driver/Inc/stm32l4xx_hal_def.h"
 1378              		.file 7 "../03_Drivers/STM32L4xx_HAL_Driver/Inc/stm32l4xx_hal_dma.h"
 1379              		.file 8 "../03_Drivers/STM32L4xx_HAL_Driver/Inc/stm32l4xx_hal_uart.h"
 1380              		.file 9 "../03_Drivers/STM32L4xx_HAL_Driver/Inc/stm32l4xx_hal_uart_ex.h"
 1381              		.file 10 "../02_OS/Core_Reg/stm32l4xx_hal_conf.h"
 1382              		.file 11 "../03_Drivers/STM32L4xx_HAL_Driver/Inc/stm32l4xx_hal.h"
ARM GAS  C:\Users\minde\AppData\Local\Temp\ccUwUXx6.s 			page 50


DEFINED SYMBOLS
                            *ABS*:00000000 stm32l4xx_hal_uart_ex.c
C:\Users\minde\AppData\Local\Temp\ccUwUXx6.s:18     .rodata.UARTEx_Wakeup_AddressConfig.str1.4:00000000 $d
C:\Users\minde\AppData\Local\Temp\ccUwUXx6.s:23     .text.UARTEx_Wakeup_AddressConfig:00000000 $t
C:\Users\minde\AppData\Local\Temp\ccUwUXx6.s:30     .text.UARTEx_Wakeup_AddressConfig:00000000 UARTEx_Wakeup_AddressConfig
C:\Users\minde\AppData\Local\Temp\ccUwUXx6.s:94     .text.UARTEx_Wakeup_AddressConfig:00000044 $d
C:\Users\minde\AppData\Local\Temp\ccUwUXx6.s:99     .text.HAL_RS485Ex_Init:00000000 $t
C:\Users\minde\AppData\Local\Temp\ccUwUXx6.s:106    .text.HAL_RS485Ex_Init:00000000 HAL_RS485Ex_Init
C:\Users\minde\AppData\Local\Temp\ccUwUXx6.s:301    .text.HAL_RS485Ex_Init:000000d8 $d
C:\Users\minde\AppData\Local\Temp\ccUwUXx6.s:307    .text.HAL_UARTEx_WakeupCallback:00000000 $t
C:\Users\minde\AppData\Local\Temp\ccUwUXx6.s:314    .text.HAL_UARTEx_WakeupCallback:00000000 HAL_UARTEx_WakeupCallback
C:\Users\minde\AppData\Local\Temp\ccUwUXx6.s:329    .text.HAL_UARTEx_EnableClockStopMode:00000000 $t
C:\Users\minde\AppData\Local\Temp\ccUwUXx6.s:336    .text.HAL_UARTEx_EnableClockStopMode:00000000 HAL_UARTEx_EnableClockStopMode
C:\Users\minde\AppData\Local\Temp\ccUwUXx6.s:380    .text.HAL_UARTEx_DisableClockStopMode:00000000 $t
C:\Users\minde\AppData\Local\Temp\ccUwUXx6.s:387    .text.HAL_UARTEx_DisableClockStopMode:00000000 HAL_UARTEx_DisableClockStopMode
C:\Users\minde\AppData\Local\Temp\ccUwUXx6.s:431    .text.HAL_MultiProcessorEx_AddressLength_Set:00000000 $t
C:\Users\minde\AppData\Local\Temp\ccUwUXx6.s:438    .text.HAL_MultiProcessorEx_AddressLength_Set:00000000 HAL_MultiProcessorEx_AddressLength_Set
C:\Users\minde\AppData\Local\Temp\ccUwUXx6.s:522    .text.HAL_MultiProcessorEx_AddressLength_Set:0000004c $d
C:\Users\minde\AppData\Local\Temp\ccUwUXx6.s:527    .text.HAL_UARTEx_StopModeWakeUpSourceConfig:00000000 $t
C:\Users\minde\AppData\Local\Temp\ccUwUXx6.s:534    .text.HAL_UARTEx_StopModeWakeUpSourceConfig:00000000 HAL_UARTEx_StopModeWakeUpSourceConfig
C:\Users\minde\AppData\Local\Temp\ccUwUXx6.s:690    .text.HAL_UARTEx_StopModeWakeUpSourceConfig:000000bc $d
C:\Users\minde\AppData\Local\Temp\ccUwUXx6.s:696    .text.HAL_UARTEx_EnableStopMode:00000000 $t
C:\Users\minde\AppData\Local\Temp\ccUwUXx6.s:703    .text.HAL_UARTEx_EnableStopMode:00000000 HAL_UARTEx_EnableStopMode
C:\Users\minde\AppData\Local\Temp\ccUwUXx6.s:747    .text.HAL_UARTEx_DisableStopMode:00000000 $t
C:\Users\minde\AppData\Local\Temp\ccUwUXx6.s:754    .text.HAL_UARTEx_DisableStopMode:00000000 HAL_UARTEx_DisableStopMode
C:\Users\minde\AppData\Local\Temp\ccUwUXx6.s:798    .text.HAL_UARTEx_ReceiveToIdle:00000000 $t
C:\Users\minde\AppData\Local\Temp\ccUwUXx6.s:805    .text.HAL_UARTEx_ReceiveToIdle:00000000 HAL_UARTEx_ReceiveToIdle
C:\Users\minde\AppData\Local\Temp\ccUwUXx6.s:1138   .text.HAL_UARTEx_ReceiveToIdle_IT:00000000 $t
C:\Users\minde\AppData\Local\Temp\ccUwUXx6.s:1145   .text.HAL_UARTEx_ReceiveToIdle_IT:00000000 HAL_UARTEx_ReceiveToIdle_IT
C:\Users\minde\AppData\Local\Temp\ccUwUXx6.s:1255   .text.HAL_UARTEx_ReceiveToIdle_DMA:00000000 $t
C:\Users\minde\AppData\Local\Temp\ccUwUXx6.s:1262   .text.HAL_UARTEx_ReceiveToIdle_DMA:00000000 HAL_UARTEx_ReceiveToIdle_DMA

UNDEFINED SYMBOLS
assert_failed
UART_SetConfig
UART_CheckIdleState
HAL_UART_MspInit
UART_AdvFeatureConfig
HAL_GetTick
UART_WaitOnFlagUntilTimeout
UART_Start_Receive_IT
UART_Start_Receive_DMA
