ARM GAS  C:\Users\minde\AppData\Local\Temp\cc31p2l9.s 			page 1


   1              		.cpu cortex-m4
   2              		.eabi_attribute 27, 1
   3              		.eabi_attribute 28, 1
   4              		.eabi_attribute 20, 1
   5              		.eabi_attribute 21, 1
   6              		.eabi_attribute 23, 3
   7              		.eabi_attribute 24, 1
   8              		.eabi_attribute 25, 1
   9              		.eabi_attribute 26, 1
  10              		.eabi_attribute 30, 1
  11              		.eabi_attribute 34, 1
  12              		.eabi_attribute 18, 4
  13              		.file	"stm32l4xx_hal_flash.c"
  14              		.text
  15              	.Ltext0:
  16              		.cfi_sections	.debug_frame
  17              		.section	.rodata.FLASH_Program_DoubleWord.str1.4,"aMS",%progbits,1
  18              		.align	2
  19              	.LC0:
  20 0000 2E2E2F30 		.ascii	"../03_Drivers/STM32L4xx_HAL_Driver/Src/stm32l4xx_ha"
  20      335F4472 
  20      69766572 
  20      732F5354 
  20      4D33324C 
  21 0033 6C5F666C 		.ascii	"l_flash.c\000"
  21      6173682E 
  21      6300
  22              		.section	.text.FLASH_Program_DoubleWord,"ax",%progbits
  23              		.align	1
  24              		.arch armv7e-m
  25              		.syntax unified
  26              		.thumb
  27              		.thumb_func
  28              		.fpu fpv4-sp-d16
  30              	FLASH_Program_DoubleWord:
  31              	.LVL0:
  32              	.LFB300:
  33              		.file 1 "../03_Drivers/STM32L4xx_HAL_Driver/Src/stm32l4xx_hal_flash.c"
   1:../03_Drivers/STM32L4xx_HAL_Driver/Src/stm32l4xx_hal_flash.c **** /**
   2:../03_Drivers/STM32L4xx_HAL_Driver/Src/stm32l4xx_hal_flash.c ****   ******************************************************************************
   3:../03_Drivers/STM32L4xx_HAL_Driver/Src/stm32l4xx_hal_flash.c ****   * @file    stm32l4xx_hal_flash.c
   4:../03_Drivers/STM32L4xx_HAL_Driver/Src/stm32l4xx_hal_flash.c ****   * @author  MCD Application Team
   5:../03_Drivers/STM32L4xx_HAL_Driver/Src/stm32l4xx_hal_flash.c ****   * @brief   FLASH HAL module driver.
   6:../03_Drivers/STM32L4xx_HAL_Driver/Src/stm32l4xx_hal_flash.c ****   *          This file provides firmware functions to manage the following
   7:../03_Drivers/STM32L4xx_HAL_Driver/Src/stm32l4xx_hal_flash.c ****   *          functionalities of the internal FLASH memory:
   8:../03_Drivers/STM32L4xx_HAL_Driver/Src/stm32l4xx_hal_flash.c ****   *           + Program operations functions
   9:../03_Drivers/STM32L4xx_HAL_Driver/Src/stm32l4xx_hal_flash.c ****   *           + Memory Control functions
  10:../03_Drivers/STM32L4xx_HAL_Driver/Src/stm32l4xx_hal_flash.c ****   *           + Peripheral Errors functions
  11:../03_Drivers/STM32L4xx_HAL_Driver/Src/stm32l4xx_hal_flash.c ****   *
  12:../03_Drivers/STM32L4xx_HAL_Driver/Src/stm32l4xx_hal_flash.c ****  @verbatim
  13:../03_Drivers/STM32L4xx_HAL_Driver/Src/stm32l4xx_hal_flash.c ****   ==============================================================================
  14:../03_Drivers/STM32L4xx_HAL_Driver/Src/stm32l4xx_hal_flash.c ****                         ##### FLASH peripheral features #####
  15:../03_Drivers/STM32L4xx_HAL_Driver/Src/stm32l4xx_hal_flash.c ****   ==============================================================================
  16:../03_Drivers/STM32L4xx_HAL_Driver/Src/stm32l4xx_hal_flash.c **** 
  17:../03_Drivers/STM32L4xx_HAL_Driver/Src/stm32l4xx_hal_flash.c ****   [..] The Flash memory interface manages CPU AHB I-Code and D-Code accesses
  18:../03_Drivers/STM32L4xx_HAL_Driver/Src/stm32l4xx_hal_flash.c ****        to the Flash memory. It implements the erase and program Flash memory operations
  19:../03_Drivers/STM32L4xx_HAL_Driver/Src/stm32l4xx_hal_flash.c ****        and the read and write protection mechanisms.
ARM GAS  C:\Users\minde\AppData\Local\Temp\cc31p2l9.s 			page 2


  20:../03_Drivers/STM32L4xx_HAL_Driver/Src/stm32l4xx_hal_flash.c **** 
  21:../03_Drivers/STM32L4xx_HAL_Driver/Src/stm32l4xx_hal_flash.c ****   [..] The Flash memory interface accelerates code execution with a system of instruction
  22:../03_Drivers/STM32L4xx_HAL_Driver/Src/stm32l4xx_hal_flash.c ****        prefetch and cache lines.
  23:../03_Drivers/STM32L4xx_HAL_Driver/Src/stm32l4xx_hal_flash.c **** 
  24:../03_Drivers/STM32L4xx_HAL_Driver/Src/stm32l4xx_hal_flash.c ****   [..] The FLASH main features are:
  25:../03_Drivers/STM32L4xx_HAL_Driver/Src/stm32l4xx_hal_flash.c ****       (+) Flash memory read operations
  26:../03_Drivers/STM32L4xx_HAL_Driver/Src/stm32l4xx_hal_flash.c ****       (+) Flash memory program/erase operations
  27:../03_Drivers/STM32L4xx_HAL_Driver/Src/stm32l4xx_hal_flash.c ****       (+) Read / write protections
  28:../03_Drivers/STM32L4xx_HAL_Driver/Src/stm32l4xx_hal_flash.c ****       (+) Option bytes programming
  29:../03_Drivers/STM32L4xx_HAL_Driver/Src/stm32l4xx_hal_flash.c ****       (+) Prefetch on I-Code
  30:../03_Drivers/STM32L4xx_HAL_Driver/Src/stm32l4xx_hal_flash.c ****       (+) 32 cache lines of 4*64 bits on I-Code
  31:../03_Drivers/STM32L4xx_HAL_Driver/Src/stm32l4xx_hal_flash.c ****       (+) 8 cache lines of 4*64 bits on D-Code
  32:../03_Drivers/STM32L4xx_HAL_Driver/Src/stm32l4xx_hal_flash.c ****       (+) Error code correction (ECC) : Data in flash are 72-bits word
  33:../03_Drivers/STM32L4xx_HAL_Driver/Src/stm32l4xx_hal_flash.c ****           (8 bits added per double word)
  34:../03_Drivers/STM32L4xx_HAL_Driver/Src/stm32l4xx_hal_flash.c **** 
  35:../03_Drivers/STM32L4xx_HAL_Driver/Src/stm32l4xx_hal_flash.c **** 
  36:../03_Drivers/STM32L4xx_HAL_Driver/Src/stm32l4xx_hal_flash.c ****                         ##### How to use this driver #####
  37:../03_Drivers/STM32L4xx_HAL_Driver/Src/stm32l4xx_hal_flash.c ****  ==============================================================================
  38:../03_Drivers/STM32L4xx_HAL_Driver/Src/stm32l4xx_hal_flash.c ****     [..]
  39:../03_Drivers/STM32L4xx_HAL_Driver/Src/stm32l4xx_hal_flash.c ****       This driver provides functions and macros to configure and program the FLASH
  40:../03_Drivers/STM32L4xx_HAL_Driver/Src/stm32l4xx_hal_flash.c ****       memory of all STM32L4xx devices.
  41:../03_Drivers/STM32L4xx_HAL_Driver/Src/stm32l4xx_hal_flash.c **** 
  42:../03_Drivers/STM32L4xx_HAL_Driver/Src/stm32l4xx_hal_flash.c ****       (#) Flash Memory IO Programming functions:
  43:../03_Drivers/STM32L4xx_HAL_Driver/Src/stm32l4xx_hal_flash.c ****            (++) Lock and Unlock the FLASH interface using HAL_FLASH_Unlock() and
  44:../03_Drivers/STM32L4xx_HAL_Driver/Src/stm32l4xx_hal_flash.c ****                 HAL_FLASH_Lock() functions
  45:../03_Drivers/STM32L4xx_HAL_Driver/Src/stm32l4xx_hal_flash.c ****            (++) Program functions: double word and fast program (full row programming)
  46:../03_Drivers/STM32L4xx_HAL_Driver/Src/stm32l4xx_hal_flash.c ****            (++) There Two modes of programming :
  47:../03_Drivers/STM32L4xx_HAL_Driver/Src/stm32l4xx_hal_flash.c ****             (+++) Polling mode using HAL_FLASH_Program() function
  48:../03_Drivers/STM32L4xx_HAL_Driver/Src/stm32l4xx_hal_flash.c ****             (+++) Interrupt mode using HAL_FLASH_Program_IT() function
  49:../03_Drivers/STM32L4xx_HAL_Driver/Src/stm32l4xx_hal_flash.c **** 
  50:../03_Drivers/STM32L4xx_HAL_Driver/Src/stm32l4xx_hal_flash.c ****       (#) Interrupts and flags management functions :
  51:../03_Drivers/STM32L4xx_HAL_Driver/Src/stm32l4xx_hal_flash.c ****            (++) Handle FLASH interrupts by calling HAL_FLASH_IRQHandler()
  52:../03_Drivers/STM32L4xx_HAL_Driver/Src/stm32l4xx_hal_flash.c ****            (++) Callback functions are called when the flash operations are finished :
  53:../03_Drivers/STM32L4xx_HAL_Driver/Src/stm32l4xx_hal_flash.c ****                 HAL_FLASH_EndOfOperationCallback() when everything is ok, otherwise
  54:../03_Drivers/STM32L4xx_HAL_Driver/Src/stm32l4xx_hal_flash.c ****                 HAL_FLASH_OperationErrorCallback()
  55:../03_Drivers/STM32L4xx_HAL_Driver/Src/stm32l4xx_hal_flash.c ****            (++) Get error flag status by calling HAL_GetError()
  56:../03_Drivers/STM32L4xx_HAL_Driver/Src/stm32l4xx_hal_flash.c **** 
  57:../03_Drivers/STM32L4xx_HAL_Driver/Src/stm32l4xx_hal_flash.c ****       (#) Option bytes management functions :
  58:../03_Drivers/STM32L4xx_HAL_Driver/Src/stm32l4xx_hal_flash.c ****            (++) Lock and Unlock the option bytes using HAL_FLASH_OB_Unlock() and
  59:../03_Drivers/STM32L4xx_HAL_Driver/Src/stm32l4xx_hal_flash.c ****                 HAL_FLASH_OB_Lock() functions
  60:../03_Drivers/STM32L4xx_HAL_Driver/Src/stm32l4xx_hal_flash.c ****            (++) Launch the reload of the option bytes using HAL_FLASH_Launch() function.
  61:../03_Drivers/STM32L4xx_HAL_Driver/Src/stm32l4xx_hal_flash.c ****                 In this case, a reset is generated
  62:../03_Drivers/STM32L4xx_HAL_Driver/Src/stm32l4xx_hal_flash.c **** 
  63:../03_Drivers/STM32L4xx_HAL_Driver/Src/stm32l4xx_hal_flash.c ****     [..]
  64:../03_Drivers/STM32L4xx_HAL_Driver/Src/stm32l4xx_hal_flash.c ****       In addition to these functions, this driver includes a set of macros allowing
  65:../03_Drivers/STM32L4xx_HAL_Driver/Src/stm32l4xx_hal_flash.c ****       to handle the following operations:
  66:../03_Drivers/STM32L4xx_HAL_Driver/Src/stm32l4xx_hal_flash.c ****        (+) Set the latency
  67:../03_Drivers/STM32L4xx_HAL_Driver/Src/stm32l4xx_hal_flash.c ****        (+) Enable/Disable the prefetch buffer
  68:../03_Drivers/STM32L4xx_HAL_Driver/Src/stm32l4xx_hal_flash.c ****        (+) Enable/Disable the Instruction cache and the Data cache
  69:../03_Drivers/STM32L4xx_HAL_Driver/Src/stm32l4xx_hal_flash.c ****        (+) Reset the Instruction cache and the Data cache
  70:../03_Drivers/STM32L4xx_HAL_Driver/Src/stm32l4xx_hal_flash.c ****        (+) Enable/Disable the Flash power-down during low-power run and sleep modes
  71:../03_Drivers/STM32L4xx_HAL_Driver/Src/stm32l4xx_hal_flash.c ****        (+) Enable/Disable the Flash interrupts
  72:../03_Drivers/STM32L4xx_HAL_Driver/Src/stm32l4xx_hal_flash.c ****        (+) Monitor the Flash flags status
  73:../03_Drivers/STM32L4xx_HAL_Driver/Src/stm32l4xx_hal_flash.c **** 
  74:../03_Drivers/STM32L4xx_HAL_Driver/Src/stm32l4xx_hal_flash.c ****  @endverbatim
  75:../03_Drivers/STM32L4xx_HAL_Driver/Src/stm32l4xx_hal_flash.c ****   ******************************************************************************
  76:../03_Drivers/STM32L4xx_HAL_Driver/Src/stm32l4xx_hal_flash.c ****   * @attention
ARM GAS  C:\Users\minde\AppData\Local\Temp\cc31p2l9.s 			page 3


  77:../03_Drivers/STM32L4xx_HAL_Driver/Src/stm32l4xx_hal_flash.c ****   *
  78:../03_Drivers/STM32L4xx_HAL_Driver/Src/stm32l4xx_hal_flash.c ****   * <h2><center>&copy; Copyright (c) 2017 STMicroelectronics.
  79:../03_Drivers/STM32L4xx_HAL_Driver/Src/stm32l4xx_hal_flash.c ****   * All rights reserved.</center></h2>
  80:../03_Drivers/STM32L4xx_HAL_Driver/Src/stm32l4xx_hal_flash.c ****   *
  81:../03_Drivers/STM32L4xx_HAL_Driver/Src/stm32l4xx_hal_flash.c ****   * This software component is licensed by ST under BSD 3-Clause license,
  82:../03_Drivers/STM32L4xx_HAL_Driver/Src/stm32l4xx_hal_flash.c ****   * the "License"; You may not use this file except in compliance with the
  83:../03_Drivers/STM32L4xx_HAL_Driver/Src/stm32l4xx_hal_flash.c ****   * License. You may obtain a copy of the License at:
  84:../03_Drivers/STM32L4xx_HAL_Driver/Src/stm32l4xx_hal_flash.c ****   *                       opensource.org/licenses/BSD-3-Clause
  85:../03_Drivers/STM32L4xx_HAL_Driver/Src/stm32l4xx_hal_flash.c ****   *
  86:../03_Drivers/STM32L4xx_HAL_Driver/Src/stm32l4xx_hal_flash.c ****   ******************************************************************************
  87:../03_Drivers/STM32L4xx_HAL_Driver/Src/stm32l4xx_hal_flash.c ****   */
  88:../03_Drivers/STM32L4xx_HAL_Driver/Src/stm32l4xx_hal_flash.c **** 
  89:../03_Drivers/STM32L4xx_HAL_Driver/Src/stm32l4xx_hal_flash.c **** /* Includes ------------------------------------------------------------------*/
  90:../03_Drivers/STM32L4xx_HAL_Driver/Src/stm32l4xx_hal_flash.c **** #include "stm32l4xx_hal.h"
  91:../03_Drivers/STM32L4xx_HAL_Driver/Src/stm32l4xx_hal_flash.c **** 
  92:../03_Drivers/STM32L4xx_HAL_Driver/Src/stm32l4xx_hal_flash.c **** /** @addtogroup STM32L4xx_HAL_Driver
  93:../03_Drivers/STM32L4xx_HAL_Driver/Src/stm32l4xx_hal_flash.c ****   * @{
  94:../03_Drivers/STM32L4xx_HAL_Driver/Src/stm32l4xx_hal_flash.c ****   */
  95:../03_Drivers/STM32L4xx_HAL_Driver/Src/stm32l4xx_hal_flash.c **** 
  96:../03_Drivers/STM32L4xx_HAL_Driver/Src/stm32l4xx_hal_flash.c **** /** @defgroup FLASH FLASH
  97:../03_Drivers/STM32L4xx_HAL_Driver/Src/stm32l4xx_hal_flash.c ****   * @brief FLASH HAL module driver
  98:../03_Drivers/STM32L4xx_HAL_Driver/Src/stm32l4xx_hal_flash.c ****   * @{
  99:../03_Drivers/STM32L4xx_HAL_Driver/Src/stm32l4xx_hal_flash.c ****   */
 100:../03_Drivers/STM32L4xx_HAL_Driver/Src/stm32l4xx_hal_flash.c **** 
 101:../03_Drivers/STM32L4xx_HAL_Driver/Src/stm32l4xx_hal_flash.c **** #ifdef HAL_FLASH_MODULE_ENABLED
 102:../03_Drivers/STM32L4xx_HAL_Driver/Src/stm32l4xx_hal_flash.c **** 
 103:../03_Drivers/STM32L4xx_HAL_Driver/Src/stm32l4xx_hal_flash.c **** /* Private typedef -----------------------------------------------------------*/
 104:../03_Drivers/STM32L4xx_HAL_Driver/Src/stm32l4xx_hal_flash.c **** /* Private defines -----------------------------------------------------------*/
 105:../03_Drivers/STM32L4xx_HAL_Driver/Src/stm32l4xx_hal_flash.c **** #if defined (STM32L4P5xx) || defined (STM32L4Q5xx) || defined (STM32L4R5xx) || defined (STM32L4R7xx
 106:../03_Drivers/STM32L4xx_HAL_Driver/Src/stm32l4xx_hal_flash.c **** #define FLASH_NB_DOUBLE_WORDS_IN_ROW  64
 107:../03_Drivers/STM32L4xx_HAL_Driver/Src/stm32l4xx_hal_flash.c **** #else
 108:../03_Drivers/STM32L4xx_HAL_Driver/Src/stm32l4xx_hal_flash.c **** #define FLASH_NB_DOUBLE_WORDS_IN_ROW  32
 109:../03_Drivers/STM32L4xx_HAL_Driver/Src/stm32l4xx_hal_flash.c **** #endif
 110:../03_Drivers/STM32L4xx_HAL_Driver/Src/stm32l4xx_hal_flash.c **** /* Private macros ------------------------------------------------------------*/
 111:../03_Drivers/STM32L4xx_HAL_Driver/Src/stm32l4xx_hal_flash.c **** /* Private variables ---------------------------------------------------------*/
 112:../03_Drivers/STM32L4xx_HAL_Driver/Src/stm32l4xx_hal_flash.c **** /** @defgroup FLASH_Private_Variables FLASH Private Variables
 113:../03_Drivers/STM32L4xx_HAL_Driver/Src/stm32l4xx_hal_flash.c ****  * @{
 114:../03_Drivers/STM32L4xx_HAL_Driver/Src/stm32l4xx_hal_flash.c ****  */
 115:../03_Drivers/STM32L4xx_HAL_Driver/Src/stm32l4xx_hal_flash.c **** /**
 116:../03_Drivers/STM32L4xx_HAL_Driver/Src/stm32l4xx_hal_flash.c ****   * @brief  Variable used for Program/Erase sectors under interruption
 117:../03_Drivers/STM32L4xx_HAL_Driver/Src/stm32l4xx_hal_flash.c ****   */
 118:../03_Drivers/STM32L4xx_HAL_Driver/Src/stm32l4xx_hal_flash.c **** FLASH_ProcessTypeDef pFlash = {.Lock = HAL_UNLOCKED, \
 119:../03_Drivers/STM32L4xx_HAL_Driver/Src/stm32l4xx_hal_flash.c ****                                .ErrorCode = HAL_FLASH_ERROR_NONE, \
 120:../03_Drivers/STM32L4xx_HAL_Driver/Src/stm32l4xx_hal_flash.c ****                                .ProcedureOnGoing = FLASH_PROC_NONE, \
 121:../03_Drivers/STM32L4xx_HAL_Driver/Src/stm32l4xx_hal_flash.c ****                                .Address = 0U, \
 122:../03_Drivers/STM32L4xx_HAL_Driver/Src/stm32l4xx_hal_flash.c ****                                .Bank = FLASH_BANK_1, \
 123:../03_Drivers/STM32L4xx_HAL_Driver/Src/stm32l4xx_hal_flash.c ****                                .Page = 0U, \
 124:../03_Drivers/STM32L4xx_HAL_Driver/Src/stm32l4xx_hal_flash.c ****                                .NbPagesToErase = 0U, \
 125:../03_Drivers/STM32L4xx_HAL_Driver/Src/stm32l4xx_hal_flash.c ****                                .CacheToReactivate = FLASH_CACHE_DISABLED};
 126:../03_Drivers/STM32L4xx_HAL_Driver/Src/stm32l4xx_hal_flash.c **** /**
 127:../03_Drivers/STM32L4xx_HAL_Driver/Src/stm32l4xx_hal_flash.c ****   * @}
 128:../03_Drivers/STM32L4xx_HAL_Driver/Src/stm32l4xx_hal_flash.c ****   */
 129:../03_Drivers/STM32L4xx_HAL_Driver/Src/stm32l4xx_hal_flash.c **** 
 130:../03_Drivers/STM32L4xx_HAL_Driver/Src/stm32l4xx_hal_flash.c **** /* Private function prototypes -----------------------------------------------*/
 131:../03_Drivers/STM32L4xx_HAL_Driver/Src/stm32l4xx_hal_flash.c **** /** @defgroup FLASH_Private_Functions FLASH Private Functions
 132:../03_Drivers/STM32L4xx_HAL_Driver/Src/stm32l4xx_hal_flash.c ****  * @{
 133:../03_Drivers/STM32L4xx_HAL_Driver/Src/stm32l4xx_hal_flash.c ****  */
ARM GAS  C:\Users\minde\AppData\Local\Temp\cc31p2l9.s 			page 4


 134:../03_Drivers/STM32L4xx_HAL_Driver/Src/stm32l4xx_hal_flash.c **** static void          FLASH_Program_DoubleWord(uint32_t Address, uint64_t Data);
 135:../03_Drivers/STM32L4xx_HAL_Driver/Src/stm32l4xx_hal_flash.c **** static void          FLASH_Program_Fast(uint32_t Address, uint32_t DataAddress);
 136:../03_Drivers/STM32L4xx_HAL_Driver/Src/stm32l4xx_hal_flash.c **** /**
 137:../03_Drivers/STM32L4xx_HAL_Driver/Src/stm32l4xx_hal_flash.c ****   * @}
 138:../03_Drivers/STM32L4xx_HAL_Driver/Src/stm32l4xx_hal_flash.c ****   */
 139:../03_Drivers/STM32L4xx_HAL_Driver/Src/stm32l4xx_hal_flash.c **** 
 140:../03_Drivers/STM32L4xx_HAL_Driver/Src/stm32l4xx_hal_flash.c **** /* Exported functions --------------------------------------------------------*/
 141:../03_Drivers/STM32L4xx_HAL_Driver/Src/stm32l4xx_hal_flash.c **** /** @defgroup FLASH_Exported_Functions FLASH Exported Functions
 142:../03_Drivers/STM32L4xx_HAL_Driver/Src/stm32l4xx_hal_flash.c ****   * @{
 143:../03_Drivers/STM32L4xx_HAL_Driver/Src/stm32l4xx_hal_flash.c ****   */
 144:../03_Drivers/STM32L4xx_HAL_Driver/Src/stm32l4xx_hal_flash.c **** 
 145:../03_Drivers/STM32L4xx_HAL_Driver/Src/stm32l4xx_hal_flash.c **** /** @defgroup FLASH_Exported_Functions_Group1 Programming operation functions
 146:../03_Drivers/STM32L4xx_HAL_Driver/Src/stm32l4xx_hal_flash.c ****  *  @brief   Programming operation functions
 147:../03_Drivers/STM32L4xx_HAL_Driver/Src/stm32l4xx_hal_flash.c ****  *
 148:../03_Drivers/STM32L4xx_HAL_Driver/Src/stm32l4xx_hal_flash.c **** @verbatim
 149:../03_Drivers/STM32L4xx_HAL_Driver/Src/stm32l4xx_hal_flash.c ****  ===============================================================================
 150:../03_Drivers/STM32L4xx_HAL_Driver/Src/stm32l4xx_hal_flash.c ****                   ##### Programming operation functions #####
 151:../03_Drivers/STM32L4xx_HAL_Driver/Src/stm32l4xx_hal_flash.c ****  ===============================================================================
 152:../03_Drivers/STM32L4xx_HAL_Driver/Src/stm32l4xx_hal_flash.c ****     [..]
 153:../03_Drivers/STM32L4xx_HAL_Driver/Src/stm32l4xx_hal_flash.c ****     This subsection provides a set of functions allowing to manage the FLASH
 154:../03_Drivers/STM32L4xx_HAL_Driver/Src/stm32l4xx_hal_flash.c ****     program operations.
 155:../03_Drivers/STM32L4xx_HAL_Driver/Src/stm32l4xx_hal_flash.c **** 
 156:../03_Drivers/STM32L4xx_HAL_Driver/Src/stm32l4xx_hal_flash.c **** @endverbatim
 157:../03_Drivers/STM32L4xx_HAL_Driver/Src/stm32l4xx_hal_flash.c ****   * @{
 158:../03_Drivers/STM32L4xx_HAL_Driver/Src/stm32l4xx_hal_flash.c ****   */
 159:../03_Drivers/STM32L4xx_HAL_Driver/Src/stm32l4xx_hal_flash.c **** 
 160:../03_Drivers/STM32L4xx_HAL_Driver/Src/stm32l4xx_hal_flash.c **** /**
 161:../03_Drivers/STM32L4xx_HAL_Driver/Src/stm32l4xx_hal_flash.c ****   * @brief  Program double word or fast program of a row at a specified address.
 162:../03_Drivers/STM32L4xx_HAL_Driver/Src/stm32l4xx_hal_flash.c ****   * @param  TypeProgram  Indicate the way to program at a specified address.
 163:../03_Drivers/STM32L4xx_HAL_Driver/Src/stm32l4xx_hal_flash.c ****   *                           This parameter can be a value of @ref FLASH_Type_Program
 164:../03_Drivers/STM32L4xx_HAL_Driver/Src/stm32l4xx_hal_flash.c ****   * @param  Address  specifies the address to be programmed.
 165:../03_Drivers/STM32L4xx_HAL_Driver/Src/stm32l4xx_hal_flash.c ****   * @param  Data specifies the data to be programmed
 166:../03_Drivers/STM32L4xx_HAL_Driver/Src/stm32l4xx_hal_flash.c ****   *                This parameter is the data for the double word program and the address where
 167:../03_Drivers/STM32L4xx_HAL_Driver/Src/stm32l4xx_hal_flash.c ****   *                are stored the data for the row fast program
 168:../03_Drivers/STM32L4xx_HAL_Driver/Src/stm32l4xx_hal_flash.c ****   *
 169:../03_Drivers/STM32L4xx_HAL_Driver/Src/stm32l4xx_hal_flash.c ****   * @retval HAL_StatusTypeDef HAL Status
 170:../03_Drivers/STM32L4xx_HAL_Driver/Src/stm32l4xx_hal_flash.c ****   */
 171:../03_Drivers/STM32L4xx_HAL_Driver/Src/stm32l4xx_hal_flash.c **** HAL_StatusTypeDef HAL_FLASH_Program(uint32_t TypeProgram, uint32_t Address, uint64_t Data)
 172:../03_Drivers/STM32L4xx_HAL_Driver/Src/stm32l4xx_hal_flash.c **** {
 173:../03_Drivers/STM32L4xx_HAL_Driver/Src/stm32l4xx_hal_flash.c ****   HAL_StatusTypeDef status;
 174:../03_Drivers/STM32L4xx_HAL_Driver/Src/stm32l4xx_hal_flash.c ****   uint32_t prog_bit = 0;
 175:../03_Drivers/STM32L4xx_HAL_Driver/Src/stm32l4xx_hal_flash.c **** 
 176:../03_Drivers/STM32L4xx_HAL_Driver/Src/stm32l4xx_hal_flash.c ****   /* Process Locked */
 177:../03_Drivers/STM32L4xx_HAL_Driver/Src/stm32l4xx_hal_flash.c ****   __HAL_LOCK(&pFlash);
 178:../03_Drivers/STM32L4xx_HAL_Driver/Src/stm32l4xx_hal_flash.c **** 
 179:../03_Drivers/STM32L4xx_HAL_Driver/Src/stm32l4xx_hal_flash.c ****   /* Check the parameters */
 180:../03_Drivers/STM32L4xx_HAL_Driver/Src/stm32l4xx_hal_flash.c ****   assert_param(IS_FLASH_TYPEPROGRAM(TypeProgram));
 181:../03_Drivers/STM32L4xx_HAL_Driver/Src/stm32l4xx_hal_flash.c **** 
 182:../03_Drivers/STM32L4xx_HAL_Driver/Src/stm32l4xx_hal_flash.c ****   /* Wait for last operation to be completed */
 183:../03_Drivers/STM32L4xx_HAL_Driver/Src/stm32l4xx_hal_flash.c ****   status = FLASH_WaitForLastOperation((uint32_t)FLASH_TIMEOUT_VALUE);
 184:../03_Drivers/STM32L4xx_HAL_Driver/Src/stm32l4xx_hal_flash.c **** 
 185:../03_Drivers/STM32L4xx_HAL_Driver/Src/stm32l4xx_hal_flash.c ****   if(status == HAL_OK)
 186:../03_Drivers/STM32L4xx_HAL_Driver/Src/stm32l4xx_hal_flash.c ****   {
 187:../03_Drivers/STM32L4xx_HAL_Driver/Src/stm32l4xx_hal_flash.c ****     pFlash.ErrorCode = HAL_FLASH_ERROR_NONE;
 188:../03_Drivers/STM32L4xx_HAL_Driver/Src/stm32l4xx_hal_flash.c **** 
 189:../03_Drivers/STM32L4xx_HAL_Driver/Src/stm32l4xx_hal_flash.c ****     /* Deactivate the data cache if they are activated to avoid data misbehavior */
 190:../03_Drivers/STM32L4xx_HAL_Driver/Src/stm32l4xx_hal_flash.c ****     if(READ_BIT(FLASH->ACR, FLASH_ACR_DCEN) != 0U)
ARM GAS  C:\Users\minde\AppData\Local\Temp\cc31p2l9.s 			page 5


 191:../03_Drivers/STM32L4xx_HAL_Driver/Src/stm32l4xx_hal_flash.c ****     {
 192:../03_Drivers/STM32L4xx_HAL_Driver/Src/stm32l4xx_hal_flash.c ****       /* Disable data cache  */
 193:../03_Drivers/STM32L4xx_HAL_Driver/Src/stm32l4xx_hal_flash.c ****       __HAL_FLASH_DATA_CACHE_DISABLE();
 194:../03_Drivers/STM32L4xx_HAL_Driver/Src/stm32l4xx_hal_flash.c ****       pFlash.CacheToReactivate = FLASH_CACHE_DCACHE_ENABLED;
 195:../03_Drivers/STM32L4xx_HAL_Driver/Src/stm32l4xx_hal_flash.c ****     }
 196:../03_Drivers/STM32L4xx_HAL_Driver/Src/stm32l4xx_hal_flash.c ****     else
 197:../03_Drivers/STM32L4xx_HAL_Driver/Src/stm32l4xx_hal_flash.c ****     {
 198:../03_Drivers/STM32L4xx_HAL_Driver/Src/stm32l4xx_hal_flash.c ****       pFlash.CacheToReactivate = FLASH_CACHE_DISABLED;
 199:../03_Drivers/STM32L4xx_HAL_Driver/Src/stm32l4xx_hal_flash.c ****     }
 200:../03_Drivers/STM32L4xx_HAL_Driver/Src/stm32l4xx_hal_flash.c **** 
 201:../03_Drivers/STM32L4xx_HAL_Driver/Src/stm32l4xx_hal_flash.c ****     if(TypeProgram == FLASH_TYPEPROGRAM_DOUBLEWORD)
 202:../03_Drivers/STM32L4xx_HAL_Driver/Src/stm32l4xx_hal_flash.c ****     {
 203:../03_Drivers/STM32L4xx_HAL_Driver/Src/stm32l4xx_hal_flash.c ****       /* Program double-word (64-bit) at a specified address */
 204:../03_Drivers/STM32L4xx_HAL_Driver/Src/stm32l4xx_hal_flash.c ****       FLASH_Program_DoubleWord(Address, Data);
 205:../03_Drivers/STM32L4xx_HAL_Driver/Src/stm32l4xx_hal_flash.c ****       prog_bit = FLASH_CR_PG;
 206:../03_Drivers/STM32L4xx_HAL_Driver/Src/stm32l4xx_hal_flash.c ****     }
 207:../03_Drivers/STM32L4xx_HAL_Driver/Src/stm32l4xx_hal_flash.c ****     else if((TypeProgram == FLASH_TYPEPROGRAM_FAST) || (TypeProgram == FLASH_TYPEPROGRAM_FAST_AND_L
 208:../03_Drivers/STM32L4xx_HAL_Driver/Src/stm32l4xx_hal_flash.c ****     {
 209:../03_Drivers/STM32L4xx_HAL_Driver/Src/stm32l4xx_hal_flash.c ****       /* Fast program a 32 row double-word (64-bit) at a specified address */
 210:../03_Drivers/STM32L4xx_HAL_Driver/Src/stm32l4xx_hal_flash.c ****       FLASH_Program_Fast(Address, (uint32_t)Data);
 211:../03_Drivers/STM32L4xx_HAL_Driver/Src/stm32l4xx_hal_flash.c **** 
 212:../03_Drivers/STM32L4xx_HAL_Driver/Src/stm32l4xx_hal_flash.c ****       /* If it is the last row, the bit will be cleared at the end of the operation */
 213:../03_Drivers/STM32L4xx_HAL_Driver/Src/stm32l4xx_hal_flash.c ****       if(TypeProgram == FLASH_TYPEPROGRAM_FAST_AND_LAST)
 214:../03_Drivers/STM32L4xx_HAL_Driver/Src/stm32l4xx_hal_flash.c ****       {
 215:../03_Drivers/STM32L4xx_HAL_Driver/Src/stm32l4xx_hal_flash.c ****         prog_bit = FLASH_CR_FSTPG;
 216:../03_Drivers/STM32L4xx_HAL_Driver/Src/stm32l4xx_hal_flash.c ****       }
 217:../03_Drivers/STM32L4xx_HAL_Driver/Src/stm32l4xx_hal_flash.c ****     }
 218:../03_Drivers/STM32L4xx_HAL_Driver/Src/stm32l4xx_hal_flash.c ****     else
 219:../03_Drivers/STM32L4xx_HAL_Driver/Src/stm32l4xx_hal_flash.c ****     {
 220:../03_Drivers/STM32L4xx_HAL_Driver/Src/stm32l4xx_hal_flash.c ****       /* Nothing to do */
 221:../03_Drivers/STM32L4xx_HAL_Driver/Src/stm32l4xx_hal_flash.c ****     }
 222:../03_Drivers/STM32L4xx_HAL_Driver/Src/stm32l4xx_hal_flash.c **** 
 223:../03_Drivers/STM32L4xx_HAL_Driver/Src/stm32l4xx_hal_flash.c ****     /* Wait for last operation to be completed */
 224:../03_Drivers/STM32L4xx_HAL_Driver/Src/stm32l4xx_hal_flash.c ****     status = FLASH_WaitForLastOperation((uint32_t)FLASH_TIMEOUT_VALUE);
 225:../03_Drivers/STM32L4xx_HAL_Driver/Src/stm32l4xx_hal_flash.c **** 
 226:../03_Drivers/STM32L4xx_HAL_Driver/Src/stm32l4xx_hal_flash.c ****     /* If the program operation is completed, disable the PG or FSTPG Bit */
 227:../03_Drivers/STM32L4xx_HAL_Driver/Src/stm32l4xx_hal_flash.c ****     if (prog_bit != 0U)
 228:../03_Drivers/STM32L4xx_HAL_Driver/Src/stm32l4xx_hal_flash.c ****     {
 229:../03_Drivers/STM32L4xx_HAL_Driver/Src/stm32l4xx_hal_flash.c ****       CLEAR_BIT(FLASH->CR, prog_bit);
 230:../03_Drivers/STM32L4xx_HAL_Driver/Src/stm32l4xx_hal_flash.c ****     }
 231:../03_Drivers/STM32L4xx_HAL_Driver/Src/stm32l4xx_hal_flash.c **** 
 232:../03_Drivers/STM32L4xx_HAL_Driver/Src/stm32l4xx_hal_flash.c ****     /* Flush the caches to be sure of the data consistency */
 233:../03_Drivers/STM32L4xx_HAL_Driver/Src/stm32l4xx_hal_flash.c ****     FLASH_FlushCaches();
 234:../03_Drivers/STM32L4xx_HAL_Driver/Src/stm32l4xx_hal_flash.c ****   }
 235:../03_Drivers/STM32L4xx_HAL_Driver/Src/stm32l4xx_hal_flash.c **** 
 236:../03_Drivers/STM32L4xx_HAL_Driver/Src/stm32l4xx_hal_flash.c ****   /* Process Unlocked */
 237:../03_Drivers/STM32L4xx_HAL_Driver/Src/stm32l4xx_hal_flash.c ****   __HAL_UNLOCK(&pFlash);
 238:../03_Drivers/STM32L4xx_HAL_Driver/Src/stm32l4xx_hal_flash.c **** 
 239:../03_Drivers/STM32L4xx_HAL_Driver/Src/stm32l4xx_hal_flash.c ****   return status;
 240:../03_Drivers/STM32L4xx_HAL_Driver/Src/stm32l4xx_hal_flash.c **** }
 241:../03_Drivers/STM32L4xx_HAL_Driver/Src/stm32l4xx_hal_flash.c **** 
 242:../03_Drivers/STM32L4xx_HAL_Driver/Src/stm32l4xx_hal_flash.c **** /**
 243:../03_Drivers/STM32L4xx_HAL_Driver/Src/stm32l4xx_hal_flash.c ****   * @brief  Program double word or fast program of a row at a specified address with interrupt enab
 244:../03_Drivers/STM32L4xx_HAL_Driver/Src/stm32l4xx_hal_flash.c ****   * @param  TypeProgram  Indicate the way to program at a specified address.
 245:../03_Drivers/STM32L4xx_HAL_Driver/Src/stm32l4xx_hal_flash.c ****   *                           This parameter can be a value of @ref FLASH_Type_Program
 246:../03_Drivers/STM32L4xx_HAL_Driver/Src/stm32l4xx_hal_flash.c ****   * @param  Address  specifies the address to be programmed.
 247:../03_Drivers/STM32L4xx_HAL_Driver/Src/stm32l4xx_hal_flash.c ****   * @param  Data specifies the data to be programmed
ARM GAS  C:\Users\minde\AppData\Local\Temp\cc31p2l9.s 			page 6


 248:../03_Drivers/STM32L4xx_HAL_Driver/Src/stm32l4xx_hal_flash.c ****   *                This parameter is the data for the double word program and the address where
 249:../03_Drivers/STM32L4xx_HAL_Driver/Src/stm32l4xx_hal_flash.c ****   *                are stored the data for the row fast program
 250:../03_Drivers/STM32L4xx_HAL_Driver/Src/stm32l4xx_hal_flash.c ****   *
 251:../03_Drivers/STM32L4xx_HAL_Driver/Src/stm32l4xx_hal_flash.c ****   * @retval HAL Status
 252:../03_Drivers/STM32L4xx_HAL_Driver/Src/stm32l4xx_hal_flash.c ****   */
 253:../03_Drivers/STM32L4xx_HAL_Driver/Src/stm32l4xx_hal_flash.c **** HAL_StatusTypeDef HAL_FLASH_Program_IT(uint32_t TypeProgram, uint32_t Address, uint64_t Data)
 254:../03_Drivers/STM32L4xx_HAL_Driver/Src/stm32l4xx_hal_flash.c **** {
 255:../03_Drivers/STM32L4xx_HAL_Driver/Src/stm32l4xx_hal_flash.c ****   HAL_StatusTypeDef status = HAL_OK;
 256:../03_Drivers/STM32L4xx_HAL_Driver/Src/stm32l4xx_hal_flash.c **** 
 257:../03_Drivers/STM32L4xx_HAL_Driver/Src/stm32l4xx_hal_flash.c ****   /* Check the parameters */
 258:../03_Drivers/STM32L4xx_HAL_Driver/Src/stm32l4xx_hal_flash.c ****   assert_param(IS_FLASH_TYPEPROGRAM(TypeProgram));
 259:../03_Drivers/STM32L4xx_HAL_Driver/Src/stm32l4xx_hal_flash.c **** 
 260:../03_Drivers/STM32L4xx_HAL_Driver/Src/stm32l4xx_hal_flash.c ****   /* Process Locked */
 261:../03_Drivers/STM32L4xx_HAL_Driver/Src/stm32l4xx_hal_flash.c ****   __HAL_LOCK(&pFlash);
 262:../03_Drivers/STM32L4xx_HAL_Driver/Src/stm32l4xx_hal_flash.c **** 
 263:../03_Drivers/STM32L4xx_HAL_Driver/Src/stm32l4xx_hal_flash.c ****   pFlash.ErrorCode = HAL_FLASH_ERROR_NONE;
 264:../03_Drivers/STM32L4xx_HAL_Driver/Src/stm32l4xx_hal_flash.c **** 
 265:../03_Drivers/STM32L4xx_HAL_Driver/Src/stm32l4xx_hal_flash.c ****   /* Deactivate the data cache if they are activated to avoid data misbehavior */
 266:../03_Drivers/STM32L4xx_HAL_Driver/Src/stm32l4xx_hal_flash.c ****   if(READ_BIT(FLASH->ACR, FLASH_ACR_DCEN) != 0U)
 267:../03_Drivers/STM32L4xx_HAL_Driver/Src/stm32l4xx_hal_flash.c ****   {
 268:../03_Drivers/STM32L4xx_HAL_Driver/Src/stm32l4xx_hal_flash.c ****     /* Disable data cache  */
 269:../03_Drivers/STM32L4xx_HAL_Driver/Src/stm32l4xx_hal_flash.c ****     __HAL_FLASH_DATA_CACHE_DISABLE();
 270:../03_Drivers/STM32L4xx_HAL_Driver/Src/stm32l4xx_hal_flash.c ****     pFlash.CacheToReactivate = FLASH_CACHE_DCACHE_ENABLED;
 271:../03_Drivers/STM32L4xx_HAL_Driver/Src/stm32l4xx_hal_flash.c ****   }
 272:../03_Drivers/STM32L4xx_HAL_Driver/Src/stm32l4xx_hal_flash.c ****   else
 273:../03_Drivers/STM32L4xx_HAL_Driver/Src/stm32l4xx_hal_flash.c ****   {
 274:../03_Drivers/STM32L4xx_HAL_Driver/Src/stm32l4xx_hal_flash.c ****     pFlash.CacheToReactivate = FLASH_CACHE_DISABLED;
 275:../03_Drivers/STM32L4xx_HAL_Driver/Src/stm32l4xx_hal_flash.c ****   }
 276:../03_Drivers/STM32L4xx_HAL_Driver/Src/stm32l4xx_hal_flash.c **** 
 277:../03_Drivers/STM32L4xx_HAL_Driver/Src/stm32l4xx_hal_flash.c ****   /* Set internal variables used by the IRQ handler */
 278:../03_Drivers/STM32L4xx_HAL_Driver/Src/stm32l4xx_hal_flash.c ****   if(TypeProgram == FLASH_TYPEPROGRAM_FAST_AND_LAST)
 279:../03_Drivers/STM32L4xx_HAL_Driver/Src/stm32l4xx_hal_flash.c ****   {
 280:../03_Drivers/STM32L4xx_HAL_Driver/Src/stm32l4xx_hal_flash.c ****     pFlash.ProcedureOnGoing = FLASH_PROC_PROGRAM_LAST;
 281:../03_Drivers/STM32L4xx_HAL_Driver/Src/stm32l4xx_hal_flash.c ****   }
 282:../03_Drivers/STM32L4xx_HAL_Driver/Src/stm32l4xx_hal_flash.c ****   else
 283:../03_Drivers/STM32L4xx_HAL_Driver/Src/stm32l4xx_hal_flash.c ****   {
 284:../03_Drivers/STM32L4xx_HAL_Driver/Src/stm32l4xx_hal_flash.c ****     pFlash.ProcedureOnGoing = FLASH_PROC_PROGRAM;
 285:../03_Drivers/STM32L4xx_HAL_Driver/Src/stm32l4xx_hal_flash.c ****   }
 286:../03_Drivers/STM32L4xx_HAL_Driver/Src/stm32l4xx_hal_flash.c ****   pFlash.Address = Address;
 287:../03_Drivers/STM32L4xx_HAL_Driver/Src/stm32l4xx_hal_flash.c **** 
 288:../03_Drivers/STM32L4xx_HAL_Driver/Src/stm32l4xx_hal_flash.c ****   /* Enable End of Operation and Error interrupts */
 289:../03_Drivers/STM32L4xx_HAL_Driver/Src/stm32l4xx_hal_flash.c ****   __HAL_FLASH_ENABLE_IT(FLASH_IT_EOP | FLASH_IT_OPERR);
 290:../03_Drivers/STM32L4xx_HAL_Driver/Src/stm32l4xx_hal_flash.c **** 
 291:../03_Drivers/STM32L4xx_HAL_Driver/Src/stm32l4xx_hal_flash.c ****   if(TypeProgram == FLASH_TYPEPROGRAM_DOUBLEWORD)
 292:../03_Drivers/STM32L4xx_HAL_Driver/Src/stm32l4xx_hal_flash.c ****   {
 293:../03_Drivers/STM32L4xx_HAL_Driver/Src/stm32l4xx_hal_flash.c ****     /* Program double-word (64-bit) at a specified address */
 294:../03_Drivers/STM32L4xx_HAL_Driver/Src/stm32l4xx_hal_flash.c ****     FLASH_Program_DoubleWord(Address, Data);
 295:../03_Drivers/STM32L4xx_HAL_Driver/Src/stm32l4xx_hal_flash.c ****   }
 296:../03_Drivers/STM32L4xx_HAL_Driver/Src/stm32l4xx_hal_flash.c ****   else if((TypeProgram == FLASH_TYPEPROGRAM_FAST) || (TypeProgram == FLASH_TYPEPROGRAM_FAST_AND_LAS
 297:../03_Drivers/STM32L4xx_HAL_Driver/Src/stm32l4xx_hal_flash.c ****   {
 298:../03_Drivers/STM32L4xx_HAL_Driver/Src/stm32l4xx_hal_flash.c ****     /* Fast program a 32 row double-word (64-bit) at a specified address */
 299:../03_Drivers/STM32L4xx_HAL_Driver/Src/stm32l4xx_hal_flash.c ****     FLASH_Program_Fast(Address, (uint32_t)Data);
 300:../03_Drivers/STM32L4xx_HAL_Driver/Src/stm32l4xx_hal_flash.c ****   }
 301:../03_Drivers/STM32L4xx_HAL_Driver/Src/stm32l4xx_hal_flash.c ****   else
 302:../03_Drivers/STM32L4xx_HAL_Driver/Src/stm32l4xx_hal_flash.c ****   {
 303:../03_Drivers/STM32L4xx_HAL_Driver/Src/stm32l4xx_hal_flash.c ****     /* Nothing to do */
 304:../03_Drivers/STM32L4xx_HAL_Driver/Src/stm32l4xx_hal_flash.c ****   }
ARM GAS  C:\Users\minde\AppData\Local\Temp\cc31p2l9.s 			page 7


 305:../03_Drivers/STM32L4xx_HAL_Driver/Src/stm32l4xx_hal_flash.c **** 
 306:../03_Drivers/STM32L4xx_HAL_Driver/Src/stm32l4xx_hal_flash.c ****   return status;
 307:../03_Drivers/STM32L4xx_HAL_Driver/Src/stm32l4xx_hal_flash.c **** }
 308:../03_Drivers/STM32L4xx_HAL_Driver/Src/stm32l4xx_hal_flash.c **** 
 309:../03_Drivers/STM32L4xx_HAL_Driver/Src/stm32l4xx_hal_flash.c **** /**
 310:../03_Drivers/STM32L4xx_HAL_Driver/Src/stm32l4xx_hal_flash.c ****   * @brief Handle FLASH interrupt request.
 311:../03_Drivers/STM32L4xx_HAL_Driver/Src/stm32l4xx_hal_flash.c ****   * @retval None
 312:../03_Drivers/STM32L4xx_HAL_Driver/Src/stm32l4xx_hal_flash.c ****   */
 313:../03_Drivers/STM32L4xx_HAL_Driver/Src/stm32l4xx_hal_flash.c **** void HAL_FLASH_IRQHandler(void)
 314:../03_Drivers/STM32L4xx_HAL_Driver/Src/stm32l4xx_hal_flash.c **** {
 315:../03_Drivers/STM32L4xx_HAL_Driver/Src/stm32l4xx_hal_flash.c ****   uint32_t tmp_page;
 316:../03_Drivers/STM32L4xx_HAL_Driver/Src/stm32l4xx_hal_flash.c ****   uint32_t error;
 317:../03_Drivers/STM32L4xx_HAL_Driver/Src/stm32l4xx_hal_flash.c ****   FLASH_ProcedureTypeDef procedure;
 318:../03_Drivers/STM32L4xx_HAL_Driver/Src/stm32l4xx_hal_flash.c **** 
 319:../03_Drivers/STM32L4xx_HAL_Driver/Src/stm32l4xx_hal_flash.c ****   /* If the operation is completed, disable the PG, PNB, MER1, MER2 and PER Bit */
 320:../03_Drivers/STM32L4xx_HAL_Driver/Src/stm32l4xx_hal_flash.c ****   CLEAR_BIT(FLASH->CR, (FLASH_CR_PG | FLASH_CR_MER1 | FLASH_CR_PER | FLASH_CR_PNB));
 321:../03_Drivers/STM32L4xx_HAL_Driver/Src/stm32l4xx_hal_flash.c **** #if defined (STM32L471xx) || defined (STM32L475xx) || defined (STM32L476xx) || defined (STM32L485xx
 322:../03_Drivers/STM32L4xx_HAL_Driver/Src/stm32l4xx_hal_flash.c ****     defined (STM32L496xx) || defined (STM32L4A6xx) || \
 323:../03_Drivers/STM32L4xx_HAL_Driver/Src/stm32l4xx_hal_flash.c ****     defined (STM32L4P5xx) || defined (STM32L4Q5xx) || \
 324:../03_Drivers/STM32L4xx_HAL_Driver/Src/stm32l4xx_hal_flash.c ****     defined (STM32L4R5xx) || defined (STM32L4R7xx) || defined (STM32L4R9xx) || defined (STM32L4S5xx
 325:../03_Drivers/STM32L4xx_HAL_Driver/Src/stm32l4xx_hal_flash.c ****   CLEAR_BIT(FLASH->CR, FLASH_CR_MER2);
 326:../03_Drivers/STM32L4xx_HAL_Driver/Src/stm32l4xx_hal_flash.c **** #endif
 327:../03_Drivers/STM32L4xx_HAL_Driver/Src/stm32l4xx_hal_flash.c **** 
 328:../03_Drivers/STM32L4xx_HAL_Driver/Src/stm32l4xx_hal_flash.c ****   /* Disable the FSTPG Bit only if it is the last row programmed */
 329:../03_Drivers/STM32L4xx_HAL_Driver/Src/stm32l4xx_hal_flash.c ****   if(pFlash.ProcedureOnGoing == FLASH_PROC_PROGRAM_LAST)
 330:../03_Drivers/STM32L4xx_HAL_Driver/Src/stm32l4xx_hal_flash.c ****   {
 331:../03_Drivers/STM32L4xx_HAL_Driver/Src/stm32l4xx_hal_flash.c ****     CLEAR_BIT(FLASH->CR, FLASH_CR_FSTPG);
 332:../03_Drivers/STM32L4xx_HAL_Driver/Src/stm32l4xx_hal_flash.c ****   }
 333:../03_Drivers/STM32L4xx_HAL_Driver/Src/stm32l4xx_hal_flash.c **** 
 334:../03_Drivers/STM32L4xx_HAL_Driver/Src/stm32l4xx_hal_flash.c ****   /* Check FLASH operation error flags */
 335:../03_Drivers/STM32L4xx_HAL_Driver/Src/stm32l4xx_hal_flash.c ****   error = (FLASH->SR & FLASH_FLAG_SR_ERRORS);
 336:../03_Drivers/STM32L4xx_HAL_Driver/Src/stm32l4xx_hal_flash.c **** 
 337:../03_Drivers/STM32L4xx_HAL_Driver/Src/stm32l4xx_hal_flash.c ****   if (error !=0U)
 338:../03_Drivers/STM32L4xx_HAL_Driver/Src/stm32l4xx_hal_flash.c ****   {
 339:../03_Drivers/STM32L4xx_HAL_Driver/Src/stm32l4xx_hal_flash.c ****     /*Save the error code*/
 340:../03_Drivers/STM32L4xx_HAL_Driver/Src/stm32l4xx_hal_flash.c ****     pFlash.ErrorCode |= error;
 341:../03_Drivers/STM32L4xx_HAL_Driver/Src/stm32l4xx_hal_flash.c **** 
 342:../03_Drivers/STM32L4xx_HAL_Driver/Src/stm32l4xx_hal_flash.c ****     /* Clear error programming flags */
 343:../03_Drivers/STM32L4xx_HAL_Driver/Src/stm32l4xx_hal_flash.c ****     __HAL_FLASH_CLEAR_FLAG(error);
 344:../03_Drivers/STM32L4xx_HAL_Driver/Src/stm32l4xx_hal_flash.c **** 
 345:../03_Drivers/STM32L4xx_HAL_Driver/Src/stm32l4xx_hal_flash.c ****     /* Flush the caches to be sure of the data consistency */
 346:../03_Drivers/STM32L4xx_HAL_Driver/Src/stm32l4xx_hal_flash.c ****     FLASH_FlushCaches() ;
 347:../03_Drivers/STM32L4xx_HAL_Driver/Src/stm32l4xx_hal_flash.c **** 
 348:../03_Drivers/STM32L4xx_HAL_Driver/Src/stm32l4xx_hal_flash.c ****     /* FLASH error interrupt user callback */
 349:../03_Drivers/STM32L4xx_HAL_Driver/Src/stm32l4xx_hal_flash.c ****     procedure = pFlash.ProcedureOnGoing;
 350:../03_Drivers/STM32L4xx_HAL_Driver/Src/stm32l4xx_hal_flash.c ****     if(procedure == FLASH_PROC_PAGE_ERASE)
 351:../03_Drivers/STM32L4xx_HAL_Driver/Src/stm32l4xx_hal_flash.c ****     {
 352:../03_Drivers/STM32L4xx_HAL_Driver/Src/stm32l4xx_hal_flash.c ****        HAL_FLASH_OperationErrorCallback(pFlash.Page);
 353:../03_Drivers/STM32L4xx_HAL_Driver/Src/stm32l4xx_hal_flash.c ****     }
 354:../03_Drivers/STM32L4xx_HAL_Driver/Src/stm32l4xx_hal_flash.c ****     else if(procedure == FLASH_PROC_MASS_ERASE)
 355:../03_Drivers/STM32L4xx_HAL_Driver/Src/stm32l4xx_hal_flash.c ****     {
 356:../03_Drivers/STM32L4xx_HAL_Driver/Src/stm32l4xx_hal_flash.c ****         HAL_FLASH_OperationErrorCallback(pFlash.Bank);
 357:../03_Drivers/STM32L4xx_HAL_Driver/Src/stm32l4xx_hal_flash.c ****     }
 358:../03_Drivers/STM32L4xx_HAL_Driver/Src/stm32l4xx_hal_flash.c ****     else if((procedure == FLASH_PROC_PROGRAM) ||
 359:../03_Drivers/STM32L4xx_HAL_Driver/Src/stm32l4xx_hal_flash.c ****             (procedure == FLASH_PROC_PROGRAM_LAST))
 360:../03_Drivers/STM32L4xx_HAL_Driver/Src/stm32l4xx_hal_flash.c ****     {
 361:../03_Drivers/STM32L4xx_HAL_Driver/Src/stm32l4xx_hal_flash.c ****        HAL_FLASH_OperationErrorCallback(pFlash.Address);
ARM GAS  C:\Users\minde\AppData\Local\Temp\cc31p2l9.s 			page 8


 362:../03_Drivers/STM32L4xx_HAL_Driver/Src/stm32l4xx_hal_flash.c ****     }
 363:../03_Drivers/STM32L4xx_HAL_Driver/Src/stm32l4xx_hal_flash.c ****     else
 364:../03_Drivers/STM32L4xx_HAL_Driver/Src/stm32l4xx_hal_flash.c ****     {
 365:../03_Drivers/STM32L4xx_HAL_Driver/Src/stm32l4xx_hal_flash.c ****        HAL_FLASH_OperationErrorCallback(0U);
 366:../03_Drivers/STM32L4xx_HAL_Driver/Src/stm32l4xx_hal_flash.c ****     }
 367:../03_Drivers/STM32L4xx_HAL_Driver/Src/stm32l4xx_hal_flash.c **** 
 368:../03_Drivers/STM32L4xx_HAL_Driver/Src/stm32l4xx_hal_flash.c ****     /*Stop the procedure ongoing*/
 369:../03_Drivers/STM32L4xx_HAL_Driver/Src/stm32l4xx_hal_flash.c ****     pFlash.ProcedureOnGoing = FLASH_PROC_NONE;
 370:../03_Drivers/STM32L4xx_HAL_Driver/Src/stm32l4xx_hal_flash.c ****   }
 371:../03_Drivers/STM32L4xx_HAL_Driver/Src/stm32l4xx_hal_flash.c **** 
 372:../03_Drivers/STM32L4xx_HAL_Driver/Src/stm32l4xx_hal_flash.c ****   /* Check FLASH End of Operation flag  */
 373:../03_Drivers/STM32L4xx_HAL_Driver/Src/stm32l4xx_hal_flash.c ****   if(__HAL_FLASH_GET_FLAG(FLASH_FLAG_EOP) != 0U)
 374:../03_Drivers/STM32L4xx_HAL_Driver/Src/stm32l4xx_hal_flash.c ****   {
 375:../03_Drivers/STM32L4xx_HAL_Driver/Src/stm32l4xx_hal_flash.c ****     /* Clear FLASH End of Operation pending bit */
 376:../03_Drivers/STM32L4xx_HAL_Driver/Src/stm32l4xx_hal_flash.c ****     __HAL_FLASH_CLEAR_FLAG(FLASH_FLAG_EOP);
 377:../03_Drivers/STM32L4xx_HAL_Driver/Src/stm32l4xx_hal_flash.c **** 
 378:../03_Drivers/STM32L4xx_HAL_Driver/Src/stm32l4xx_hal_flash.c ****     if(pFlash.ProcedureOnGoing == FLASH_PROC_PAGE_ERASE)
 379:../03_Drivers/STM32L4xx_HAL_Driver/Src/stm32l4xx_hal_flash.c ****     {
 380:../03_Drivers/STM32L4xx_HAL_Driver/Src/stm32l4xx_hal_flash.c ****       /* Nb of pages to erased can be decreased */
 381:../03_Drivers/STM32L4xx_HAL_Driver/Src/stm32l4xx_hal_flash.c ****       pFlash.NbPagesToErase--;
 382:../03_Drivers/STM32L4xx_HAL_Driver/Src/stm32l4xx_hal_flash.c **** 
 383:../03_Drivers/STM32L4xx_HAL_Driver/Src/stm32l4xx_hal_flash.c ****       /* Check if there are still pages to erase*/
 384:../03_Drivers/STM32L4xx_HAL_Driver/Src/stm32l4xx_hal_flash.c ****       if(pFlash.NbPagesToErase != 0U)
 385:../03_Drivers/STM32L4xx_HAL_Driver/Src/stm32l4xx_hal_flash.c ****       {
 386:../03_Drivers/STM32L4xx_HAL_Driver/Src/stm32l4xx_hal_flash.c ****         /* Indicate user which page has been erased*/
 387:../03_Drivers/STM32L4xx_HAL_Driver/Src/stm32l4xx_hal_flash.c ****         HAL_FLASH_EndOfOperationCallback(pFlash.Page);
 388:../03_Drivers/STM32L4xx_HAL_Driver/Src/stm32l4xx_hal_flash.c **** 
 389:../03_Drivers/STM32L4xx_HAL_Driver/Src/stm32l4xx_hal_flash.c ****         /* Increment page number */
 390:../03_Drivers/STM32L4xx_HAL_Driver/Src/stm32l4xx_hal_flash.c ****         pFlash.Page++;
 391:../03_Drivers/STM32L4xx_HAL_Driver/Src/stm32l4xx_hal_flash.c ****         tmp_page = pFlash.Page;
 392:../03_Drivers/STM32L4xx_HAL_Driver/Src/stm32l4xx_hal_flash.c ****         FLASH_PageErase(tmp_page, pFlash.Bank);
 393:../03_Drivers/STM32L4xx_HAL_Driver/Src/stm32l4xx_hal_flash.c ****       }
 394:../03_Drivers/STM32L4xx_HAL_Driver/Src/stm32l4xx_hal_flash.c ****       else
 395:../03_Drivers/STM32L4xx_HAL_Driver/Src/stm32l4xx_hal_flash.c ****       {
 396:../03_Drivers/STM32L4xx_HAL_Driver/Src/stm32l4xx_hal_flash.c ****         /* No more pages to Erase */
 397:../03_Drivers/STM32L4xx_HAL_Driver/Src/stm32l4xx_hal_flash.c ****         /* Reset Address and stop Erase pages procedure */
 398:../03_Drivers/STM32L4xx_HAL_Driver/Src/stm32l4xx_hal_flash.c ****         pFlash.Page = 0xFFFFFFFFU;
 399:../03_Drivers/STM32L4xx_HAL_Driver/Src/stm32l4xx_hal_flash.c ****         pFlash.ProcedureOnGoing = FLASH_PROC_NONE;
 400:../03_Drivers/STM32L4xx_HAL_Driver/Src/stm32l4xx_hal_flash.c **** 
 401:../03_Drivers/STM32L4xx_HAL_Driver/Src/stm32l4xx_hal_flash.c ****         /* Flush the caches to be sure of the data consistency */
 402:../03_Drivers/STM32L4xx_HAL_Driver/Src/stm32l4xx_hal_flash.c ****         FLASH_FlushCaches() ;
 403:../03_Drivers/STM32L4xx_HAL_Driver/Src/stm32l4xx_hal_flash.c **** 
 404:../03_Drivers/STM32L4xx_HAL_Driver/Src/stm32l4xx_hal_flash.c ****         /* FLASH EOP interrupt user callback */
 405:../03_Drivers/STM32L4xx_HAL_Driver/Src/stm32l4xx_hal_flash.c ****         HAL_FLASH_EndOfOperationCallback(pFlash.Page);
 406:../03_Drivers/STM32L4xx_HAL_Driver/Src/stm32l4xx_hal_flash.c ****       }
 407:../03_Drivers/STM32L4xx_HAL_Driver/Src/stm32l4xx_hal_flash.c ****     }
 408:../03_Drivers/STM32L4xx_HAL_Driver/Src/stm32l4xx_hal_flash.c ****     else
 409:../03_Drivers/STM32L4xx_HAL_Driver/Src/stm32l4xx_hal_flash.c ****     {
 410:../03_Drivers/STM32L4xx_HAL_Driver/Src/stm32l4xx_hal_flash.c ****       /* Flush the caches to be sure of the data consistency */
 411:../03_Drivers/STM32L4xx_HAL_Driver/Src/stm32l4xx_hal_flash.c ****       FLASH_FlushCaches() ;
 412:../03_Drivers/STM32L4xx_HAL_Driver/Src/stm32l4xx_hal_flash.c **** 
 413:../03_Drivers/STM32L4xx_HAL_Driver/Src/stm32l4xx_hal_flash.c ****       procedure = pFlash.ProcedureOnGoing;
 414:../03_Drivers/STM32L4xx_HAL_Driver/Src/stm32l4xx_hal_flash.c ****       if(procedure == FLASH_PROC_MASS_ERASE)
 415:../03_Drivers/STM32L4xx_HAL_Driver/Src/stm32l4xx_hal_flash.c ****       {
 416:../03_Drivers/STM32L4xx_HAL_Driver/Src/stm32l4xx_hal_flash.c ****         /* MassErase ended. Return the selected bank */
 417:../03_Drivers/STM32L4xx_HAL_Driver/Src/stm32l4xx_hal_flash.c ****         /* FLASH EOP interrupt user callback */
 418:../03_Drivers/STM32L4xx_HAL_Driver/Src/stm32l4xx_hal_flash.c ****         HAL_FLASH_EndOfOperationCallback(pFlash.Bank);
ARM GAS  C:\Users\minde\AppData\Local\Temp\cc31p2l9.s 			page 9


 419:../03_Drivers/STM32L4xx_HAL_Driver/Src/stm32l4xx_hal_flash.c ****       }
 420:../03_Drivers/STM32L4xx_HAL_Driver/Src/stm32l4xx_hal_flash.c ****       else if((procedure == FLASH_PROC_PROGRAM) ||
 421:../03_Drivers/STM32L4xx_HAL_Driver/Src/stm32l4xx_hal_flash.c ****               (procedure == FLASH_PROC_PROGRAM_LAST))
 422:../03_Drivers/STM32L4xx_HAL_Driver/Src/stm32l4xx_hal_flash.c ****       {
 423:../03_Drivers/STM32L4xx_HAL_Driver/Src/stm32l4xx_hal_flash.c ****         /* Program ended. Return the selected address */
 424:../03_Drivers/STM32L4xx_HAL_Driver/Src/stm32l4xx_hal_flash.c ****         /* FLASH EOP interrupt user callback */
 425:../03_Drivers/STM32L4xx_HAL_Driver/Src/stm32l4xx_hal_flash.c ****         HAL_FLASH_EndOfOperationCallback(pFlash.Address);
 426:../03_Drivers/STM32L4xx_HAL_Driver/Src/stm32l4xx_hal_flash.c ****       }
 427:../03_Drivers/STM32L4xx_HAL_Driver/Src/stm32l4xx_hal_flash.c ****       else
 428:../03_Drivers/STM32L4xx_HAL_Driver/Src/stm32l4xx_hal_flash.c ****       {
 429:../03_Drivers/STM32L4xx_HAL_Driver/Src/stm32l4xx_hal_flash.c ****         /* Nothing to do */
 430:../03_Drivers/STM32L4xx_HAL_Driver/Src/stm32l4xx_hal_flash.c ****       }
 431:../03_Drivers/STM32L4xx_HAL_Driver/Src/stm32l4xx_hal_flash.c **** 
 432:../03_Drivers/STM32L4xx_HAL_Driver/Src/stm32l4xx_hal_flash.c ****       /*Clear the procedure ongoing*/
 433:../03_Drivers/STM32L4xx_HAL_Driver/Src/stm32l4xx_hal_flash.c ****       pFlash.ProcedureOnGoing = FLASH_PROC_NONE;
 434:../03_Drivers/STM32L4xx_HAL_Driver/Src/stm32l4xx_hal_flash.c ****     }
 435:../03_Drivers/STM32L4xx_HAL_Driver/Src/stm32l4xx_hal_flash.c ****   }
 436:../03_Drivers/STM32L4xx_HAL_Driver/Src/stm32l4xx_hal_flash.c **** 
 437:../03_Drivers/STM32L4xx_HAL_Driver/Src/stm32l4xx_hal_flash.c ****   if(pFlash.ProcedureOnGoing == FLASH_PROC_NONE)
 438:../03_Drivers/STM32L4xx_HAL_Driver/Src/stm32l4xx_hal_flash.c ****   {
 439:../03_Drivers/STM32L4xx_HAL_Driver/Src/stm32l4xx_hal_flash.c ****     /* Disable End of Operation and Error interrupts */
 440:../03_Drivers/STM32L4xx_HAL_Driver/Src/stm32l4xx_hal_flash.c ****     __HAL_FLASH_DISABLE_IT(FLASH_IT_EOP | FLASH_IT_OPERR);
 441:../03_Drivers/STM32L4xx_HAL_Driver/Src/stm32l4xx_hal_flash.c **** 
 442:../03_Drivers/STM32L4xx_HAL_Driver/Src/stm32l4xx_hal_flash.c ****     /* Process Unlocked */
 443:../03_Drivers/STM32L4xx_HAL_Driver/Src/stm32l4xx_hal_flash.c ****     __HAL_UNLOCK(&pFlash);
 444:../03_Drivers/STM32L4xx_HAL_Driver/Src/stm32l4xx_hal_flash.c ****   }
 445:../03_Drivers/STM32L4xx_HAL_Driver/Src/stm32l4xx_hal_flash.c **** }
 446:../03_Drivers/STM32L4xx_HAL_Driver/Src/stm32l4xx_hal_flash.c **** 
 447:../03_Drivers/STM32L4xx_HAL_Driver/Src/stm32l4xx_hal_flash.c **** /**
 448:../03_Drivers/STM32L4xx_HAL_Driver/Src/stm32l4xx_hal_flash.c ****   * @brief  FLASH end of operation interrupt callback.
 449:../03_Drivers/STM32L4xx_HAL_Driver/Src/stm32l4xx_hal_flash.c ****   * @param  ReturnValue The value saved in this parameter depends on the ongoing procedure
 450:../03_Drivers/STM32L4xx_HAL_Driver/Src/stm32l4xx_hal_flash.c ****   *                  Mass Erase: Bank number which has been requested to erase
 451:../03_Drivers/STM32L4xx_HAL_Driver/Src/stm32l4xx_hal_flash.c ****   *                  Page Erase: Page which has been erased
 452:../03_Drivers/STM32L4xx_HAL_Driver/Src/stm32l4xx_hal_flash.c ****   *                    (if 0xFFFFFFFF, it means that all the selected pages have been erased)
 453:../03_Drivers/STM32L4xx_HAL_Driver/Src/stm32l4xx_hal_flash.c ****   *                  Program: Address which was selected for data program
 454:../03_Drivers/STM32L4xx_HAL_Driver/Src/stm32l4xx_hal_flash.c ****   * @retval None
 455:../03_Drivers/STM32L4xx_HAL_Driver/Src/stm32l4xx_hal_flash.c ****   */
 456:../03_Drivers/STM32L4xx_HAL_Driver/Src/stm32l4xx_hal_flash.c **** __weak void HAL_FLASH_EndOfOperationCallback(uint32_t ReturnValue)
 457:../03_Drivers/STM32L4xx_HAL_Driver/Src/stm32l4xx_hal_flash.c **** {
 458:../03_Drivers/STM32L4xx_HAL_Driver/Src/stm32l4xx_hal_flash.c ****   /* Prevent unused argument(s) compilation warning */
 459:../03_Drivers/STM32L4xx_HAL_Driver/Src/stm32l4xx_hal_flash.c ****   UNUSED(ReturnValue);
 460:../03_Drivers/STM32L4xx_HAL_Driver/Src/stm32l4xx_hal_flash.c **** 
 461:../03_Drivers/STM32L4xx_HAL_Driver/Src/stm32l4xx_hal_flash.c ****   /* NOTE : This function should not be modified, when the callback is needed,
 462:../03_Drivers/STM32L4xx_HAL_Driver/Src/stm32l4xx_hal_flash.c ****             the HAL_FLASH_EndOfOperationCallback could be implemented in the user file
 463:../03_Drivers/STM32L4xx_HAL_Driver/Src/stm32l4xx_hal_flash.c ****    */
 464:../03_Drivers/STM32L4xx_HAL_Driver/Src/stm32l4xx_hal_flash.c **** }
 465:../03_Drivers/STM32L4xx_HAL_Driver/Src/stm32l4xx_hal_flash.c **** 
 466:../03_Drivers/STM32L4xx_HAL_Driver/Src/stm32l4xx_hal_flash.c **** /**
 467:../03_Drivers/STM32L4xx_HAL_Driver/Src/stm32l4xx_hal_flash.c ****   * @brief  FLASH operation error interrupt callback.
 468:../03_Drivers/STM32L4xx_HAL_Driver/Src/stm32l4xx_hal_flash.c ****   * @param  ReturnValue The value saved in this parameter depends on the ongoing procedure
 469:../03_Drivers/STM32L4xx_HAL_Driver/Src/stm32l4xx_hal_flash.c ****   *                 Mass Erase: Bank number which has been requested to erase
 470:../03_Drivers/STM32L4xx_HAL_Driver/Src/stm32l4xx_hal_flash.c ****   *                 Page Erase: Page number which returned an error
 471:../03_Drivers/STM32L4xx_HAL_Driver/Src/stm32l4xx_hal_flash.c ****   *                 Program: Address which was selected for data program
 472:../03_Drivers/STM32L4xx_HAL_Driver/Src/stm32l4xx_hal_flash.c ****   * @retval None
 473:../03_Drivers/STM32L4xx_HAL_Driver/Src/stm32l4xx_hal_flash.c ****   */
 474:../03_Drivers/STM32L4xx_HAL_Driver/Src/stm32l4xx_hal_flash.c **** __weak void HAL_FLASH_OperationErrorCallback(uint32_t ReturnValue)
 475:../03_Drivers/STM32L4xx_HAL_Driver/Src/stm32l4xx_hal_flash.c **** {
ARM GAS  C:\Users\minde\AppData\Local\Temp\cc31p2l9.s 			page 10


 476:../03_Drivers/STM32L4xx_HAL_Driver/Src/stm32l4xx_hal_flash.c ****   /* Prevent unused argument(s) compilation warning */
 477:../03_Drivers/STM32L4xx_HAL_Driver/Src/stm32l4xx_hal_flash.c ****   UNUSED(ReturnValue);
 478:../03_Drivers/STM32L4xx_HAL_Driver/Src/stm32l4xx_hal_flash.c **** 
 479:../03_Drivers/STM32L4xx_HAL_Driver/Src/stm32l4xx_hal_flash.c ****   /* NOTE : This function should not be modified, when the callback is needed,
 480:../03_Drivers/STM32L4xx_HAL_Driver/Src/stm32l4xx_hal_flash.c ****             the HAL_FLASH_OperationErrorCallback could be implemented in the user file
 481:../03_Drivers/STM32L4xx_HAL_Driver/Src/stm32l4xx_hal_flash.c ****    */
 482:../03_Drivers/STM32L4xx_HAL_Driver/Src/stm32l4xx_hal_flash.c **** }
 483:../03_Drivers/STM32L4xx_HAL_Driver/Src/stm32l4xx_hal_flash.c **** 
 484:../03_Drivers/STM32L4xx_HAL_Driver/Src/stm32l4xx_hal_flash.c **** /**
 485:../03_Drivers/STM32L4xx_HAL_Driver/Src/stm32l4xx_hal_flash.c ****   * @}
 486:../03_Drivers/STM32L4xx_HAL_Driver/Src/stm32l4xx_hal_flash.c ****   */
 487:../03_Drivers/STM32L4xx_HAL_Driver/Src/stm32l4xx_hal_flash.c **** 
 488:../03_Drivers/STM32L4xx_HAL_Driver/Src/stm32l4xx_hal_flash.c **** /** @defgroup FLASH_Exported_Functions_Group2 Peripheral Control functions
 489:../03_Drivers/STM32L4xx_HAL_Driver/Src/stm32l4xx_hal_flash.c ****  *  @brief   Management functions
 490:../03_Drivers/STM32L4xx_HAL_Driver/Src/stm32l4xx_hal_flash.c ****  *
 491:../03_Drivers/STM32L4xx_HAL_Driver/Src/stm32l4xx_hal_flash.c **** @verbatim
 492:../03_Drivers/STM32L4xx_HAL_Driver/Src/stm32l4xx_hal_flash.c ****  ===============================================================================
 493:../03_Drivers/STM32L4xx_HAL_Driver/Src/stm32l4xx_hal_flash.c ****                       ##### Peripheral Control functions #####
 494:../03_Drivers/STM32L4xx_HAL_Driver/Src/stm32l4xx_hal_flash.c ****  ===============================================================================
 495:../03_Drivers/STM32L4xx_HAL_Driver/Src/stm32l4xx_hal_flash.c ****     [..]
 496:../03_Drivers/STM32L4xx_HAL_Driver/Src/stm32l4xx_hal_flash.c ****     This subsection provides a set of functions allowing to control the FLASH
 497:../03_Drivers/STM32L4xx_HAL_Driver/Src/stm32l4xx_hal_flash.c ****     memory operations.
 498:../03_Drivers/STM32L4xx_HAL_Driver/Src/stm32l4xx_hal_flash.c **** 
 499:../03_Drivers/STM32L4xx_HAL_Driver/Src/stm32l4xx_hal_flash.c **** @endverbatim
 500:../03_Drivers/STM32L4xx_HAL_Driver/Src/stm32l4xx_hal_flash.c ****   * @{
 501:../03_Drivers/STM32L4xx_HAL_Driver/Src/stm32l4xx_hal_flash.c ****   */
 502:../03_Drivers/STM32L4xx_HAL_Driver/Src/stm32l4xx_hal_flash.c **** 
 503:../03_Drivers/STM32L4xx_HAL_Driver/Src/stm32l4xx_hal_flash.c **** /**
 504:../03_Drivers/STM32L4xx_HAL_Driver/Src/stm32l4xx_hal_flash.c ****   * @brief  Unlock the FLASH control register access.
 505:../03_Drivers/STM32L4xx_HAL_Driver/Src/stm32l4xx_hal_flash.c ****   * @retval HAL Status
 506:../03_Drivers/STM32L4xx_HAL_Driver/Src/stm32l4xx_hal_flash.c ****   */
 507:../03_Drivers/STM32L4xx_HAL_Driver/Src/stm32l4xx_hal_flash.c **** HAL_StatusTypeDef HAL_FLASH_Unlock(void)
 508:../03_Drivers/STM32L4xx_HAL_Driver/Src/stm32l4xx_hal_flash.c **** {
 509:../03_Drivers/STM32L4xx_HAL_Driver/Src/stm32l4xx_hal_flash.c ****   HAL_StatusTypeDef status = HAL_OK;
 510:../03_Drivers/STM32L4xx_HAL_Driver/Src/stm32l4xx_hal_flash.c **** 
 511:../03_Drivers/STM32L4xx_HAL_Driver/Src/stm32l4xx_hal_flash.c ****   if(READ_BIT(FLASH->CR, FLASH_CR_LOCK) != 0U)
 512:../03_Drivers/STM32L4xx_HAL_Driver/Src/stm32l4xx_hal_flash.c ****   {
 513:../03_Drivers/STM32L4xx_HAL_Driver/Src/stm32l4xx_hal_flash.c ****     /* Authorize the FLASH Registers access */
 514:../03_Drivers/STM32L4xx_HAL_Driver/Src/stm32l4xx_hal_flash.c ****     WRITE_REG(FLASH->KEYR, FLASH_KEY1);
 515:../03_Drivers/STM32L4xx_HAL_Driver/Src/stm32l4xx_hal_flash.c ****     WRITE_REG(FLASH->KEYR, FLASH_KEY2);
 516:../03_Drivers/STM32L4xx_HAL_Driver/Src/stm32l4xx_hal_flash.c **** 
 517:../03_Drivers/STM32L4xx_HAL_Driver/Src/stm32l4xx_hal_flash.c ****     /* Verify Flash is unlocked */
 518:../03_Drivers/STM32L4xx_HAL_Driver/Src/stm32l4xx_hal_flash.c ****     if(READ_BIT(FLASH->CR, FLASH_CR_LOCK) != 0U)
 519:../03_Drivers/STM32L4xx_HAL_Driver/Src/stm32l4xx_hal_flash.c ****     {
 520:../03_Drivers/STM32L4xx_HAL_Driver/Src/stm32l4xx_hal_flash.c ****       status = HAL_ERROR;
 521:../03_Drivers/STM32L4xx_HAL_Driver/Src/stm32l4xx_hal_flash.c ****     }
 522:../03_Drivers/STM32L4xx_HAL_Driver/Src/stm32l4xx_hal_flash.c ****   }
 523:../03_Drivers/STM32L4xx_HAL_Driver/Src/stm32l4xx_hal_flash.c **** 
 524:../03_Drivers/STM32L4xx_HAL_Driver/Src/stm32l4xx_hal_flash.c ****   return status;
 525:../03_Drivers/STM32L4xx_HAL_Driver/Src/stm32l4xx_hal_flash.c **** }
 526:../03_Drivers/STM32L4xx_HAL_Driver/Src/stm32l4xx_hal_flash.c **** 
 527:../03_Drivers/STM32L4xx_HAL_Driver/Src/stm32l4xx_hal_flash.c **** /**
 528:../03_Drivers/STM32L4xx_HAL_Driver/Src/stm32l4xx_hal_flash.c ****   * @brief  Lock the FLASH control register access.
 529:../03_Drivers/STM32L4xx_HAL_Driver/Src/stm32l4xx_hal_flash.c ****   * @retval HAL Status
 530:../03_Drivers/STM32L4xx_HAL_Driver/Src/stm32l4xx_hal_flash.c ****   */
 531:../03_Drivers/STM32L4xx_HAL_Driver/Src/stm32l4xx_hal_flash.c **** HAL_StatusTypeDef HAL_FLASH_Lock(void)
 532:../03_Drivers/STM32L4xx_HAL_Driver/Src/stm32l4xx_hal_flash.c **** {
ARM GAS  C:\Users\minde\AppData\Local\Temp\cc31p2l9.s 			page 11


 533:../03_Drivers/STM32L4xx_HAL_Driver/Src/stm32l4xx_hal_flash.c ****   /* Set the LOCK Bit to lock the FLASH Registers access */
 534:../03_Drivers/STM32L4xx_HAL_Driver/Src/stm32l4xx_hal_flash.c ****   SET_BIT(FLASH->CR, FLASH_CR_LOCK);
 535:../03_Drivers/STM32L4xx_HAL_Driver/Src/stm32l4xx_hal_flash.c **** 
 536:../03_Drivers/STM32L4xx_HAL_Driver/Src/stm32l4xx_hal_flash.c ****   return HAL_OK;
 537:../03_Drivers/STM32L4xx_HAL_Driver/Src/stm32l4xx_hal_flash.c **** }
 538:../03_Drivers/STM32L4xx_HAL_Driver/Src/stm32l4xx_hal_flash.c **** 
 539:../03_Drivers/STM32L4xx_HAL_Driver/Src/stm32l4xx_hal_flash.c **** /**
 540:../03_Drivers/STM32L4xx_HAL_Driver/Src/stm32l4xx_hal_flash.c ****   * @brief  Unlock the FLASH Option Bytes Registers access.
 541:../03_Drivers/STM32L4xx_HAL_Driver/Src/stm32l4xx_hal_flash.c ****   * @retval HAL Status
 542:../03_Drivers/STM32L4xx_HAL_Driver/Src/stm32l4xx_hal_flash.c ****   */
 543:../03_Drivers/STM32L4xx_HAL_Driver/Src/stm32l4xx_hal_flash.c **** HAL_StatusTypeDef HAL_FLASH_OB_Unlock(void)
 544:../03_Drivers/STM32L4xx_HAL_Driver/Src/stm32l4xx_hal_flash.c **** {
 545:../03_Drivers/STM32L4xx_HAL_Driver/Src/stm32l4xx_hal_flash.c ****   if(READ_BIT(FLASH->CR, FLASH_CR_OPTLOCK) != 0U)
 546:../03_Drivers/STM32L4xx_HAL_Driver/Src/stm32l4xx_hal_flash.c ****   {
 547:../03_Drivers/STM32L4xx_HAL_Driver/Src/stm32l4xx_hal_flash.c ****     /* Authorizes the Option Byte register programming */
 548:../03_Drivers/STM32L4xx_HAL_Driver/Src/stm32l4xx_hal_flash.c ****     WRITE_REG(FLASH->OPTKEYR, FLASH_OPTKEY1);
 549:../03_Drivers/STM32L4xx_HAL_Driver/Src/stm32l4xx_hal_flash.c ****     WRITE_REG(FLASH->OPTKEYR, FLASH_OPTKEY2);
 550:../03_Drivers/STM32L4xx_HAL_Driver/Src/stm32l4xx_hal_flash.c ****   }
 551:../03_Drivers/STM32L4xx_HAL_Driver/Src/stm32l4xx_hal_flash.c ****   else
 552:../03_Drivers/STM32L4xx_HAL_Driver/Src/stm32l4xx_hal_flash.c ****   {
 553:../03_Drivers/STM32L4xx_HAL_Driver/Src/stm32l4xx_hal_flash.c ****     return HAL_ERROR;
 554:../03_Drivers/STM32L4xx_HAL_Driver/Src/stm32l4xx_hal_flash.c ****   }
 555:../03_Drivers/STM32L4xx_HAL_Driver/Src/stm32l4xx_hal_flash.c **** 
 556:../03_Drivers/STM32L4xx_HAL_Driver/Src/stm32l4xx_hal_flash.c ****   return HAL_OK;
 557:../03_Drivers/STM32L4xx_HAL_Driver/Src/stm32l4xx_hal_flash.c **** }
 558:../03_Drivers/STM32L4xx_HAL_Driver/Src/stm32l4xx_hal_flash.c **** 
 559:../03_Drivers/STM32L4xx_HAL_Driver/Src/stm32l4xx_hal_flash.c **** /**
 560:../03_Drivers/STM32L4xx_HAL_Driver/Src/stm32l4xx_hal_flash.c ****   * @brief  Lock the FLASH Option Bytes Registers access.
 561:../03_Drivers/STM32L4xx_HAL_Driver/Src/stm32l4xx_hal_flash.c ****   * @retval HAL Status
 562:../03_Drivers/STM32L4xx_HAL_Driver/Src/stm32l4xx_hal_flash.c ****   */
 563:../03_Drivers/STM32L4xx_HAL_Driver/Src/stm32l4xx_hal_flash.c **** HAL_StatusTypeDef HAL_FLASH_OB_Lock(void)
 564:../03_Drivers/STM32L4xx_HAL_Driver/Src/stm32l4xx_hal_flash.c **** {
 565:../03_Drivers/STM32L4xx_HAL_Driver/Src/stm32l4xx_hal_flash.c ****   /* Set the OPTLOCK Bit to lock the FLASH Option Byte Registers access */
 566:../03_Drivers/STM32L4xx_HAL_Driver/Src/stm32l4xx_hal_flash.c ****   SET_BIT(FLASH->CR, FLASH_CR_OPTLOCK);
 567:../03_Drivers/STM32L4xx_HAL_Driver/Src/stm32l4xx_hal_flash.c **** 
 568:../03_Drivers/STM32L4xx_HAL_Driver/Src/stm32l4xx_hal_flash.c ****   return HAL_OK;
 569:../03_Drivers/STM32L4xx_HAL_Driver/Src/stm32l4xx_hal_flash.c **** }
 570:../03_Drivers/STM32L4xx_HAL_Driver/Src/stm32l4xx_hal_flash.c **** 
 571:../03_Drivers/STM32L4xx_HAL_Driver/Src/stm32l4xx_hal_flash.c **** /**
 572:../03_Drivers/STM32L4xx_HAL_Driver/Src/stm32l4xx_hal_flash.c ****   * @brief  Launch the option byte loading.
 573:../03_Drivers/STM32L4xx_HAL_Driver/Src/stm32l4xx_hal_flash.c ****   * @retval HAL Status
 574:../03_Drivers/STM32L4xx_HAL_Driver/Src/stm32l4xx_hal_flash.c ****   */
 575:../03_Drivers/STM32L4xx_HAL_Driver/Src/stm32l4xx_hal_flash.c **** HAL_StatusTypeDef HAL_FLASH_OB_Launch(void)
 576:../03_Drivers/STM32L4xx_HAL_Driver/Src/stm32l4xx_hal_flash.c **** {
 577:../03_Drivers/STM32L4xx_HAL_Driver/Src/stm32l4xx_hal_flash.c ****   /* Set the bit to force the option byte reloading */
 578:../03_Drivers/STM32L4xx_HAL_Driver/Src/stm32l4xx_hal_flash.c ****   SET_BIT(FLASH->CR, FLASH_CR_OBL_LAUNCH);
 579:../03_Drivers/STM32L4xx_HAL_Driver/Src/stm32l4xx_hal_flash.c **** 
 580:../03_Drivers/STM32L4xx_HAL_Driver/Src/stm32l4xx_hal_flash.c ****   /* Wait for last operation to be completed */
 581:../03_Drivers/STM32L4xx_HAL_Driver/Src/stm32l4xx_hal_flash.c ****   return(FLASH_WaitForLastOperation((uint32_t)FLASH_TIMEOUT_VALUE));
 582:../03_Drivers/STM32L4xx_HAL_Driver/Src/stm32l4xx_hal_flash.c **** }
 583:../03_Drivers/STM32L4xx_HAL_Driver/Src/stm32l4xx_hal_flash.c **** 
 584:../03_Drivers/STM32L4xx_HAL_Driver/Src/stm32l4xx_hal_flash.c **** /**
 585:../03_Drivers/STM32L4xx_HAL_Driver/Src/stm32l4xx_hal_flash.c ****   * @}
 586:../03_Drivers/STM32L4xx_HAL_Driver/Src/stm32l4xx_hal_flash.c ****   */
 587:../03_Drivers/STM32L4xx_HAL_Driver/Src/stm32l4xx_hal_flash.c **** 
 588:../03_Drivers/STM32L4xx_HAL_Driver/Src/stm32l4xx_hal_flash.c **** /** @defgroup FLASH_Exported_Functions_Group3 Peripheral State and Errors functions
 589:../03_Drivers/STM32L4xx_HAL_Driver/Src/stm32l4xx_hal_flash.c ****  *  @brief   Peripheral Errors functions
ARM GAS  C:\Users\minde\AppData\Local\Temp\cc31p2l9.s 			page 12


 590:../03_Drivers/STM32L4xx_HAL_Driver/Src/stm32l4xx_hal_flash.c ****  *
 591:../03_Drivers/STM32L4xx_HAL_Driver/Src/stm32l4xx_hal_flash.c **** @verbatim
 592:../03_Drivers/STM32L4xx_HAL_Driver/Src/stm32l4xx_hal_flash.c ****  ===============================================================================
 593:../03_Drivers/STM32L4xx_HAL_Driver/Src/stm32l4xx_hal_flash.c ****                 ##### Peripheral Errors functions #####
 594:../03_Drivers/STM32L4xx_HAL_Driver/Src/stm32l4xx_hal_flash.c ****  ===============================================================================
 595:../03_Drivers/STM32L4xx_HAL_Driver/Src/stm32l4xx_hal_flash.c ****     [..]
 596:../03_Drivers/STM32L4xx_HAL_Driver/Src/stm32l4xx_hal_flash.c ****     This subsection permits to get in run-time Errors of the FLASH peripheral.
 597:../03_Drivers/STM32L4xx_HAL_Driver/Src/stm32l4xx_hal_flash.c **** 
 598:../03_Drivers/STM32L4xx_HAL_Driver/Src/stm32l4xx_hal_flash.c **** @endverbatim
 599:../03_Drivers/STM32L4xx_HAL_Driver/Src/stm32l4xx_hal_flash.c ****   * @{
 600:../03_Drivers/STM32L4xx_HAL_Driver/Src/stm32l4xx_hal_flash.c ****   */
 601:../03_Drivers/STM32L4xx_HAL_Driver/Src/stm32l4xx_hal_flash.c **** 
 602:../03_Drivers/STM32L4xx_HAL_Driver/Src/stm32l4xx_hal_flash.c **** /**
 603:../03_Drivers/STM32L4xx_HAL_Driver/Src/stm32l4xx_hal_flash.c ****   * @brief  Get the specific FLASH error flag.
 604:../03_Drivers/STM32L4xx_HAL_Driver/Src/stm32l4xx_hal_flash.c ****   * @retval FLASH_ErrorCode: The returned value can be:
 605:../03_Drivers/STM32L4xx_HAL_Driver/Src/stm32l4xx_hal_flash.c ****   *            @arg HAL_FLASH_ERROR_RD: FLASH Read Protection error flag (PCROP)
 606:../03_Drivers/STM32L4xx_HAL_Driver/Src/stm32l4xx_hal_flash.c ****   *            @arg HAL_FLASH_ERROR_PGS: FLASH Programming Sequence error flag
 607:../03_Drivers/STM32L4xx_HAL_Driver/Src/stm32l4xx_hal_flash.c ****   *            @arg HAL_FLASH_ERROR_PGP: FLASH Programming Parallelism error flag
 608:../03_Drivers/STM32L4xx_HAL_Driver/Src/stm32l4xx_hal_flash.c ****   *            @arg HAL_FLASH_ERROR_PGA: FLASH Programming Alignment error flag
 609:../03_Drivers/STM32L4xx_HAL_Driver/Src/stm32l4xx_hal_flash.c ****   *            @arg HAL_FLASH_ERROR_WRP: FLASH Write protected error flag
 610:../03_Drivers/STM32L4xx_HAL_Driver/Src/stm32l4xx_hal_flash.c ****   *            @arg HAL_FLASH_ERROR_OPERATION: FLASH operation Error flag
 611:../03_Drivers/STM32L4xx_HAL_Driver/Src/stm32l4xx_hal_flash.c ****   *            @arg HAL_FLASH_ERROR_NONE: No error set
 612:../03_Drivers/STM32L4xx_HAL_Driver/Src/stm32l4xx_hal_flash.c ****   *            @arg HAL_FLASH_ERROR_OP: FLASH Operation error
 613:../03_Drivers/STM32L4xx_HAL_Driver/Src/stm32l4xx_hal_flash.c ****   *            @arg HAL_FLASH_ERROR_PROG: FLASH Programming error
 614:../03_Drivers/STM32L4xx_HAL_Driver/Src/stm32l4xx_hal_flash.c ****   *            @arg HAL_FLASH_ERROR_WRP: FLASH Write protection error
 615:../03_Drivers/STM32L4xx_HAL_Driver/Src/stm32l4xx_hal_flash.c ****   *            @arg HAL_FLASH_ERROR_PGA: FLASH Programming alignment error
 616:../03_Drivers/STM32L4xx_HAL_Driver/Src/stm32l4xx_hal_flash.c ****   *            @arg HAL_FLASH_ERROR_SIZ: FLASH Size error
 617:../03_Drivers/STM32L4xx_HAL_Driver/Src/stm32l4xx_hal_flash.c ****   *            @arg HAL_FLASH_ERROR_PGS: FLASH Programming sequence error
 618:../03_Drivers/STM32L4xx_HAL_Driver/Src/stm32l4xx_hal_flash.c ****   *            @arg HAL_FLASH_ERROR_MIS: FLASH Fast programming data miss error
 619:../03_Drivers/STM32L4xx_HAL_Driver/Src/stm32l4xx_hal_flash.c ****   *            @arg HAL_FLASH_ERROR_FAST: FLASH Fast programming error
 620:../03_Drivers/STM32L4xx_HAL_Driver/Src/stm32l4xx_hal_flash.c ****   *            @arg HAL_FLASH_ERROR_RD: FLASH PCROP read error
 621:../03_Drivers/STM32L4xx_HAL_Driver/Src/stm32l4xx_hal_flash.c ****   *            @arg HAL_FLASH_ERROR_OPTV: FLASH Option validity error
 622:../03_Drivers/STM32L4xx_HAL_Driver/Src/stm32l4xx_hal_flash.c ****   *            @arg FLASH_FLAG_PEMPTY : FLASH Boot from not programmed flash (apply only for STM32L
 623:../03_Drivers/STM32L4xx_HAL_Driver/Src/stm32l4xx_hal_flash.c ****   */
 624:../03_Drivers/STM32L4xx_HAL_Driver/Src/stm32l4xx_hal_flash.c **** uint32_t HAL_FLASH_GetError(void)
 625:../03_Drivers/STM32L4xx_HAL_Driver/Src/stm32l4xx_hal_flash.c **** {
 626:../03_Drivers/STM32L4xx_HAL_Driver/Src/stm32l4xx_hal_flash.c ****    return pFlash.ErrorCode;
 627:../03_Drivers/STM32L4xx_HAL_Driver/Src/stm32l4xx_hal_flash.c **** }
 628:../03_Drivers/STM32L4xx_HAL_Driver/Src/stm32l4xx_hal_flash.c **** 
 629:../03_Drivers/STM32L4xx_HAL_Driver/Src/stm32l4xx_hal_flash.c **** /**
 630:../03_Drivers/STM32L4xx_HAL_Driver/Src/stm32l4xx_hal_flash.c ****   * @}
 631:../03_Drivers/STM32L4xx_HAL_Driver/Src/stm32l4xx_hal_flash.c ****   */
 632:../03_Drivers/STM32L4xx_HAL_Driver/Src/stm32l4xx_hal_flash.c **** 
 633:../03_Drivers/STM32L4xx_HAL_Driver/Src/stm32l4xx_hal_flash.c **** /**
 634:../03_Drivers/STM32L4xx_HAL_Driver/Src/stm32l4xx_hal_flash.c ****   * @}
 635:../03_Drivers/STM32L4xx_HAL_Driver/Src/stm32l4xx_hal_flash.c ****   */
 636:../03_Drivers/STM32L4xx_HAL_Driver/Src/stm32l4xx_hal_flash.c **** 
 637:../03_Drivers/STM32L4xx_HAL_Driver/Src/stm32l4xx_hal_flash.c **** /* Private functions ---------------------------------------------------------*/
 638:../03_Drivers/STM32L4xx_HAL_Driver/Src/stm32l4xx_hal_flash.c **** 
 639:../03_Drivers/STM32L4xx_HAL_Driver/Src/stm32l4xx_hal_flash.c **** /** @addtogroup FLASH_Private_Functions
 640:../03_Drivers/STM32L4xx_HAL_Driver/Src/stm32l4xx_hal_flash.c ****   * @{
 641:../03_Drivers/STM32L4xx_HAL_Driver/Src/stm32l4xx_hal_flash.c ****   */
 642:../03_Drivers/STM32L4xx_HAL_Driver/Src/stm32l4xx_hal_flash.c **** 
 643:../03_Drivers/STM32L4xx_HAL_Driver/Src/stm32l4xx_hal_flash.c **** /**
 644:../03_Drivers/STM32L4xx_HAL_Driver/Src/stm32l4xx_hal_flash.c ****   * @brief  Wait for a FLASH operation to complete.
 645:../03_Drivers/STM32L4xx_HAL_Driver/Src/stm32l4xx_hal_flash.c ****   * @param  Timeout maximum flash operation timeout
 646:../03_Drivers/STM32L4xx_HAL_Driver/Src/stm32l4xx_hal_flash.c ****   * @retval HAL_StatusTypeDef HAL Status
ARM GAS  C:\Users\minde\AppData\Local\Temp\cc31p2l9.s 			page 13


 647:../03_Drivers/STM32L4xx_HAL_Driver/Src/stm32l4xx_hal_flash.c ****   */
 648:../03_Drivers/STM32L4xx_HAL_Driver/Src/stm32l4xx_hal_flash.c **** HAL_StatusTypeDef FLASH_WaitForLastOperation(uint32_t Timeout)
 649:../03_Drivers/STM32L4xx_HAL_Driver/Src/stm32l4xx_hal_flash.c **** {
 650:../03_Drivers/STM32L4xx_HAL_Driver/Src/stm32l4xx_hal_flash.c ****   /* Wait for the FLASH operation to complete by polling on BUSY flag to be reset.
 651:../03_Drivers/STM32L4xx_HAL_Driver/Src/stm32l4xx_hal_flash.c ****      Even if the FLASH operation fails, the BUSY flag will be reset and an error
 652:../03_Drivers/STM32L4xx_HAL_Driver/Src/stm32l4xx_hal_flash.c ****      flag will be set */
 653:../03_Drivers/STM32L4xx_HAL_Driver/Src/stm32l4xx_hal_flash.c **** 
 654:../03_Drivers/STM32L4xx_HAL_Driver/Src/stm32l4xx_hal_flash.c ****   uint32_t tickstart = HAL_GetTick();
 655:../03_Drivers/STM32L4xx_HAL_Driver/Src/stm32l4xx_hal_flash.c ****   uint32_t error;
 656:../03_Drivers/STM32L4xx_HAL_Driver/Src/stm32l4xx_hal_flash.c **** 
 657:../03_Drivers/STM32L4xx_HAL_Driver/Src/stm32l4xx_hal_flash.c ****   while(__HAL_FLASH_GET_FLAG(FLASH_FLAG_BSY))
 658:../03_Drivers/STM32L4xx_HAL_Driver/Src/stm32l4xx_hal_flash.c ****   {
 659:../03_Drivers/STM32L4xx_HAL_Driver/Src/stm32l4xx_hal_flash.c ****     if(Timeout != HAL_MAX_DELAY)
 660:../03_Drivers/STM32L4xx_HAL_Driver/Src/stm32l4xx_hal_flash.c ****     {
 661:../03_Drivers/STM32L4xx_HAL_Driver/Src/stm32l4xx_hal_flash.c ****       if((HAL_GetTick() - tickstart) >= Timeout)
 662:../03_Drivers/STM32L4xx_HAL_Driver/Src/stm32l4xx_hal_flash.c ****       {
 663:../03_Drivers/STM32L4xx_HAL_Driver/Src/stm32l4xx_hal_flash.c ****         return HAL_TIMEOUT;
 664:../03_Drivers/STM32L4xx_HAL_Driver/Src/stm32l4xx_hal_flash.c ****       }
 665:../03_Drivers/STM32L4xx_HAL_Driver/Src/stm32l4xx_hal_flash.c ****     }
 666:../03_Drivers/STM32L4xx_HAL_Driver/Src/stm32l4xx_hal_flash.c ****   }
 667:../03_Drivers/STM32L4xx_HAL_Driver/Src/stm32l4xx_hal_flash.c **** 
 668:../03_Drivers/STM32L4xx_HAL_Driver/Src/stm32l4xx_hal_flash.c ****   error = (FLASH->SR & FLASH_FLAG_SR_ERRORS);
 669:../03_Drivers/STM32L4xx_HAL_Driver/Src/stm32l4xx_hal_flash.c **** 
 670:../03_Drivers/STM32L4xx_HAL_Driver/Src/stm32l4xx_hal_flash.c ****   if(error != 0u)
 671:../03_Drivers/STM32L4xx_HAL_Driver/Src/stm32l4xx_hal_flash.c ****   {
 672:../03_Drivers/STM32L4xx_HAL_Driver/Src/stm32l4xx_hal_flash.c ****     /*Save the error code*/
 673:../03_Drivers/STM32L4xx_HAL_Driver/Src/stm32l4xx_hal_flash.c ****     pFlash.ErrorCode |= error;
 674:../03_Drivers/STM32L4xx_HAL_Driver/Src/stm32l4xx_hal_flash.c **** 
 675:../03_Drivers/STM32L4xx_HAL_Driver/Src/stm32l4xx_hal_flash.c ****     /* Clear error programming flags */
 676:../03_Drivers/STM32L4xx_HAL_Driver/Src/stm32l4xx_hal_flash.c ****     __HAL_FLASH_CLEAR_FLAG(error);
 677:../03_Drivers/STM32L4xx_HAL_Driver/Src/stm32l4xx_hal_flash.c **** 
 678:../03_Drivers/STM32L4xx_HAL_Driver/Src/stm32l4xx_hal_flash.c ****     return HAL_ERROR;
 679:../03_Drivers/STM32L4xx_HAL_Driver/Src/stm32l4xx_hal_flash.c ****   }
 680:../03_Drivers/STM32L4xx_HAL_Driver/Src/stm32l4xx_hal_flash.c **** 
 681:../03_Drivers/STM32L4xx_HAL_Driver/Src/stm32l4xx_hal_flash.c ****   /* Check FLASH End of Operation flag  */
 682:../03_Drivers/STM32L4xx_HAL_Driver/Src/stm32l4xx_hal_flash.c ****   if (__HAL_FLASH_GET_FLAG(FLASH_FLAG_EOP))
 683:../03_Drivers/STM32L4xx_HAL_Driver/Src/stm32l4xx_hal_flash.c ****   {
 684:../03_Drivers/STM32L4xx_HAL_Driver/Src/stm32l4xx_hal_flash.c ****     /* Clear FLASH End of Operation pending bit */
 685:../03_Drivers/STM32L4xx_HAL_Driver/Src/stm32l4xx_hal_flash.c ****     __HAL_FLASH_CLEAR_FLAG(FLASH_FLAG_EOP);
 686:../03_Drivers/STM32L4xx_HAL_Driver/Src/stm32l4xx_hal_flash.c ****   }
 687:../03_Drivers/STM32L4xx_HAL_Driver/Src/stm32l4xx_hal_flash.c **** 
 688:../03_Drivers/STM32L4xx_HAL_Driver/Src/stm32l4xx_hal_flash.c ****   /* If there is an error flag set */
 689:../03_Drivers/STM32L4xx_HAL_Driver/Src/stm32l4xx_hal_flash.c ****   return HAL_OK;
 690:../03_Drivers/STM32L4xx_HAL_Driver/Src/stm32l4xx_hal_flash.c **** }
 691:../03_Drivers/STM32L4xx_HAL_Driver/Src/stm32l4xx_hal_flash.c **** 
 692:../03_Drivers/STM32L4xx_HAL_Driver/Src/stm32l4xx_hal_flash.c **** /**
 693:../03_Drivers/STM32L4xx_HAL_Driver/Src/stm32l4xx_hal_flash.c ****   * @brief  Program double-word (64-bit) at a specified address.
 694:../03_Drivers/STM32L4xx_HAL_Driver/Src/stm32l4xx_hal_flash.c ****   * @param  Address specifies the address to be programmed.
 695:../03_Drivers/STM32L4xx_HAL_Driver/Src/stm32l4xx_hal_flash.c ****   * @param  Data specifies the data to be programmed.
 696:../03_Drivers/STM32L4xx_HAL_Driver/Src/stm32l4xx_hal_flash.c ****   * @retval None
 697:../03_Drivers/STM32L4xx_HAL_Driver/Src/stm32l4xx_hal_flash.c ****   */
 698:../03_Drivers/STM32L4xx_HAL_Driver/Src/stm32l4xx_hal_flash.c **** static void FLASH_Program_DoubleWord(uint32_t Address, uint64_t Data)
 699:../03_Drivers/STM32L4xx_HAL_Driver/Src/stm32l4xx_hal_flash.c **** {
  34              		.loc 1 699 1 view -0
  35              		.cfi_startproc
  36              		@ args = 0, pretend = 0, frame = 0
  37              		@ frame_needed = 0, uses_anonymous_args = 0
ARM GAS  C:\Users\minde\AppData\Local\Temp\cc31p2l9.s 			page 14


  38              		.loc 1 699 1 is_stmt 0 view .LVU1
  39 0000 70B5     		push	{r4, r5, r6, lr}
  40              	.LCFI0:
  41              		.cfi_def_cfa_offset 16
  42              		.cfi_offset 4, -16
  43              		.cfi_offset 5, -12
  44              		.cfi_offset 6, -8
  45              		.cfi_offset 14, -4
  46 0002 0446     		mov	r4, r0
  47 0004 1646     		mov	r6, r2
  48 0006 1D46     		mov	r5, r3
 700:../03_Drivers/STM32L4xx_HAL_Driver/Src/stm32l4xx_hal_flash.c ****   /* Check the parameters */
 701:../03_Drivers/STM32L4xx_HAL_Driver/Src/stm32l4xx_hal_flash.c ****   assert_param(IS_FLASH_PROGRAM_ADDRESS(Address));
  49              		.loc 1 701 3 is_stmt 1 view .LVU2
  50 0008 B0F1006F 		cmp	r0, #134217728
  51 000c 16D3     		bcc	.L2
  52              		.loc 1 701 3 is_stmt 0 discriminator 2 view .LVU3
  53 000e 1D4B     		ldr	r3, .L14
  54 0010 B3F8E030 		ldrh	r3, [r3, #224]
  55 0014 C3F30B03 		ubfx	r3, r3, #0, #12
  56 0018 B3F5806F 		cmp	r3, #1024
  57 001c 0BD0     		beq	.L9
  58              		.loc 1 701 3 discriminator 4 view .LVU4
  59 001e B3F5007F 		cmp	r3, #512
  60 0022 1CD0     		beq	.L10
  61              		.loc 1 701 3 discriminator 7 view .LVU5
  62 0024 B3F5807F 		cmp	r3, #256
  63 0028 1DD0     		beq	.L11
  64              		.loc 1 701 3 discriminator 10 view .LVU6
  65 002a 802B     		cmp	r3, #128
  66 002c 1FD0     		beq	.L12
  67              		.loc 1 701 3 discriminator 13 view .LVU7
  68 002e B0F1016F 		cmp	r0, #135266304
  69 0032 0AD3     		bcc	.L4
  70 0034 02E0     		b	.L2
  71              	.L9:
  72              		.loc 1 701 3 discriminator 3 view .LVU8
  73 0036 B0F1016F 		cmp	r0, #135266304
  74 003a 06D3     		bcc	.L4
  75              	.L2:
  76              		.loc 1 701 3 discriminator 15 view .LVU9
  77 003c 04F16043 		add	r3, r4, #-536870912
  78 0040 03F51043 		add	r3, r3, #36864
  79 0044 B3F5806F 		cmp	r3, #1024
  80 0048 15D2     		bcs	.L13
  81              	.LVL1:
  82              	.L4:
 702:../03_Drivers/STM32L4xx_HAL_Driver/Src/stm32l4xx_hal_flash.c **** 
 703:../03_Drivers/STM32L4xx_HAL_Driver/Src/stm32l4xx_hal_flash.c ****   /* Set PG bit */
 704:../03_Drivers/STM32L4xx_HAL_Driver/Src/stm32l4xx_hal_flash.c ****   SET_BIT(FLASH->CR, FLASH_CR_PG);
  83              		.loc 1 704 3 is_stmt 1 view .LVU10
  84 004a 0F4A     		ldr	r2, .L14+4
  85 004c 5369     		ldr	r3, [r2, #20]
  86 004e 43F00103 		orr	r3, r3, #1
  87 0052 5361     		str	r3, [r2, #20]
 705:../03_Drivers/STM32L4xx_HAL_Driver/Src/stm32l4xx_hal_flash.c **** 
 706:../03_Drivers/STM32L4xx_HAL_Driver/Src/stm32l4xx_hal_flash.c ****   /* Program first word */
ARM GAS  C:\Users\minde\AppData\Local\Temp\cc31p2l9.s 			page 15


 707:../03_Drivers/STM32L4xx_HAL_Driver/Src/stm32l4xx_hal_flash.c ****   *(__IO uint32_t*)Address = (uint32_t)Data;
  88              		.loc 1 707 3 view .LVU11
  89              		.loc 1 707 28 is_stmt 0 view .LVU12
  90 0054 2660     		str	r6, [r4]
 708:../03_Drivers/STM32L4xx_HAL_Driver/Src/stm32l4xx_hal_flash.c **** 
 709:../03_Drivers/STM32L4xx_HAL_Driver/Src/stm32l4xx_hal_flash.c ****   /* Barrier to ensure programming is performed in 2 steps, in right order
 710:../03_Drivers/STM32L4xx_HAL_Driver/Src/stm32l4xx_hal_flash.c ****     (independently of compiler optimization behavior) */
 711:../03_Drivers/STM32L4xx_HAL_Driver/Src/stm32l4xx_hal_flash.c ****   __ISB();
  91              		.loc 1 711 3 is_stmt 1 view .LVU13
  92              	.LBB10:
  93              	.LBI10:
  94              		.file 2 "../03_Drivers/CMSIS/Include/cmsis_gcc.h"
   1:../03_Drivers/CMSIS/Include/cmsis_gcc.h **** /**************************************************************************//**
   2:../03_Drivers/CMSIS/Include/cmsis_gcc.h ****  * @file     cmsis_gcc.h
   3:../03_Drivers/CMSIS/Include/cmsis_gcc.h ****  * @brief    CMSIS compiler GCC header file
   4:../03_Drivers/CMSIS/Include/cmsis_gcc.h ****  * @version  V5.2.0
   5:../03_Drivers/CMSIS/Include/cmsis_gcc.h ****  * @date     08. May 2019
   6:../03_Drivers/CMSIS/Include/cmsis_gcc.h ****  ******************************************************************************/
   7:../03_Drivers/CMSIS/Include/cmsis_gcc.h **** /*
   8:../03_Drivers/CMSIS/Include/cmsis_gcc.h ****  * Copyright (c) 2009-2019 Arm Limited. All rights reserved.
   9:../03_Drivers/CMSIS/Include/cmsis_gcc.h ****  *
  10:../03_Drivers/CMSIS/Include/cmsis_gcc.h ****  * SPDX-License-Identifier: Apache-2.0
  11:../03_Drivers/CMSIS/Include/cmsis_gcc.h ****  *
  12:../03_Drivers/CMSIS/Include/cmsis_gcc.h ****  * Licensed under the Apache License, Version 2.0 (the License); you may
  13:../03_Drivers/CMSIS/Include/cmsis_gcc.h ****  * not use this file except in compliance with the License.
  14:../03_Drivers/CMSIS/Include/cmsis_gcc.h ****  * You may obtain a copy of the License at
  15:../03_Drivers/CMSIS/Include/cmsis_gcc.h ****  *
  16:../03_Drivers/CMSIS/Include/cmsis_gcc.h ****  * www.apache.org/licenses/LICENSE-2.0
  17:../03_Drivers/CMSIS/Include/cmsis_gcc.h ****  *
  18:../03_Drivers/CMSIS/Include/cmsis_gcc.h ****  * Unless required by applicable law or agreed to in writing, software
  19:../03_Drivers/CMSIS/Include/cmsis_gcc.h ****  * distributed under the License is distributed on an AS IS BASIS, WITHOUT
  20:../03_Drivers/CMSIS/Include/cmsis_gcc.h ****  * WARRANTIES OR CONDITIONS OF ANY KIND, either express or implied.
  21:../03_Drivers/CMSIS/Include/cmsis_gcc.h ****  * See the License for the specific language governing permissions and
  22:../03_Drivers/CMSIS/Include/cmsis_gcc.h ****  * limitations under the License.
  23:../03_Drivers/CMSIS/Include/cmsis_gcc.h ****  */
  24:../03_Drivers/CMSIS/Include/cmsis_gcc.h **** 
  25:../03_Drivers/CMSIS/Include/cmsis_gcc.h **** #ifndef __CMSIS_GCC_H
  26:../03_Drivers/CMSIS/Include/cmsis_gcc.h **** #define __CMSIS_GCC_H
  27:../03_Drivers/CMSIS/Include/cmsis_gcc.h **** 
  28:../03_Drivers/CMSIS/Include/cmsis_gcc.h **** /* ignore some GCC warnings */
  29:../03_Drivers/CMSIS/Include/cmsis_gcc.h **** #pragma GCC diagnostic push
  30:../03_Drivers/CMSIS/Include/cmsis_gcc.h **** #pragma GCC diagnostic ignored "-Wsign-conversion"
  31:../03_Drivers/CMSIS/Include/cmsis_gcc.h **** #pragma GCC diagnostic ignored "-Wconversion"
  32:../03_Drivers/CMSIS/Include/cmsis_gcc.h **** #pragma GCC diagnostic ignored "-Wunused-parameter"
  33:../03_Drivers/CMSIS/Include/cmsis_gcc.h **** 
  34:../03_Drivers/CMSIS/Include/cmsis_gcc.h **** /* Fallback for __has_builtin */
  35:../03_Drivers/CMSIS/Include/cmsis_gcc.h **** #ifndef __has_builtin
  36:../03_Drivers/CMSIS/Include/cmsis_gcc.h ****   #define __has_builtin(x) (0)
  37:../03_Drivers/CMSIS/Include/cmsis_gcc.h **** #endif
  38:../03_Drivers/CMSIS/Include/cmsis_gcc.h **** 
  39:../03_Drivers/CMSIS/Include/cmsis_gcc.h **** /* CMSIS compiler specific defines */
  40:../03_Drivers/CMSIS/Include/cmsis_gcc.h **** #ifndef   __ASM
  41:../03_Drivers/CMSIS/Include/cmsis_gcc.h ****   #define __ASM                                  __asm
  42:../03_Drivers/CMSIS/Include/cmsis_gcc.h **** #endif
  43:../03_Drivers/CMSIS/Include/cmsis_gcc.h **** #ifndef   __INLINE
  44:../03_Drivers/CMSIS/Include/cmsis_gcc.h ****   #define __INLINE                               inline
  45:../03_Drivers/CMSIS/Include/cmsis_gcc.h **** #endif
ARM GAS  C:\Users\minde\AppData\Local\Temp\cc31p2l9.s 			page 16


  46:../03_Drivers/CMSIS/Include/cmsis_gcc.h **** #ifndef   __STATIC_INLINE
  47:../03_Drivers/CMSIS/Include/cmsis_gcc.h ****   #define __STATIC_INLINE                        static inline
  48:../03_Drivers/CMSIS/Include/cmsis_gcc.h **** #endif
  49:../03_Drivers/CMSIS/Include/cmsis_gcc.h **** #ifndef   __STATIC_FORCEINLINE                 
  50:../03_Drivers/CMSIS/Include/cmsis_gcc.h ****   #define __STATIC_FORCEINLINE                   __attribute__((always_inline)) static inline
  51:../03_Drivers/CMSIS/Include/cmsis_gcc.h **** #endif                                           
  52:../03_Drivers/CMSIS/Include/cmsis_gcc.h **** #ifndef   __NO_RETURN
  53:../03_Drivers/CMSIS/Include/cmsis_gcc.h ****   #define __NO_RETURN                            __attribute__((__noreturn__))
  54:../03_Drivers/CMSIS/Include/cmsis_gcc.h **** #endif
  55:../03_Drivers/CMSIS/Include/cmsis_gcc.h **** #ifndef   __USED
  56:../03_Drivers/CMSIS/Include/cmsis_gcc.h ****   #define __USED                                 __attribute__((used))
  57:../03_Drivers/CMSIS/Include/cmsis_gcc.h **** #endif
  58:../03_Drivers/CMSIS/Include/cmsis_gcc.h **** #ifndef   __WEAK
  59:../03_Drivers/CMSIS/Include/cmsis_gcc.h ****   #define __WEAK                                 __attribute__((weak))
  60:../03_Drivers/CMSIS/Include/cmsis_gcc.h **** #endif
  61:../03_Drivers/CMSIS/Include/cmsis_gcc.h **** #ifndef   __PACKED
  62:../03_Drivers/CMSIS/Include/cmsis_gcc.h ****   #define __PACKED                               __attribute__((packed, aligned(1)))
  63:../03_Drivers/CMSIS/Include/cmsis_gcc.h **** #endif
  64:../03_Drivers/CMSIS/Include/cmsis_gcc.h **** #ifndef   __PACKED_STRUCT
  65:../03_Drivers/CMSIS/Include/cmsis_gcc.h ****   #define __PACKED_STRUCT                        struct __attribute__((packed, aligned(1)))
  66:../03_Drivers/CMSIS/Include/cmsis_gcc.h **** #endif
  67:../03_Drivers/CMSIS/Include/cmsis_gcc.h **** #ifndef   __PACKED_UNION
  68:../03_Drivers/CMSIS/Include/cmsis_gcc.h ****   #define __PACKED_UNION                         union __attribute__((packed, aligned(1)))
  69:../03_Drivers/CMSIS/Include/cmsis_gcc.h **** #endif
  70:../03_Drivers/CMSIS/Include/cmsis_gcc.h **** #ifndef   __UNALIGNED_UINT32        /* deprecated */
  71:../03_Drivers/CMSIS/Include/cmsis_gcc.h ****   #pragma GCC diagnostic push
  72:../03_Drivers/CMSIS/Include/cmsis_gcc.h ****   #pragma GCC diagnostic ignored "-Wpacked"
  73:../03_Drivers/CMSIS/Include/cmsis_gcc.h ****   #pragma GCC diagnostic ignored "-Wattributes"
  74:../03_Drivers/CMSIS/Include/cmsis_gcc.h ****   struct __attribute__((packed)) T_UINT32 { uint32_t v; };
  75:../03_Drivers/CMSIS/Include/cmsis_gcc.h ****   #pragma GCC diagnostic pop
  76:../03_Drivers/CMSIS/Include/cmsis_gcc.h ****   #define __UNALIGNED_UINT32(x)                  (((struct T_UINT32 *)(x))->v)
  77:../03_Drivers/CMSIS/Include/cmsis_gcc.h **** #endif
  78:../03_Drivers/CMSIS/Include/cmsis_gcc.h **** #ifndef   __UNALIGNED_UINT16_WRITE
  79:../03_Drivers/CMSIS/Include/cmsis_gcc.h ****   #pragma GCC diagnostic push
  80:../03_Drivers/CMSIS/Include/cmsis_gcc.h ****   #pragma GCC diagnostic ignored "-Wpacked"
  81:../03_Drivers/CMSIS/Include/cmsis_gcc.h ****   #pragma GCC diagnostic ignored "-Wattributes"
  82:../03_Drivers/CMSIS/Include/cmsis_gcc.h ****   __PACKED_STRUCT T_UINT16_WRITE { uint16_t v; };
  83:../03_Drivers/CMSIS/Include/cmsis_gcc.h ****   #pragma GCC diagnostic pop
  84:../03_Drivers/CMSIS/Include/cmsis_gcc.h ****   #define __UNALIGNED_UINT16_WRITE(addr, val)    (void)((((struct T_UINT16_WRITE *)(void *)(addr))-
  85:../03_Drivers/CMSIS/Include/cmsis_gcc.h **** #endif
  86:../03_Drivers/CMSIS/Include/cmsis_gcc.h **** #ifndef   __UNALIGNED_UINT16_READ
  87:../03_Drivers/CMSIS/Include/cmsis_gcc.h ****   #pragma GCC diagnostic push
  88:../03_Drivers/CMSIS/Include/cmsis_gcc.h ****   #pragma GCC diagnostic ignored "-Wpacked"
  89:../03_Drivers/CMSIS/Include/cmsis_gcc.h ****   #pragma GCC diagnostic ignored "-Wattributes"
  90:../03_Drivers/CMSIS/Include/cmsis_gcc.h ****   __PACKED_STRUCT T_UINT16_READ { uint16_t v; };
  91:../03_Drivers/CMSIS/Include/cmsis_gcc.h ****   #pragma GCC diagnostic pop
  92:../03_Drivers/CMSIS/Include/cmsis_gcc.h ****   #define __UNALIGNED_UINT16_READ(addr)          (((const struct T_UINT16_READ *)(const void *)(add
  93:../03_Drivers/CMSIS/Include/cmsis_gcc.h **** #endif
  94:../03_Drivers/CMSIS/Include/cmsis_gcc.h **** #ifndef   __UNALIGNED_UINT32_WRITE
  95:../03_Drivers/CMSIS/Include/cmsis_gcc.h ****   #pragma GCC diagnostic push
  96:../03_Drivers/CMSIS/Include/cmsis_gcc.h ****   #pragma GCC diagnostic ignored "-Wpacked"
  97:../03_Drivers/CMSIS/Include/cmsis_gcc.h ****   #pragma GCC diagnostic ignored "-Wattributes"
  98:../03_Drivers/CMSIS/Include/cmsis_gcc.h ****   __PACKED_STRUCT T_UINT32_WRITE { uint32_t v; };
  99:../03_Drivers/CMSIS/Include/cmsis_gcc.h ****   #pragma GCC diagnostic pop
 100:../03_Drivers/CMSIS/Include/cmsis_gcc.h ****   #define __UNALIGNED_UINT32_WRITE(addr, val)    (void)((((struct T_UINT32_WRITE *)(void *)(addr))-
 101:../03_Drivers/CMSIS/Include/cmsis_gcc.h **** #endif
 102:../03_Drivers/CMSIS/Include/cmsis_gcc.h **** #ifndef   __UNALIGNED_UINT32_READ
ARM GAS  C:\Users\minde\AppData\Local\Temp\cc31p2l9.s 			page 17


 103:../03_Drivers/CMSIS/Include/cmsis_gcc.h ****   #pragma GCC diagnostic push
 104:../03_Drivers/CMSIS/Include/cmsis_gcc.h ****   #pragma GCC diagnostic ignored "-Wpacked"
 105:../03_Drivers/CMSIS/Include/cmsis_gcc.h ****   #pragma GCC diagnostic ignored "-Wattributes"
 106:../03_Drivers/CMSIS/Include/cmsis_gcc.h ****   __PACKED_STRUCT T_UINT32_READ { uint32_t v; };
 107:../03_Drivers/CMSIS/Include/cmsis_gcc.h ****   #pragma GCC diagnostic pop
 108:../03_Drivers/CMSIS/Include/cmsis_gcc.h ****   #define __UNALIGNED_UINT32_READ(addr)          (((const struct T_UINT32_READ *)(const void *)(add
 109:../03_Drivers/CMSIS/Include/cmsis_gcc.h **** #endif
 110:../03_Drivers/CMSIS/Include/cmsis_gcc.h **** #ifndef   __ALIGNED
 111:../03_Drivers/CMSIS/Include/cmsis_gcc.h ****   #define __ALIGNED(x)                           __attribute__((aligned(x)))
 112:../03_Drivers/CMSIS/Include/cmsis_gcc.h **** #endif
 113:../03_Drivers/CMSIS/Include/cmsis_gcc.h **** #ifndef   __RESTRICT
 114:../03_Drivers/CMSIS/Include/cmsis_gcc.h ****   #define __RESTRICT                             __restrict
 115:../03_Drivers/CMSIS/Include/cmsis_gcc.h **** #endif
 116:../03_Drivers/CMSIS/Include/cmsis_gcc.h **** #ifndef   __COMPILER_BARRIER
 117:../03_Drivers/CMSIS/Include/cmsis_gcc.h ****   #define __COMPILER_BARRIER()                   __ASM volatile("":::"memory")
 118:../03_Drivers/CMSIS/Include/cmsis_gcc.h **** #endif
 119:../03_Drivers/CMSIS/Include/cmsis_gcc.h **** 
 120:../03_Drivers/CMSIS/Include/cmsis_gcc.h **** /* #########################  Startup and Lowlevel Init  ######################## */
 121:../03_Drivers/CMSIS/Include/cmsis_gcc.h **** 
 122:../03_Drivers/CMSIS/Include/cmsis_gcc.h **** #ifndef __PROGRAM_START
 123:../03_Drivers/CMSIS/Include/cmsis_gcc.h **** 
 124:../03_Drivers/CMSIS/Include/cmsis_gcc.h **** /**
 125:../03_Drivers/CMSIS/Include/cmsis_gcc.h ****   \brief   Initializes data and bss sections
 126:../03_Drivers/CMSIS/Include/cmsis_gcc.h ****   \details This default implementations initialized all data and additional bss
 127:../03_Drivers/CMSIS/Include/cmsis_gcc.h ****            sections relying on .copy.table and .zero.table specified properly
 128:../03_Drivers/CMSIS/Include/cmsis_gcc.h ****            in the used linker script.
 129:../03_Drivers/CMSIS/Include/cmsis_gcc.h ****   
 130:../03_Drivers/CMSIS/Include/cmsis_gcc.h ****  */
 131:../03_Drivers/CMSIS/Include/cmsis_gcc.h **** __STATIC_FORCEINLINE __NO_RETURN void __cmsis_start(void)
 132:../03_Drivers/CMSIS/Include/cmsis_gcc.h **** {
 133:../03_Drivers/CMSIS/Include/cmsis_gcc.h ****   extern void _start(void) __NO_RETURN;
 134:../03_Drivers/CMSIS/Include/cmsis_gcc.h ****   
 135:../03_Drivers/CMSIS/Include/cmsis_gcc.h ****   typedef struct {
 136:../03_Drivers/CMSIS/Include/cmsis_gcc.h ****     uint32_t const* src;
 137:../03_Drivers/CMSIS/Include/cmsis_gcc.h ****     uint32_t* dest;
 138:../03_Drivers/CMSIS/Include/cmsis_gcc.h ****     uint32_t  wlen;
 139:../03_Drivers/CMSIS/Include/cmsis_gcc.h ****   } __copy_table_t;
 140:../03_Drivers/CMSIS/Include/cmsis_gcc.h ****   
 141:../03_Drivers/CMSIS/Include/cmsis_gcc.h ****   typedef struct {
 142:../03_Drivers/CMSIS/Include/cmsis_gcc.h ****     uint32_t* dest;
 143:../03_Drivers/CMSIS/Include/cmsis_gcc.h ****     uint32_t  wlen;
 144:../03_Drivers/CMSIS/Include/cmsis_gcc.h ****   } __zero_table_t;
 145:../03_Drivers/CMSIS/Include/cmsis_gcc.h ****   
 146:../03_Drivers/CMSIS/Include/cmsis_gcc.h ****   extern const __copy_table_t __copy_table_start__;
 147:../03_Drivers/CMSIS/Include/cmsis_gcc.h ****   extern const __copy_table_t __copy_table_end__;
 148:../03_Drivers/CMSIS/Include/cmsis_gcc.h ****   extern const __zero_table_t __zero_table_start__;
 149:../03_Drivers/CMSIS/Include/cmsis_gcc.h ****   extern const __zero_table_t __zero_table_end__;
 150:../03_Drivers/CMSIS/Include/cmsis_gcc.h **** 
 151:../03_Drivers/CMSIS/Include/cmsis_gcc.h ****   for (__copy_table_t const* pTable = &__copy_table_start__; pTable < &__copy_table_end__; ++pTable
 152:../03_Drivers/CMSIS/Include/cmsis_gcc.h ****     for(uint32_t i=0u; i<pTable->wlen; ++i) {
 153:../03_Drivers/CMSIS/Include/cmsis_gcc.h ****       pTable->dest[i] = pTable->src[i];
 154:../03_Drivers/CMSIS/Include/cmsis_gcc.h ****     }
 155:../03_Drivers/CMSIS/Include/cmsis_gcc.h ****   }
 156:../03_Drivers/CMSIS/Include/cmsis_gcc.h ****  
 157:../03_Drivers/CMSIS/Include/cmsis_gcc.h ****   for (__zero_table_t const* pTable = &__zero_table_start__; pTable < &__zero_table_end__; ++pTable
 158:../03_Drivers/CMSIS/Include/cmsis_gcc.h ****     for(uint32_t i=0u; i<pTable->wlen; ++i) {
 159:../03_Drivers/CMSIS/Include/cmsis_gcc.h ****       pTable->dest[i] = 0u;
ARM GAS  C:\Users\minde\AppData\Local\Temp\cc31p2l9.s 			page 18


 160:../03_Drivers/CMSIS/Include/cmsis_gcc.h ****     }
 161:../03_Drivers/CMSIS/Include/cmsis_gcc.h ****   }
 162:../03_Drivers/CMSIS/Include/cmsis_gcc.h ****  
 163:../03_Drivers/CMSIS/Include/cmsis_gcc.h ****   _start();
 164:../03_Drivers/CMSIS/Include/cmsis_gcc.h **** }
 165:../03_Drivers/CMSIS/Include/cmsis_gcc.h ****   
 166:../03_Drivers/CMSIS/Include/cmsis_gcc.h **** #define __PROGRAM_START           __cmsis_start
 167:../03_Drivers/CMSIS/Include/cmsis_gcc.h **** #endif
 168:../03_Drivers/CMSIS/Include/cmsis_gcc.h **** 
 169:../03_Drivers/CMSIS/Include/cmsis_gcc.h **** #ifndef __INITIAL_SP
 170:../03_Drivers/CMSIS/Include/cmsis_gcc.h **** #define __INITIAL_SP              __StackTop
 171:../03_Drivers/CMSIS/Include/cmsis_gcc.h **** #endif
 172:../03_Drivers/CMSIS/Include/cmsis_gcc.h **** 
 173:../03_Drivers/CMSIS/Include/cmsis_gcc.h **** #ifndef __STACK_LIMIT
 174:../03_Drivers/CMSIS/Include/cmsis_gcc.h **** #define __STACK_LIMIT             __StackLimit
 175:../03_Drivers/CMSIS/Include/cmsis_gcc.h **** #endif
 176:../03_Drivers/CMSIS/Include/cmsis_gcc.h **** 
 177:../03_Drivers/CMSIS/Include/cmsis_gcc.h **** #ifndef __VECTOR_TABLE
 178:../03_Drivers/CMSIS/Include/cmsis_gcc.h **** #define __VECTOR_TABLE            __Vectors
 179:../03_Drivers/CMSIS/Include/cmsis_gcc.h **** #endif
 180:../03_Drivers/CMSIS/Include/cmsis_gcc.h **** 
 181:../03_Drivers/CMSIS/Include/cmsis_gcc.h **** #ifndef __VECTOR_TABLE_ATTRIBUTE
 182:../03_Drivers/CMSIS/Include/cmsis_gcc.h **** #define __VECTOR_TABLE_ATTRIBUTE  __attribute((used, section(".vectors")))
 183:../03_Drivers/CMSIS/Include/cmsis_gcc.h **** #endif
 184:../03_Drivers/CMSIS/Include/cmsis_gcc.h **** 
 185:../03_Drivers/CMSIS/Include/cmsis_gcc.h **** /* ###########################  Core Function Access  ########################### */
 186:../03_Drivers/CMSIS/Include/cmsis_gcc.h **** /** \ingroup  CMSIS_Core_FunctionInterface
 187:../03_Drivers/CMSIS/Include/cmsis_gcc.h ****     \defgroup CMSIS_Core_RegAccFunctions CMSIS Core Register Access Functions
 188:../03_Drivers/CMSIS/Include/cmsis_gcc.h ****   @{
 189:../03_Drivers/CMSIS/Include/cmsis_gcc.h ****  */
 190:../03_Drivers/CMSIS/Include/cmsis_gcc.h **** 
 191:../03_Drivers/CMSIS/Include/cmsis_gcc.h **** /**
 192:../03_Drivers/CMSIS/Include/cmsis_gcc.h ****   \brief   Enable IRQ Interrupts
 193:../03_Drivers/CMSIS/Include/cmsis_gcc.h ****   \details Enables IRQ interrupts by clearing the I-bit in the CPSR.
 194:../03_Drivers/CMSIS/Include/cmsis_gcc.h ****            Can only be executed in Privileged modes.
 195:../03_Drivers/CMSIS/Include/cmsis_gcc.h ****  */
 196:../03_Drivers/CMSIS/Include/cmsis_gcc.h **** __STATIC_FORCEINLINE void __enable_irq(void)
 197:../03_Drivers/CMSIS/Include/cmsis_gcc.h **** {
 198:../03_Drivers/CMSIS/Include/cmsis_gcc.h ****   __ASM volatile ("cpsie i" : : : "memory");
 199:../03_Drivers/CMSIS/Include/cmsis_gcc.h **** }
 200:../03_Drivers/CMSIS/Include/cmsis_gcc.h **** 
 201:../03_Drivers/CMSIS/Include/cmsis_gcc.h **** 
 202:../03_Drivers/CMSIS/Include/cmsis_gcc.h **** /**
 203:../03_Drivers/CMSIS/Include/cmsis_gcc.h ****   \brief   Disable IRQ Interrupts
 204:../03_Drivers/CMSIS/Include/cmsis_gcc.h ****   \details Disables IRQ interrupts by setting the I-bit in the CPSR.
 205:../03_Drivers/CMSIS/Include/cmsis_gcc.h ****            Can only be executed in Privileged modes.
 206:../03_Drivers/CMSIS/Include/cmsis_gcc.h ****  */
 207:../03_Drivers/CMSIS/Include/cmsis_gcc.h **** __STATIC_FORCEINLINE void __disable_irq(void)
 208:../03_Drivers/CMSIS/Include/cmsis_gcc.h **** {
 209:../03_Drivers/CMSIS/Include/cmsis_gcc.h ****   __ASM volatile ("cpsid i" : : : "memory");
 210:../03_Drivers/CMSIS/Include/cmsis_gcc.h **** }
 211:../03_Drivers/CMSIS/Include/cmsis_gcc.h **** 
 212:../03_Drivers/CMSIS/Include/cmsis_gcc.h **** 
 213:../03_Drivers/CMSIS/Include/cmsis_gcc.h **** /**
 214:../03_Drivers/CMSIS/Include/cmsis_gcc.h ****   \brief   Get Control Register
 215:../03_Drivers/CMSIS/Include/cmsis_gcc.h ****   \details Returns the content of the Control Register.
 216:../03_Drivers/CMSIS/Include/cmsis_gcc.h ****   \return               Control Register value
ARM GAS  C:\Users\minde\AppData\Local\Temp\cc31p2l9.s 			page 19


 217:../03_Drivers/CMSIS/Include/cmsis_gcc.h ****  */
 218:../03_Drivers/CMSIS/Include/cmsis_gcc.h **** __STATIC_FORCEINLINE uint32_t __get_CONTROL(void)
 219:../03_Drivers/CMSIS/Include/cmsis_gcc.h **** {
 220:../03_Drivers/CMSIS/Include/cmsis_gcc.h ****   uint32_t result;
 221:../03_Drivers/CMSIS/Include/cmsis_gcc.h **** 
 222:../03_Drivers/CMSIS/Include/cmsis_gcc.h ****   __ASM volatile ("MRS %0, control" : "=r" (result) );
 223:../03_Drivers/CMSIS/Include/cmsis_gcc.h ****   return(result);
 224:../03_Drivers/CMSIS/Include/cmsis_gcc.h **** }
 225:../03_Drivers/CMSIS/Include/cmsis_gcc.h **** 
 226:../03_Drivers/CMSIS/Include/cmsis_gcc.h **** 
 227:../03_Drivers/CMSIS/Include/cmsis_gcc.h **** #if (defined (__ARM_FEATURE_CMSE ) && (__ARM_FEATURE_CMSE == 3))
 228:../03_Drivers/CMSIS/Include/cmsis_gcc.h **** /**
 229:../03_Drivers/CMSIS/Include/cmsis_gcc.h ****   \brief   Get Control Register (non-secure)
 230:../03_Drivers/CMSIS/Include/cmsis_gcc.h ****   \details Returns the content of the non-secure Control Register when in secure mode.
 231:../03_Drivers/CMSIS/Include/cmsis_gcc.h ****   \return               non-secure Control Register value
 232:../03_Drivers/CMSIS/Include/cmsis_gcc.h ****  */
 233:../03_Drivers/CMSIS/Include/cmsis_gcc.h **** __STATIC_FORCEINLINE uint32_t __TZ_get_CONTROL_NS(void)
 234:../03_Drivers/CMSIS/Include/cmsis_gcc.h **** {
 235:../03_Drivers/CMSIS/Include/cmsis_gcc.h ****   uint32_t result;
 236:../03_Drivers/CMSIS/Include/cmsis_gcc.h **** 
 237:../03_Drivers/CMSIS/Include/cmsis_gcc.h ****   __ASM volatile ("MRS %0, control_ns" : "=r" (result) );
 238:../03_Drivers/CMSIS/Include/cmsis_gcc.h ****   return(result);
 239:../03_Drivers/CMSIS/Include/cmsis_gcc.h **** }
 240:../03_Drivers/CMSIS/Include/cmsis_gcc.h **** #endif
 241:../03_Drivers/CMSIS/Include/cmsis_gcc.h **** 
 242:../03_Drivers/CMSIS/Include/cmsis_gcc.h **** 
 243:../03_Drivers/CMSIS/Include/cmsis_gcc.h **** /**
 244:../03_Drivers/CMSIS/Include/cmsis_gcc.h ****   \brief   Set Control Register
 245:../03_Drivers/CMSIS/Include/cmsis_gcc.h ****   \details Writes the given value to the Control Register.
 246:../03_Drivers/CMSIS/Include/cmsis_gcc.h ****   \param [in]    control  Control Register value to set
 247:../03_Drivers/CMSIS/Include/cmsis_gcc.h ****  */
 248:../03_Drivers/CMSIS/Include/cmsis_gcc.h **** __STATIC_FORCEINLINE void __set_CONTROL(uint32_t control)
 249:../03_Drivers/CMSIS/Include/cmsis_gcc.h **** {
 250:../03_Drivers/CMSIS/Include/cmsis_gcc.h ****   __ASM volatile ("MSR control, %0" : : "r" (control) : "memory");
 251:../03_Drivers/CMSIS/Include/cmsis_gcc.h **** }
 252:../03_Drivers/CMSIS/Include/cmsis_gcc.h **** 
 253:../03_Drivers/CMSIS/Include/cmsis_gcc.h **** 
 254:../03_Drivers/CMSIS/Include/cmsis_gcc.h **** #if (defined (__ARM_FEATURE_CMSE ) && (__ARM_FEATURE_CMSE == 3))
 255:../03_Drivers/CMSIS/Include/cmsis_gcc.h **** /**
 256:../03_Drivers/CMSIS/Include/cmsis_gcc.h ****   \brief   Set Control Register (non-secure)
 257:../03_Drivers/CMSIS/Include/cmsis_gcc.h ****   \details Writes the given value to the non-secure Control Register when in secure state.
 258:../03_Drivers/CMSIS/Include/cmsis_gcc.h ****   \param [in]    control  Control Register value to set
 259:../03_Drivers/CMSIS/Include/cmsis_gcc.h ****  */
 260:../03_Drivers/CMSIS/Include/cmsis_gcc.h **** __STATIC_FORCEINLINE void __TZ_set_CONTROL_NS(uint32_t control)
 261:../03_Drivers/CMSIS/Include/cmsis_gcc.h **** {
 262:../03_Drivers/CMSIS/Include/cmsis_gcc.h ****   __ASM volatile ("MSR control_ns, %0" : : "r" (control) : "memory");
 263:../03_Drivers/CMSIS/Include/cmsis_gcc.h **** }
 264:../03_Drivers/CMSIS/Include/cmsis_gcc.h **** #endif
 265:../03_Drivers/CMSIS/Include/cmsis_gcc.h **** 
 266:../03_Drivers/CMSIS/Include/cmsis_gcc.h **** 
 267:../03_Drivers/CMSIS/Include/cmsis_gcc.h **** /**
 268:../03_Drivers/CMSIS/Include/cmsis_gcc.h ****   \brief   Get IPSR Register
 269:../03_Drivers/CMSIS/Include/cmsis_gcc.h ****   \details Returns the content of the IPSR Register.
 270:../03_Drivers/CMSIS/Include/cmsis_gcc.h ****   \return               IPSR Register value
 271:../03_Drivers/CMSIS/Include/cmsis_gcc.h ****  */
 272:../03_Drivers/CMSIS/Include/cmsis_gcc.h **** __STATIC_FORCEINLINE uint32_t __get_IPSR(void)
 273:../03_Drivers/CMSIS/Include/cmsis_gcc.h **** {
ARM GAS  C:\Users\minde\AppData\Local\Temp\cc31p2l9.s 			page 20


 274:../03_Drivers/CMSIS/Include/cmsis_gcc.h ****   uint32_t result;
 275:../03_Drivers/CMSIS/Include/cmsis_gcc.h **** 
 276:../03_Drivers/CMSIS/Include/cmsis_gcc.h ****   __ASM volatile ("MRS %0, ipsr" : "=r" (result) );
 277:../03_Drivers/CMSIS/Include/cmsis_gcc.h ****   return(result);
 278:../03_Drivers/CMSIS/Include/cmsis_gcc.h **** }
 279:../03_Drivers/CMSIS/Include/cmsis_gcc.h **** 
 280:../03_Drivers/CMSIS/Include/cmsis_gcc.h **** 
 281:../03_Drivers/CMSIS/Include/cmsis_gcc.h **** /**
 282:../03_Drivers/CMSIS/Include/cmsis_gcc.h ****   \brief   Get APSR Register
 283:../03_Drivers/CMSIS/Include/cmsis_gcc.h ****   \details Returns the content of the APSR Register.
 284:../03_Drivers/CMSIS/Include/cmsis_gcc.h ****   \return               APSR Register value
 285:../03_Drivers/CMSIS/Include/cmsis_gcc.h ****  */
 286:../03_Drivers/CMSIS/Include/cmsis_gcc.h **** __STATIC_FORCEINLINE uint32_t __get_APSR(void)
 287:../03_Drivers/CMSIS/Include/cmsis_gcc.h **** {
 288:../03_Drivers/CMSIS/Include/cmsis_gcc.h ****   uint32_t result;
 289:../03_Drivers/CMSIS/Include/cmsis_gcc.h **** 
 290:../03_Drivers/CMSIS/Include/cmsis_gcc.h ****   __ASM volatile ("MRS %0, apsr" : "=r" (result) );
 291:../03_Drivers/CMSIS/Include/cmsis_gcc.h ****   return(result);
 292:../03_Drivers/CMSIS/Include/cmsis_gcc.h **** }
 293:../03_Drivers/CMSIS/Include/cmsis_gcc.h **** 
 294:../03_Drivers/CMSIS/Include/cmsis_gcc.h **** 
 295:../03_Drivers/CMSIS/Include/cmsis_gcc.h **** /**
 296:../03_Drivers/CMSIS/Include/cmsis_gcc.h ****   \brief   Get xPSR Register
 297:../03_Drivers/CMSIS/Include/cmsis_gcc.h ****   \details Returns the content of the xPSR Register.
 298:../03_Drivers/CMSIS/Include/cmsis_gcc.h ****   \return               xPSR Register value
 299:../03_Drivers/CMSIS/Include/cmsis_gcc.h ****  */
 300:../03_Drivers/CMSIS/Include/cmsis_gcc.h **** __STATIC_FORCEINLINE uint32_t __get_xPSR(void)
 301:../03_Drivers/CMSIS/Include/cmsis_gcc.h **** {
 302:../03_Drivers/CMSIS/Include/cmsis_gcc.h ****   uint32_t result;
 303:../03_Drivers/CMSIS/Include/cmsis_gcc.h **** 
 304:../03_Drivers/CMSIS/Include/cmsis_gcc.h ****   __ASM volatile ("MRS %0, xpsr" : "=r" (result) );
 305:../03_Drivers/CMSIS/Include/cmsis_gcc.h ****   return(result);
 306:../03_Drivers/CMSIS/Include/cmsis_gcc.h **** }
 307:../03_Drivers/CMSIS/Include/cmsis_gcc.h **** 
 308:../03_Drivers/CMSIS/Include/cmsis_gcc.h **** 
 309:../03_Drivers/CMSIS/Include/cmsis_gcc.h **** /**
 310:../03_Drivers/CMSIS/Include/cmsis_gcc.h ****   \brief   Get Process Stack Pointer
 311:../03_Drivers/CMSIS/Include/cmsis_gcc.h ****   \details Returns the current value of the Process Stack Pointer (PSP).
 312:../03_Drivers/CMSIS/Include/cmsis_gcc.h ****   \return               PSP Register value
 313:../03_Drivers/CMSIS/Include/cmsis_gcc.h ****  */
 314:../03_Drivers/CMSIS/Include/cmsis_gcc.h **** __STATIC_FORCEINLINE uint32_t __get_PSP(void)
 315:../03_Drivers/CMSIS/Include/cmsis_gcc.h **** {
 316:../03_Drivers/CMSIS/Include/cmsis_gcc.h ****   uint32_t result;
 317:../03_Drivers/CMSIS/Include/cmsis_gcc.h **** 
 318:../03_Drivers/CMSIS/Include/cmsis_gcc.h ****   __ASM volatile ("MRS %0, psp"  : "=r" (result) );
 319:../03_Drivers/CMSIS/Include/cmsis_gcc.h ****   return(result);
 320:../03_Drivers/CMSIS/Include/cmsis_gcc.h **** }
 321:../03_Drivers/CMSIS/Include/cmsis_gcc.h **** 
 322:../03_Drivers/CMSIS/Include/cmsis_gcc.h **** 
 323:../03_Drivers/CMSIS/Include/cmsis_gcc.h **** #if (defined (__ARM_FEATURE_CMSE ) && (__ARM_FEATURE_CMSE == 3))
 324:../03_Drivers/CMSIS/Include/cmsis_gcc.h **** /**
 325:../03_Drivers/CMSIS/Include/cmsis_gcc.h ****   \brief   Get Process Stack Pointer (non-secure)
 326:../03_Drivers/CMSIS/Include/cmsis_gcc.h ****   \details Returns the current value of the non-secure Process Stack Pointer (PSP) when in secure s
 327:../03_Drivers/CMSIS/Include/cmsis_gcc.h ****   \return               PSP Register value
 328:../03_Drivers/CMSIS/Include/cmsis_gcc.h ****  */
 329:../03_Drivers/CMSIS/Include/cmsis_gcc.h **** __STATIC_FORCEINLINE uint32_t __TZ_get_PSP_NS(void)
 330:../03_Drivers/CMSIS/Include/cmsis_gcc.h **** {
ARM GAS  C:\Users\minde\AppData\Local\Temp\cc31p2l9.s 			page 21


 331:../03_Drivers/CMSIS/Include/cmsis_gcc.h ****   uint32_t result;
 332:../03_Drivers/CMSIS/Include/cmsis_gcc.h **** 
 333:../03_Drivers/CMSIS/Include/cmsis_gcc.h ****   __ASM volatile ("MRS %0, psp_ns"  : "=r" (result) );
 334:../03_Drivers/CMSIS/Include/cmsis_gcc.h ****   return(result);
 335:../03_Drivers/CMSIS/Include/cmsis_gcc.h **** }
 336:../03_Drivers/CMSIS/Include/cmsis_gcc.h **** #endif
 337:../03_Drivers/CMSIS/Include/cmsis_gcc.h **** 
 338:../03_Drivers/CMSIS/Include/cmsis_gcc.h **** 
 339:../03_Drivers/CMSIS/Include/cmsis_gcc.h **** /**
 340:../03_Drivers/CMSIS/Include/cmsis_gcc.h ****   \brief   Set Process Stack Pointer
 341:../03_Drivers/CMSIS/Include/cmsis_gcc.h ****   \details Assigns the given value to the Process Stack Pointer (PSP).
 342:../03_Drivers/CMSIS/Include/cmsis_gcc.h ****   \param [in]    topOfProcStack  Process Stack Pointer value to set
 343:../03_Drivers/CMSIS/Include/cmsis_gcc.h ****  */
 344:../03_Drivers/CMSIS/Include/cmsis_gcc.h **** __STATIC_FORCEINLINE void __set_PSP(uint32_t topOfProcStack)
 345:../03_Drivers/CMSIS/Include/cmsis_gcc.h **** {
 346:../03_Drivers/CMSIS/Include/cmsis_gcc.h ****   __ASM volatile ("MSR psp, %0" : : "r" (topOfProcStack) : );
 347:../03_Drivers/CMSIS/Include/cmsis_gcc.h **** }
 348:../03_Drivers/CMSIS/Include/cmsis_gcc.h **** 
 349:../03_Drivers/CMSIS/Include/cmsis_gcc.h **** 
 350:../03_Drivers/CMSIS/Include/cmsis_gcc.h **** #if (defined (__ARM_FEATURE_CMSE ) && (__ARM_FEATURE_CMSE == 3))
 351:../03_Drivers/CMSIS/Include/cmsis_gcc.h **** /**
 352:../03_Drivers/CMSIS/Include/cmsis_gcc.h ****   \brief   Set Process Stack Pointer (non-secure)
 353:../03_Drivers/CMSIS/Include/cmsis_gcc.h ****   \details Assigns the given value to the non-secure Process Stack Pointer (PSP) when in secure sta
 354:../03_Drivers/CMSIS/Include/cmsis_gcc.h ****   \param [in]    topOfProcStack  Process Stack Pointer value to set
 355:../03_Drivers/CMSIS/Include/cmsis_gcc.h ****  */
 356:../03_Drivers/CMSIS/Include/cmsis_gcc.h **** __STATIC_FORCEINLINE void __TZ_set_PSP_NS(uint32_t topOfProcStack)
 357:../03_Drivers/CMSIS/Include/cmsis_gcc.h **** {
 358:../03_Drivers/CMSIS/Include/cmsis_gcc.h ****   __ASM volatile ("MSR psp_ns, %0" : : "r" (topOfProcStack) : );
 359:../03_Drivers/CMSIS/Include/cmsis_gcc.h **** }
 360:../03_Drivers/CMSIS/Include/cmsis_gcc.h **** #endif
 361:../03_Drivers/CMSIS/Include/cmsis_gcc.h **** 
 362:../03_Drivers/CMSIS/Include/cmsis_gcc.h **** 
 363:../03_Drivers/CMSIS/Include/cmsis_gcc.h **** /**
 364:../03_Drivers/CMSIS/Include/cmsis_gcc.h ****   \brief   Get Main Stack Pointer
 365:../03_Drivers/CMSIS/Include/cmsis_gcc.h ****   \details Returns the current value of the Main Stack Pointer (MSP).
 366:../03_Drivers/CMSIS/Include/cmsis_gcc.h ****   \return               MSP Register value
 367:../03_Drivers/CMSIS/Include/cmsis_gcc.h ****  */
 368:../03_Drivers/CMSIS/Include/cmsis_gcc.h **** __STATIC_FORCEINLINE uint32_t __get_MSP(void)
 369:../03_Drivers/CMSIS/Include/cmsis_gcc.h **** {
 370:../03_Drivers/CMSIS/Include/cmsis_gcc.h ****   uint32_t result;
 371:../03_Drivers/CMSIS/Include/cmsis_gcc.h **** 
 372:../03_Drivers/CMSIS/Include/cmsis_gcc.h ****   __ASM volatile ("MRS %0, msp" : "=r" (result) );
 373:../03_Drivers/CMSIS/Include/cmsis_gcc.h ****   return(result);
 374:../03_Drivers/CMSIS/Include/cmsis_gcc.h **** }
 375:../03_Drivers/CMSIS/Include/cmsis_gcc.h **** 
 376:../03_Drivers/CMSIS/Include/cmsis_gcc.h **** 
 377:../03_Drivers/CMSIS/Include/cmsis_gcc.h **** #if (defined (__ARM_FEATURE_CMSE ) && (__ARM_FEATURE_CMSE == 3))
 378:../03_Drivers/CMSIS/Include/cmsis_gcc.h **** /**
 379:../03_Drivers/CMSIS/Include/cmsis_gcc.h ****   \brief   Get Main Stack Pointer (non-secure)
 380:../03_Drivers/CMSIS/Include/cmsis_gcc.h ****   \details Returns the current value of the non-secure Main Stack Pointer (MSP) when in secure stat
 381:../03_Drivers/CMSIS/Include/cmsis_gcc.h ****   \return               MSP Register value
 382:../03_Drivers/CMSIS/Include/cmsis_gcc.h ****  */
 383:../03_Drivers/CMSIS/Include/cmsis_gcc.h **** __STATIC_FORCEINLINE uint32_t __TZ_get_MSP_NS(void)
 384:../03_Drivers/CMSIS/Include/cmsis_gcc.h **** {
 385:../03_Drivers/CMSIS/Include/cmsis_gcc.h ****   uint32_t result;
 386:../03_Drivers/CMSIS/Include/cmsis_gcc.h **** 
 387:../03_Drivers/CMSIS/Include/cmsis_gcc.h ****   __ASM volatile ("MRS %0, msp_ns" : "=r" (result) );
ARM GAS  C:\Users\minde\AppData\Local\Temp\cc31p2l9.s 			page 22


 388:../03_Drivers/CMSIS/Include/cmsis_gcc.h ****   return(result);
 389:../03_Drivers/CMSIS/Include/cmsis_gcc.h **** }
 390:../03_Drivers/CMSIS/Include/cmsis_gcc.h **** #endif
 391:../03_Drivers/CMSIS/Include/cmsis_gcc.h **** 
 392:../03_Drivers/CMSIS/Include/cmsis_gcc.h **** 
 393:../03_Drivers/CMSIS/Include/cmsis_gcc.h **** /**
 394:../03_Drivers/CMSIS/Include/cmsis_gcc.h ****   \brief   Set Main Stack Pointer
 395:../03_Drivers/CMSIS/Include/cmsis_gcc.h ****   \details Assigns the given value to the Main Stack Pointer (MSP).
 396:../03_Drivers/CMSIS/Include/cmsis_gcc.h ****   \param [in]    topOfMainStack  Main Stack Pointer value to set
 397:../03_Drivers/CMSIS/Include/cmsis_gcc.h ****  */
 398:../03_Drivers/CMSIS/Include/cmsis_gcc.h **** __STATIC_FORCEINLINE void __set_MSP(uint32_t topOfMainStack)
 399:../03_Drivers/CMSIS/Include/cmsis_gcc.h **** {
 400:../03_Drivers/CMSIS/Include/cmsis_gcc.h ****   __ASM volatile ("MSR msp, %0" : : "r" (topOfMainStack) : );
 401:../03_Drivers/CMSIS/Include/cmsis_gcc.h **** }
 402:../03_Drivers/CMSIS/Include/cmsis_gcc.h **** 
 403:../03_Drivers/CMSIS/Include/cmsis_gcc.h **** 
 404:../03_Drivers/CMSIS/Include/cmsis_gcc.h **** #if (defined (__ARM_FEATURE_CMSE ) && (__ARM_FEATURE_CMSE == 3))
 405:../03_Drivers/CMSIS/Include/cmsis_gcc.h **** /**
 406:../03_Drivers/CMSIS/Include/cmsis_gcc.h ****   \brief   Set Main Stack Pointer (non-secure)
 407:../03_Drivers/CMSIS/Include/cmsis_gcc.h ****   \details Assigns the given value to the non-secure Main Stack Pointer (MSP) when in secure state.
 408:../03_Drivers/CMSIS/Include/cmsis_gcc.h ****   \param [in]    topOfMainStack  Main Stack Pointer value to set
 409:../03_Drivers/CMSIS/Include/cmsis_gcc.h ****  */
 410:../03_Drivers/CMSIS/Include/cmsis_gcc.h **** __STATIC_FORCEINLINE void __TZ_set_MSP_NS(uint32_t topOfMainStack)
 411:../03_Drivers/CMSIS/Include/cmsis_gcc.h **** {
 412:../03_Drivers/CMSIS/Include/cmsis_gcc.h ****   __ASM volatile ("MSR msp_ns, %0" : : "r" (topOfMainStack) : );
 413:../03_Drivers/CMSIS/Include/cmsis_gcc.h **** }
 414:../03_Drivers/CMSIS/Include/cmsis_gcc.h **** #endif
 415:../03_Drivers/CMSIS/Include/cmsis_gcc.h **** 
 416:../03_Drivers/CMSIS/Include/cmsis_gcc.h **** 
 417:../03_Drivers/CMSIS/Include/cmsis_gcc.h **** #if (defined (__ARM_FEATURE_CMSE ) && (__ARM_FEATURE_CMSE == 3))
 418:../03_Drivers/CMSIS/Include/cmsis_gcc.h **** /**
 419:../03_Drivers/CMSIS/Include/cmsis_gcc.h ****   \brief   Get Stack Pointer (non-secure)
 420:../03_Drivers/CMSIS/Include/cmsis_gcc.h ****   \details Returns the current value of the non-secure Stack Pointer (SP) when in secure state.
 421:../03_Drivers/CMSIS/Include/cmsis_gcc.h ****   \return               SP Register value
 422:../03_Drivers/CMSIS/Include/cmsis_gcc.h ****  */
 423:../03_Drivers/CMSIS/Include/cmsis_gcc.h **** __STATIC_FORCEINLINE uint32_t __TZ_get_SP_NS(void)
 424:../03_Drivers/CMSIS/Include/cmsis_gcc.h **** {
 425:../03_Drivers/CMSIS/Include/cmsis_gcc.h ****   uint32_t result;
 426:../03_Drivers/CMSIS/Include/cmsis_gcc.h **** 
 427:../03_Drivers/CMSIS/Include/cmsis_gcc.h ****   __ASM volatile ("MRS %0, sp_ns" : "=r" (result) );
 428:../03_Drivers/CMSIS/Include/cmsis_gcc.h ****   return(result);
 429:../03_Drivers/CMSIS/Include/cmsis_gcc.h **** }
 430:../03_Drivers/CMSIS/Include/cmsis_gcc.h **** 
 431:../03_Drivers/CMSIS/Include/cmsis_gcc.h **** 
 432:../03_Drivers/CMSIS/Include/cmsis_gcc.h **** /**
 433:../03_Drivers/CMSIS/Include/cmsis_gcc.h ****   \brief   Set Stack Pointer (non-secure)
 434:../03_Drivers/CMSIS/Include/cmsis_gcc.h ****   \details Assigns the given value to the non-secure Stack Pointer (SP) when in secure state.
 435:../03_Drivers/CMSIS/Include/cmsis_gcc.h ****   \param [in]    topOfStack  Stack Pointer value to set
 436:../03_Drivers/CMSIS/Include/cmsis_gcc.h ****  */
 437:../03_Drivers/CMSIS/Include/cmsis_gcc.h **** __STATIC_FORCEINLINE void __TZ_set_SP_NS(uint32_t topOfStack)
 438:../03_Drivers/CMSIS/Include/cmsis_gcc.h **** {
 439:../03_Drivers/CMSIS/Include/cmsis_gcc.h ****   __ASM volatile ("MSR sp_ns, %0" : : "r" (topOfStack) : );
 440:../03_Drivers/CMSIS/Include/cmsis_gcc.h **** }
 441:../03_Drivers/CMSIS/Include/cmsis_gcc.h **** #endif
 442:../03_Drivers/CMSIS/Include/cmsis_gcc.h **** 
 443:../03_Drivers/CMSIS/Include/cmsis_gcc.h **** 
 444:../03_Drivers/CMSIS/Include/cmsis_gcc.h **** /**
ARM GAS  C:\Users\minde\AppData\Local\Temp\cc31p2l9.s 			page 23


 445:../03_Drivers/CMSIS/Include/cmsis_gcc.h ****   \brief   Get Priority Mask
 446:../03_Drivers/CMSIS/Include/cmsis_gcc.h ****   \details Returns the current state of the priority mask bit from the Priority Mask Register.
 447:../03_Drivers/CMSIS/Include/cmsis_gcc.h ****   \return               Priority Mask value
 448:../03_Drivers/CMSIS/Include/cmsis_gcc.h ****  */
 449:../03_Drivers/CMSIS/Include/cmsis_gcc.h **** __STATIC_FORCEINLINE uint32_t __get_PRIMASK(void)
 450:../03_Drivers/CMSIS/Include/cmsis_gcc.h **** {
 451:../03_Drivers/CMSIS/Include/cmsis_gcc.h ****   uint32_t result;
 452:../03_Drivers/CMSIS/Include/cmsis_gcc.h **** 
 453:../03_Drivers/CMSIS/Include/cmsis_gcc.h ****   __ASM volatile ("MRS %0, primask" : "=r" (result) :: "memory");
 454:../03_Drivers/CMSIS/Include/cmsis_gcc.h ****   return(result);
 455:../03_Drivers/CMSIS/Include/cmsis_gcc.h **** }
 456:../03_Drivers/CMSIS/Include/cmsis_gcc.h **** 
 457:../03_Drivers/CMSIS/Include/cmsis_gcc.h **** 
 458:../03_Drivers/CMSIS/Include/cmsis_gcc.h **** #if (defined (__ARM_FEATURE_CMSE ) && (__ARM_FEATURE_CMSE == 3))
 459:../03_Drivers/CMSIS/Include/cmsis_gcc.h **** /**
 460:../03_Drivers/CMSIS/Include/cmsis_gcc.h ****   \brief   Get Priority Mask (non-secure)
 461:../03_Drivers/CMSIS/Include/cmsis_gcc.h ****   \details Returns the current state of the non-secure priority mask bit from the Priority Mask Reg
 462:../03_Drivers/CMSIS/Include/cmsis_gcc.h ****   \return               Priority Mask value
 463:../03_Drivers/CMSIS/Include/cmsis_gcc.h ****  */
 464:../03_Drivers/CMSIS/Include/cmsis_gcc.h **** __STATIC_FORCEINLINE uint32_t __TZ_get_PRIMASK_NS(void)
 465:../03_Drivers/CMSIS/Include/cmsis_gcc.h **** {
 466:../03_Drivers/CMSIS/Include/cmsis_gcc.h ****   uint32_t result;
 467:../03_Drivers/CMSIS/Include/cmsis_gcc.h **** 
 468:../03_Drivers/CMSIS/Include/cmsis_gcc.h ****   __ASM volatile ("MRS %0, primask_ns" : "=r" (result) :: "memory");
 469:../03_Drivers/CMSIS/Include/cmsis_gcc.h ****   return(result);
 470:../03_Drivers/CMSIS/Include/cmsis_gcc.h **** }
 471:../03_Drivers/CMSIS/Include/cmsis_gcc.h **** #endif
 472:../03_Drivers/CMSIS/Include/cmsis_gcc.h **** 
 473:../03_Drivers/CMSIS/Include/cmsis_gcc.h **** 
 474:../03_Drivers/CMSIS/Include/cmsis_gcc.h **** /**
 475:../03_Drivers/CMSIS/Include/cmsis_gcc.h ****   \brief   Set Priority Mask
 476:../03_Drivers/CMSIS/Include/cmsis_gcc.h ****   \details Assigns the given value to the Priority Mask Register.
 477:../03_Drivers/CMSIS/Include/cmsis_gcc.h ****   \param [in]    priMask  Priority Mask
 478:../03_Drivers/CMSIS/Include/cmsis_gcc.h ****  */
 479:../03_Drivers/CMSIS/Include/cmsis_gcc.h **** __STATIC_FORCEINLINE void __set_PRIMASK(uint32_t priMask)
 480:../03_Drivers/CMSIS/Include/cmsis_gcc.h **** {
 481:../03_Drivers/CMSIS/Include/cmsis_gcc.h ****   __ASM volatile ("MSR primask, %0" : : "r" (priMask) : "memory");
 482:../03_Drivers/CMSIS/Include/cmsis_gcc.h **** }
 483:../03_Drivers/CMSIS/Include/cmsis_gcc.h **** 
 484:../03_Drivers/CMSIS/Include/cmsis_gcc.h **** 
 485:../03_Drivers/CMSIS/Include/cmsis_gcc.h **** #if (defined (__ARM_FEATURE_CMSE ) && (__ARM_FEATURE_CMSE == 3))
 486:../03_Drivers/CMSIS/Include/cmsis_gcc.h **** /**
 487:../03_Drivers/CMSIS/Include/cmsis_gcc.h ****   \brief   Set Priority Mask (non-secure)
 488:../03_Drivers/CMSIS/Include/cmsis_gcc.h ****   \details Assigns the given value to the non-secure Priority Mask Register when in secure state.
 489:../03_Drivers/CMSIS/Include/cmsis_gcc.h ****   \param [in]    priMask  Priority Mask
 490:../03_Drivers/CMSIS/Include/cmsis_gcc.h ****  */
 491:../03_Drivers/CMSIS/Include/cmsis_gcc.h **** __STATIC_FORCEINLINE void __TZ_set_PRIMASK_NS(uint32_t priMask)
 492:../03_Drivers/CMSIS/Include/cmsis_gcc.h **** {
 493:../03_Drivers/CMSIS/Include/cmsis_gcc.h ****   __ASM volatile ("MSR primask_ns, %0" : : "r" (priMask) : "memory");
 494:../03_Drivers/CMSIS/Include/cmsis_gcc.h **** }
 495:../03_Drivers/CMSIS/Include/cmsis_gcc.h **** #endif
 496:../03_Drivers/CMSIS/Include/cmsis_gcc.h **** 
 497:../03_Drivers/CMSIS/Include/cmsis_gcc.h **** 
 498:../03_Drivers/CMSIS/Include/cmsis_gcc.h **** #if ((defined (__ARM_ARCH_7M__      ) && (__ARM_ARCH_7M__      == 1)) || \
 499:../03_Drivers/CMSIS/Include/cmsis_gcc.h ****      (defined (__ARM_ARCH_7EM__     ) && (__ARM_ARCH_7EM__     == 1)) || \
 500:../03_Drivers/CMSIS/Include/cmsis_gcc.h ****      (defined (__ARM_ARCH_8M_MAIN__ ) && (__ARM_ARCH_8M_MAIN__ == 1))    )
 501:../03_Drivers/CMSIS/Include/cmsis_gcc.h **** /**
ARM GAS  C:\Users\minde\AppData\Local\Temp\cc31p2l9.s 			page 24


 502:../03_Drivers/CMSIS/Include/cmsis_gcc.h ****   \brief   Enable FIQ
 503:../03_Drivers/CMSIS/Include/cmsis_gcc.h ****   \details Enables FIQ interrupts by clearing the F-bit in the CPSR.
 504:../03_Drivers/CMSIS/Include/cmsis_gcc.h ****            Can only be executed in Privileged modes.
 505:../03_Drivers/CMSIS/Include/cmsis_gcc.h ****  */
 506:../03_Drivers/CMSIS/Include/cmsis_gcc.h **** __STATIC_FORCEINLINE void __enable_fault_irq(void)
 507:../03_Drivers/CMSIS/Include/cmsis_gcc.h **** {
 508:../03_Drivers/CMSIS/Include/cmsis_gcc.h ****   __ASM volatile ("cpsie f" : : : "memory");
 509:../03_Drivers/CMSIS/Include/cmsis_gcc.h **** }
 510:../03_Drivers/CMSIS/Include/cmsis_gcc.h **** 
 511:../03_Drivers/CMSIS/Include/cmsis_gcc.h **** 
 512:../03_Drivers/CMSIS/Include/cmsis_gcc.h **** /**
 513:../03_Drivers/CMSIS/Include/cmsis_gcc.h ****   \brief   Disable FIQ
 514:../03_Drivers/CMSIS/Include/cmsis_gcc.h ****   \details Disables FIQ interrupts by setting the F-bit in the CPSR.
 515:../03_Drivers/CMSIS/Include/cmsis_gcc.h ****            Can only be executed in Privileged modes.
 516:../03_Drivers/CMSIS/Include/cmsis_gcc.h ****  */
 517:../03_Drivers/CMSIS/Include/cmsis_gcc.h **** __STATIC_FORCEINLINE void __disable_fault_irq(void)
 518:../03_Drivers/CMSIS/Include/cmsis_gcc.h **** {
 519:../03_Drivers/CMSIS/Include/cmsis_gcc.h ****   __ASM volatile ("cpsid f" : : : "memory");
 520:../03_Drivers/CMSIS/Include/cmsis_gcc.h **** }
 521:../03_Drivers/CMSIS/Include/cmsis_gcc.h **** 
 522:../03_Drivers/CMSIS/Include/cmsis_gcc.h **** 
 523:../03_Drivers/CMSIS/Include/cmsis_gcc.h **** /**
 524:../03_Drivers/CMSIS/Include/cmsis_gcc.h ****   \brief   Get Base Priority
 525:../03_Drivers/CMSIS/Include/cmsis_gcc.h ****   \details Returns the current value of the Base Priority register.
 526:../03_Drivers/CMSIS/Include/cmsis_gcc.h ****   \return               Base Priority register value
 527:../03_Drivers/CMSIS/Include/cmsis_gcc.h ****  */
 528:../03_Drivers/CMSIS/Include/cmsis_gcc.h **** __STATIC_FORCEINLINE uint32_t __get_BASEPRI(void)
 529:../03_Drivers/CMSIS/Include/cmsis_gcc.h **** {
 530:../03_Drivers/CMSIS/Include/cmsis_gcc.h ****   uint32_t result;
 531:../03_Drivers/CMSIS/Include/cmsis_gcc.h **** 
 532:../03_Drivers/CMSIS/Include/cmsis_gcc.h ****   __ASM volatile ("MRS %0, basepri" : "=r" (result) );
 533:../03_Drivers/CMSIS/Include/cmsis_gcc.h ****   return(result);
 534:../03_Drivers/CMSIS/Include/cmsis_gcc.h **** }
 535:../03_Drivers/CMSIS/Include/cmsis_gcc.h **** 
 536:../03_Drivers/CMSIS/Include/cmsis_gcc.h **** 
 537:../03_Drivers/CMSIS/Include/cmsis_gcc.h **** #if (defined (__ARM_FEATURE_CMSE ) && (__ARM_FEATURE_CMSE == 3))
 538:../03_Drivers/CMSIS/Include/cmsis_gcc.h **** /**
 539:../03_Drivers/CMSIS/Include/cmsis_gcc.h ****   \brief   Get Base Priority (non-secure)
 540:../03_Drivers/CMSIS/Include/cmsis_gcc.h ****   \details Returns the current value of the non-secure Base Priority register when in secure state.
 541:../03_Drivers/CMSIS/Include/cmsis_gcc.h ****   \return               Base Priority register value
 542:../03_Drivers/CMSIS/Include/cmsis_gcc.h ****  */
 543:../03_Drivers/CMSIS/Include/cmsis_gcc.h **** __STATIC_FORCEINLINE uint32_t __TZ_get_BASEPRI_NS(void)
 544:../03_Drivers/CMSIS/Include/cmsis_gcc.h **** {
 545:../03_Drivers/CMSIS/Include/cmsis_gcc.h ****   uint32_t result;
 546:../03_Drivers/CMSIS/Include/cmsis_gcc.h **** 
 547:../03_Drivers/CMSIS/Include/cmsis_gcc.h ****   __ASM volatile ("MRS %0, basepri_ns" : "=r" (result) );
 548:../03_Drivers/CMSIS/Include/cmsis_gcc.h ****   return(result);
 549:../03_Drivers/CMSIS/Include/cmsis_gcc.h **** }
 550:../03_Drivers/CMSIS/Include/cmsis_gcc.h **** #endif
 551:../03_Drivers/CMSIS/Include/cmsis_gcc.h **** 
 552:../03_Drivers/CMSIS/Include/cmsis_gcc.h **** 
 553:../03_Drivers/CMSIS/Include/cmsis_gcc.h **** /**
 554:../03_Drivers/CMSIS/Include/cmsis_gcc.h ****   \brief   Set Base Priority
 555:../03_Drivers/CMSIS/Include/cmsis_gcc.h ****   \details Assigns the given value to the Base Priority register.
 556:../03_Drivers/CMSIS/Include/cmsis_gcc.h ****   \param [in]    basePri  Base Priority value to set
 557:../03_Drivers/CMSIS/Include/cmsis_gcc.h ****  */
 558:../03_Drivers/CMSIS/Include/cmsis_gcc.h **** __STATIC_FORCEINLINE void __set_BASEPRI(uint32_t basePri)
ARM GAS  C:\Users\minde\AppData\Local\Temp\cc31p2l9.s 			page 25


 559:../03_Drivers/CMSIS/Include/cmsis_gcc.h **** {
 560:../03_Drivers/CMSIS/Include/cmsis_gcc.h ****   __ASM volatile ("MSR basepri, %0" : : "r" (basePri) : "memory");
 561:../03_Drivers/CMSIS/Include/cmsis_gcc.h **** }
 562:../03_Drivers/CMSIS/Include/cmsis_gcc.h **** 
 563:../03_Drivers/CMSIS/Include/cmsis_gcc.h **** 
 564:../03_Drivers/CMSIS/Include/cmsis_gcc.h **** #if (defined (__ARM_FEATURE_CMSE ) && (__ARM_FEATURE_CMSE == 3))
 565:../03_Drivers/CMSIS/Include/cmsis_gcc.h **** /**
 566:../03_Drivers/CMSIS/Include/cmsis_gcc.h ****   \brief   Set Base Priority (non-secure)
 567:../03_Drivers/CMSIS/Include/cmsis_gcc.h ****   \details Assigns the given value to the non-secure Base Priority register when in secure state.
 568:../03_Drivers/CMSIS/Include/cmsis_gcc.h ****   \param [in]    basePri  Base Priority value to set
 569:../03_Drivers/CMSIS/Include/cmsis_gcc.h ****  */
 570:../03_Drivers/CMSIS/Include/cmsis_gcc.h **** __STATIC_FORCEINLINE void __TZ_set_BASEPRI_NS(uint32_t basePri)
 571:../03_Drivers/CMSIS/Include/cmsis_gcc.h **** {
 572:../03_Drivers/CMSIS/Include/cmsis_gcc.h ****   __ASM volatile ("MSR basepri_ns, %0" : : "r" (basePri) : "memory");
 573:../03_Drivers/CMSIS/Include/cmsis_gcc.h **** }
 574:../03_Drivers/CMSIS/Include/cmsis_gcc.h **** #endif
 575:../03_Drivers/CMSIS/Include/cmsis_gcc.h **** 
 576:../03_Drivers/CMSIS/Include/cmsis_gcc.h **** 
 577:../03_Drivers/CMSIS/Include/cmsis_gcc.h **** /**
 578:../03_Drivers/CMSIS/Include/cmsis_gcc.h ****   \brief   Set Base Priority with condition
 579:../03_Drivers/CMSIS/Include/cmsis_gcc.h ****   \details Assigns the given value to the Base Priority register only if BASEPRI masking is disable
 580:../03_Drivers/CMSIS/Include/cmsis_gcc.h ****            or the new value increases the BASEPRI priority level.
 581:../03_Drivers/CMSIS/Include/cmsis_gcc.h ****   \param [in]    basePri  Base Priority value to set
 582:../03_Drivers/CMSIS/Include/cmsis_gcc.h ****  */
 583:../03_Drivers/CMSIS/Include/cmsis_gcc.h **** __STATIC_FORCEINLINE void __set_BASEPRI_MAX(uint32_t basePri)
 584:../03_Drivers/CMSIS/Include/cmsis_gcc.h **** {
 585:../03_Drivers/CMSIS/Include/cmsis_gcc.h ****   __ASM volatile ("MSR basepri_max, %0" : : "r" (basePri) : "memory");
 586:../03_Drivers/CMSIS/Include/cmsis_gcc.h **** }
 587:../03_Drivers/CMSIS/Include/cmsis_gcc.h **** 
 588:../03_Drivers/CMSIS/Include/cmsis_gcc.h **** 
 589:../03_Drivers/CMSIS/Include/cmsis_gcc.h **** /**
 590:../03_Drivers/CMSIS/Include/cmsis_gcc.h ****   \brief   Get Fault Mask
 591:../03_Drivers/CMSIS/Include/cmsis_gcc.h ****   \details Returns the current value of the Fault Mask register.
 592:../03_Drivers/CMSIS/Include/cmsis_gcc.h ****   \return               Fault Mask register value
 593:../03_Drivers/CMSIS/Include/cmsis_gcc.h ****  */
 594:../03_Drivers/CMSIS/Include/cmsis_gcc.h **** __STATIC_FORCEINLINE uint32_t __get_FAULTMASK(void)
 595:../03_Drivers/CMSIS/Include/cmsis_gcc.h **** {
 596:../03_Drivers/CMSIS/Include/cmsis_gcc.h ****   uint32_t result;
 597:../03_Drivers/CMSIS/Include/cmsis_gcc.h **** 
 598:../03_Drivers/CMSIS/Include/cmsis_gcc.h ****   __ASM volatile ("MRS %0, faultmask" : "=r" (result) );
 599:../03_Drivers/CMSIS/Include/cmsis_gcc.h ****   return(result);
 600:../03_Drivers/CMSIS/Include/cmsis_gcc.h **** }
 601:../03_Drivers/CMSIS/Include/cmsis_gcc.h **** 
 602:../03_Drivers/CMSIS/Include/cmsis_gcc.h **** 
 603:../03_Drivers/CMSIS/Include/cmsis_gcc.h **** #if (defined (__ARM_FEATURE_CMSE ) && (__ARM_FEATURE_CMSE == 3))
 604:../03_Drivers/CMSIS/Include/cmsis_gcc.h **** /**
 605:../03_Drivers/CMSIS/Include/cmsis_gcc.h ****   \brief   Get Fault Mask (non-secure)
 606:../03_Drivers/CMSIS/Include/cmsis_gcc.h ****   \details Returns the current value of the non-secure Fault Mask register when in secure state.
 607:../03_Drivers/CMSIS/Include/cmsis_gcc.h ****   \return               Fault Mask register value
 608:../03_Drivers/CMSIS/Include/cmsis_gcc.h ****  */
 609:../03_Drivers/CMSIS/Include/cmsis_gcc.h **** __STATIC_FORCEINLINE uint32_t __TZ_get_FAULTMASK_NS(void)
 610:../03_Drivers/CMSIS/Include/cmsis_gcc.h **** {
 611:../03_Drivers/CMSIS/Include/cmsis_gcc.h ****   uint32_t result;
 612:../03_Drivers/CMSIS/Include/cmsis_gcc.h **** 
 613:../03_Drivers/CMSIS/Include/cmsis_gcc.h ****   __ASM volatile ("MRS %0, faultmask_ns" : "=r" (result) );
 614:../03_Drivers/CMSIS/Include/cmsis_gcc.h ****   return(result);
 615:../03_Drivers/CMSIS/Include/cmsis_gcc.h **** }
ARM GAS  C:\Users\minde\AppData\Local\Temp\cc31p2l9.s 			page 26


 616:../03_Drivers/CMSIS/Include/cmsis_gcc.h **** #endif
 617:../03_Drivers/CMSIS/Include/cmsis_gcc.h **** 
 618:../03_Drivers/CMSIS/Include/cmsis_gcc.h **** 
 619:../03_Drivers/CMSIS/Include/cmsis_gcc.h **** /**
 620:../03_Drivers/CMSIS/Include/cmsis_gcc.h ****   \brief   Set Fault Mask
 621:../03_Drivers/CMSIS/Include/cmsis_gcc.h ****   \details Assigns the given value to the Fault Mask register.
 622:../03_Drivers/CMSIS/Include/cmsis_gcc.h ****   \param [in]    faultMask  Fault Mask value to set
 623:../03_Drivers/CMSIS/Include/cmsis_gcc.h ****  */
 624:../03_Drivers/CMSIS/Include/cmsis_gcc.h **** __STATIC_FORCEINLINE void __set_FAULTMASK(uint32_t faultMask)
 625:../03_Drivers/CMSIS/Include/cmsis_gcc.h **** {
 626:../03_Drivers/CMSIS/Include/cmsis_gcc.h ****   __ASM volatile ("MSR faultmask, %0" : : "r" (faultMask) : "memory");
 627:../03_Drivers/CMSIS/Include/cmsis_gcc.h **** }
 628:../03_Drivers/CMSIS/Include/cmsis_gcc.h **** 
 629:../03_Drivers/CMSIS/Include/cmsis_gcc.h **** 
 630:../03_Drivers/CMSIS/Include/cmsis_gcc.h **** #if (defined (__ARM_FEATURE_CMSE ) && (__ARM_FEATURE_CMSE == 3))
 631:../03_Drivers/CMSIS/Include/cmsis_gcc.h **** /**
 632:../03_Drivers/CMSIS/Include/cmsis_gcc.h ****   \brief   Set Fault Mask (non-secure)
 633:../03_Drivers/CMSIS/Include/cmsis_gcc.h ****   \details Assigns the given value to the non-secure Fault Mask register when in secure state.
 634:../03_Drivers/CMSIS/Include/cmsis_gcc.h ****   \param [in]    faultMask  Fault Mask value to set
 635:../03_Drivers/CMSIS/Include/cmsis_gcc.h ****  */
 636:../03_Drivers/CMSIS/Include/cmsis_gcc.h **** __STATIC_FORCEINLINE void __TZ_set_FAULTMASK_NS(uint32_t faultMask)
 637:../03_Drivers/CMSIS/Include/cmsis_gcc.h **** {
 638:../03_Drivers/CMSIS/Include/cmsis_gcc.h ****   __ASM volatile ("MSR faultmask_ns, %0" : : "r" (faultMask) : "memory");
 639:../03_Drivers/CMSIS/Include/cmsis_gcc.h **** }
 640:../03_Drivers/CMSIS/Include/cmsis_gcc.h **** #endif
 641:../03_Drivers/CMSIS/Include/cmsis_gcc.h **** 
 642:../03_Drivers/CMSIS/Include/cmsis_gcc.h **** #endif /* ((defined (__ARM_ARCH_7M__      ) && (__ARM_ARCH_7M__      == 1)) || \
 643:../03_Drivers/CMSIS/Include/cmsis_gcc.h ****            (defined (__ARM_ARCH_7EM__     ) && (__ARM_ARCH_7EM__     == 1)) || \
 644:../03_Drivers/CMSIS/Include/cmsis_gcc.h ****            (defined (__ARM_ARCH_8M_MAIN__ ) && (__ARM_ARCH_8M_MAIN__ == 1))    ) */
 645:../03_Drivers/CMSIS/Include/cmsis_gcc.h **** 
 646:../03_Drivers/CMSIS/Include/cmsis_gcc.h **** 
 647:../03_Drivers/CMSIS/Include/cmsis_gcc.h **** #if ((defined (__ARM_ARCH_8M_MAIN__ ) && (__ARM_ARCH_8M_MAIN__ == 1)) || \
 648:../03_Drivers/CMSIS/Include/cmsis_gcc.h ****      (defined (__ARM_ARCH_8M_BASE__ ) && (__ARM_ARCH_8M_BASE__ == 1))    )
 649:../03_Drivers/CMSIS/Include/cmsis_gcc.h **** 
 650:../03_Drivers/CMSIS/Include/cmsis_gcc.h **** /**
 651:../03_Drivers/CMSIS/Include/cmsis_gcc.h ****   \brief   Get Process Stack Pointer Limit
 652:../03_Drivers/CMSIS/Include/cmsis_gcc.h ****   Devices without ARMv8-M Main Extensions (i.e. Cortex-M23) lack the non-secure
 653:../03_Drivers/CMSIS/Include/cmsis_gcc.h ****   Stack Pointer Limit register hence zero is returned always in non-secure
 654:../03_Drivers/CMSIS/Include/cmsis_gcc.h ****   mode.
 655:../03_Drivers/CMSIS/Include/cmsis_gcc.h ****   
 656:../03_Drivers/CMSIS/Include/cmsis_gcc.h ****   \details Returns the current value of the Process Stack Pointer Limit (PSPLIM).
 657:../03_Drivers/CMSIS/Include/cmsis_gcc.h ****   \return               PSPLIM Register value
 658:../03_Drivers/CMSIS/Include/cmsis_gcc.h ****  */
 659:../03_Drivers/CMSIS/Include/cmsis_gcc.h **** __STATIC_FORCEINLINE uint32_t __get_PSPLIM(void)
 660:../03_Drivers/CMSIS/Include/cmsis_gcc.h **** {
 661:../03_Drivers/CMSIS/Include/cmsis_gcc.h **** #if (!(defined (__ARM_ARCH_8M_MAIN__ ) && (__ARM_ARCH_8M_MAIN__ == 1)) && \
 662:../03_Drivers/CMSIS/Include/cmsis_gcc.h ****     (!defined (__ARM_FEATURE_CMSE) || (__ARM_FEATURE_CMSE < 3)))
 663:../03_Drivers/CMSIS/Include/cmsis_gcc.h ****     // without main extensions, the non-secure PSPLIM is RAZ/WI
 664:../03_Drivers/CMSIS/Include/cmsis_gcc.h ****   return 0U;
 665:../03_Drivers/CMSIS/Include/cmsis_gcc.h **** #else
 666:../03_Drivers/CMSIS/Include/cmsis_gcc.h ****   uint32_t result;
 667:../03_Drivers/CMSIS/Include/cmsis_gcc.h ****   __ASM volatile ("MRS %0, psplim"  : "=r" (result) );
 668:../03_Drivers/CMSIS/Include/cmsis_gcc.h ****   return result;
 669:../03_Drivers/CMSIS/Include/cmsis_gcc.h **** #endif
 670:../03_Drivers/CMSIS/Include/cmsis_gcc.h **** }
 671:../03_Drivers/CMSIS/Include/cmsis_gcc.h **** 
 672:../03_Drivers/CMSIS/Include/cmsis_gcc.h **** #if (defined (__ARM_FEATURE_CMSE) && (__ARM_FEATURE_CMSE == 3))
ARM GAS  C:\Users\minde\AppData\Local\Temp\cc31p2l9.s 			page 27


 673:../03_Drivers/CMSIS/Include/cmsis_gcc.h **** /**
 674:../03_Drivers/CMSIS/Include/cmsis_gcc.h ****   \brief   Get Process Stack Pointer Limit (non-secure)
 675:../03_Drivers/CMSIS/Include/cmsis_gcc.h ****   Devices without ARMv8-M Main Extensions (i.e. Cortex-M23) lack the non-secure
 676:../03_Drivers/CMSIS/Include/cmsis_gcc.h ****   Stack Pointer Limit register hence zero is returned always.
 677:../03_Drivers/CMSIS/Include/cmsis_gcc.h **** 
 678:../03_Drivers/CMSIS/Include/cmsis_gcc.h ****   \details Returns the current value of the non-secure Process Stack Pointer Limit (PSPLIM) when in
 679:../03_Drivers/CMSIS/Include/cmsis_gcc.h ****   \return               PSPLIM Register value
 680:../03_Drivers/CMSIS/Include/cmsis_gcc.h ****  */
 681:../03_Drivers/CMSIS/Include/cmsis_gcc.h **** __STATIC_FORCEINLINE uint32_t __TZ_get_PSPLIM_NS(void)
 682:../03_Drivers/CMSIS/Include/cmsis_gcc.h **** {
 683:../03_Drivers/CMSIS/Include/cmsis_gcc.h **** #if (!(defined (__ARM_ARCH_8M_MAIN__ ) && (__ARM_ARCH_8M_MAIN__ == 1)))
 684:../03_Drivers/CMSIS/Include/cmsis_gcc.h ****   // without main extensions, the non-secure PSPLIM is RAZ/WI
 685:../03_Drivers/CMSIS/Include/cmsis_gcc.h ****   return 0U;
 686:../03_Drivers/CMSIS/Include/cmsis_gcc.h **** #else
 687:../03_Drivers/CMSIS/Include/cmsis_gcc.h ****   uint32_t result;
 688:../03_Drivers/CMSIS/Include/cmsis_gcc.h ****   __ASM volatile ("MRS %0, psplim_ns"  : "=r" (result) );
 689:../03_Drivers/CMSIS/Include/cmsis_gcc.h ****   return result;
 690:../03_Drivers/CMSIS/Include/cmsis_gcc.h **** #endif
 691:../03_Drivers/CMSIS/Include/cmsis_gcc.h **** }
 692:../03_Drivers/CMSIS/Include/cmsis_gcc.h **** #endif
 693:../03_Drivers/CMSIS/Include/cmsis_gcc.h **** 
 694:../03_Drivers/CMSIS/Include/cmsis_gcc.h **** 
 695:../03_Drivers/CMSIS/Include/cmsis_gcc.h **** /**
 696:../03_Drivers/CMSIS/Include/cmsis_gcc.h ****   \brief   Set Process Stack Pointer Limit
 697:../03_Drivers/CMSIS/Include/cmsis_gcc.h ****   Devices without ARMv8-M Main Extensions (i.e. Cortex-M23) lack the non-secure
 698:../03_Drivers/CMSIS/Include/cmsis_gcc.h ****   Stack Pointer Limit register hence the write is silently ignored in non-secure
 699:../03_Drivers/CMSIS/Include/cmsis_gcc.h ****   mode.
 700:../03_Drivers/CMSIS/Include/cmsis_gcc.h ****   
 701:../03_Drivers/CMSIS/Include/cmsis_gcc.h ****   \details Assigns the given value to the Process Stack Pointer Limit (PSPLIM).
 702:../03_Drivers/CMSIS/Include/cmsis_gcc.h ****   \param [in]    ProcStackPtrLimit  Process Stack Pointer Limit value to set
 703:../03_Drivers/CMSIS/Include/cmsis_gcc.h ****  */
 704:../03_Drivers/CMSIS/Include/cmsis_gcc.h **** __STATIC_FORCEINLINE void __set_PSPLIM(uint32_t ProcStackPtrLimit)
 705:../03_Drivers/CMSIS/Include/cmsis_gcc.h **** {
 706:../03_Drivers/CMSIS/Include/cmsis_gcc.h **** #if (!(defined (__ARM_ARCH_8M_MAIN__ ) && (__ARM_ARCH_8M_MAIN__ == 1)) && \
 707:../03_Drivers/CMSIS/Include/cmsis_gcc.h ****     (!defined (__ARM_FEATURE_CMSE) || (__ARM_FEATURE_CMSE < 3)))
 708:../03_Drivers/CMSIS/Include/cmsis_gcc.h ****   // without main extensions, the non-secure PSPLIM is RAZ/WI
 709:../03_Drivers/CMSIS/Include/cmsis_gcc.h ****   (void)ProcStackPtrLimit;
 710:../03_Drivers/CMSIS/Include/cmsis_gcc.h **** #else
 711:../03_Drivers/CMSIS/Include/cmsis_gcc.h ****   __ASM volatile ("MSR psplim, %0" : : "r" (ProcStackPtrLimit));
 712:../03_Drivers/CMSIS/Include/cmsis_gcc.h **** #endif
 713:../03_Drivers/CMSIS/Include/cmsis_gcc.h **** }
 714:../03_Drivers/CMSIS/Include/cmsis_gcc.h **** 
 715:../03_Drivers/CMSIS/Include/cmsis_gcc.h **** 
 716:../03_Drivers/CMSIS/Include/cmsis_gcc.h **** #if (defined (__ARM_FEATURE_CMSE  ) && (__ARM_FEATURE_CMSE   == 3))
 717:../03_Drivers/CMSIS/Include/cmsis_gcc.h **** /**
 718:../03_Drivers/CMSIS/Include/cmsis_gcc.h ****   \brief   Set Process Stack Pointer (non-secure)
 719:../03_Drivers/CMSIS/Include/cmsis_gcc.h ****   Devices without ARMv8-M Main Extensions (i.e. Cortex-M23) lack the non-secure
 720:../03_Drivers/CMSIS/Include/cmsis_gcc.h ****   Stack Pointer Limit register hence the write is silently ignored.
 721:../03_Drivers/CMSIS/Include/cmsis_gcc.h **** 
 722:../03_Drivers/CMSIS/Include/cmsis_gcc.h ****   \details Assigns the given value to the non-secure Process Stack Pointer Limit (PSPLIM) when in s
 723:../03_Drivers/CMSIS/Include/cmsis_gcc.h ****   \param [in]    ProcStackPtrLimit  Process Stack Pointer Limit value to set
 724:../03_Drivers/CMSIS/Include/cmsis_gcc.h ****  */
 725:../03_Drivers/CMSIS/Include/cmsis_gcc.h **** __STATIC_FORCEINLINE void __TZ_set_PSPLIM_NS(uint32_t ProcStackPtrLimit)
 726:../03_Drivers/CMSIS/Include/cmsis_gcc.h **** {
 727:../03_Drivers/CMSIS/Include/cmsis_gcc.h **** #if (!(defined (__ARM_ARCH_8M_MAIN__ ) && (__ARM_ARCH_8M_MAIN__ == 1)))
 728:../03_Drivers/CMSIS/Include/cmsis_gcc.h ****   // without main extensions, the non-secure PSPLIM is RAZ/WI
 729:../03_Drivers/CMSIS/Include/cmsis_gcc.h ****   (void)ProcStackPtrLimit;
ARM GAS  C:\Users\minde\AppData\Local\Temp\cc31p2l9.s 			page 28


 730:../03_Drivers/CMSIS/Include/cmsis_gcc.h **** #else
 731:../03_Drivers/CMSIS/Include/cmsis_gcc.h ****   __ASM volatile ("MSR psplim_ns, %0\n" : : "r" (ProcStackPtrLimit));
 732:../03_Drivers/CMSIS/Include/cmsis_gcc.h **** #endif
 733:../03_Drivers/CMSIS/Include/cmsis_gcc.h **** }
 734:../03_Drivers/CMSIS/Include/cmsis_gcc.h **** #endif
 735:../03_Drivers/CMSIS/Include/cmsis_gcc.h **** 
 736:../03_Drivers/CMSIS/Include/cmsis_gcc.h **** 
 737:../03_Drivers/CMSIS/Include/cmsis_gcc.h **** /**
 738:../03_Drivers/CMSIS/Include/cmsis_gcc.h ****   \brief   Get Main Stack Pointer Limit
 739:../03_Drivers/CMSIS/Include/cmsis_gcc.h ****   Devices without ARMv8-M Main Extensions (i.e. Cortex-M23) lack the non-secure
 740:../03_Drivers/CMSIS/Include/cmsis_gcc.h ****   Stack Pointer Limit register hence zero is returned always in non-secure
 741:../03_Drivers/CMSIS/Include/cmsis_gcc.h ****   mode.
 742:../03_Drivers/CMSIS/Include/cmsis_gcc.h **** 
 743:../03_Drivers/CMSIS/Include/cmsis_gcc.h ****   \details Returns the current value of the Main Stack Pointer Limit (MSPLIM).
 744:../03_Drivers/CMSIS/Include/cmsis_gcc.h ****   \return               MSPLIM Register value
 745:../03_Drivers/CMSIS/Include/cmsis_gcc.h ****  */
 746:../03_Drivers/CMSIS/Include/cmsis_gcc.h **** __STATIC_FORCEINLINE uint32_t __get_MSPLIM(void)
 747:../03_Drivers/CMSIS/Include/cmsis_gcc.h **** {
 748:../03_Drivers/CMSIS/Include/cmsis_gcc.h **** #if (!(defined (__ARM_ARCH_8M_MAIN__ ) && (__ARM_ARCH_8M_MAIN__ == 1)) && \
 749:../03_Drivers/CMSIS/Include/cmsis_gcc.h ****     (!defined (__ARM_FEATURE_CMSE) || (__ARM_FEATURE_CMSE < 3)))
 750:../03_Drivers/CMSIS/Include/cmsis_gcc.h ****   // without main extensions, the non-secure MSPLIM is RAZ/WI
 751:../03_Drivers/CMSIS/Include/cmsis_gcc.h ****   return 0U;
 752:../03_Drivers/CMSIS/Include/cmsis_gcc.h **** #else
 753:../03_Drivers/CMSIS/Include/cmsis_gcc.h ****   uint32_t result;
 754:../03_Drivers/CMSIS/Include/cmsis_gcc.h ****   __ASM volatile ("MRS %0, msplim" : "=r" (result) );
 755:../03_Drivers/CMSIS/Include/cmsis_gcc.h ****   return result;
 756:../03_Drivers/CMSIS/Include/cmsis_gcc.h **** #endif
 757:../03_Drivers/CMSIS/Include/cmsis_gcc.h **** }
 758:../03_Drivers/CMSIS/Include/cmsis_gcc.h **** 
 759:../03_Drivers/CMSIS/Include/cmsis_gcc.h **** 
 760:../03_Drivers/CMSIS/Include/cmsis_gcc.h **** #if (defined (__ARM_FEATURE_CMSE  ) && (__ARM_FEATURE_CMSE   == 3))
 761:../03_Drivers/CMSIS/Include/cmsis_gcc.h **** /**
 762:../03_Drivers/CMSIS/Include/cmsis_gcc.h ****   \brief   Get Main Stack Pointer Limit (non-secure)
 763:../03_Drivers/CMSIS/Include/cmsis_gcc.h ****   Devices without ARMv8-M Main Extensions (i.e. Cortex-M23) lack the non-secure
 764:../03_Drivers/CMSIS/Include/cmsis_gcc.h ****   Stack Pointer Limit register hence zero is returned always.
 765:../03_Drivers/CMSIS/Include/cmsis_gcc.h **** 
 766:../03_Drivers/CMSIS/Include/cmsis_gcc.h ****   \details Returns the current value of the non-secure Main Stack Pointer Limit(MSPLIM) when in sec
 767:../03_Drivers/CMSIS/Include/cmsis_gcc.h ****   \return               MSPLIM Register value
 768:../03_Drivers/CMSIS/Include/cmsis_gcc.h ****  */
 769:../03_Drivers/CMSIS/Include/cmsis_gcc.h **** __STATIC_FORCEINLINE uint32_t __TZ_get_MSPLIM_NS(void)
 770:../03_Drivers/CMSIS/Include/cmsis_gcc.h **** {
 771:../03_Drivers/CMSIS/Include/cmsis_gcc.h **** #if (!(defined (__ARM_ARCH_8M_MAIN__ ) && (__ARM_ARCH_8M_MAIN__ == 1)))
 772:../03_Drivers/CMSIS/Include/cmsis_gcc.h ****   // without main extensions, the non-secure MSPLIM is RAZ/WI
 773:../03_Drivers/CMSIS/Include/cmsis_gcc.h ****   return 0U;
 774:../03_Drivers/CMSIS/Include/cmsis_gcc.h **** #else
 775:../03_Drivers/CMSIS/Include/cmsis_gcc.h ****   uint32_t result;
 776:../03_Drivers/CMSIS/Include/cmsis_gcc.h ****   __ASM volatile ("MRS %0, msplim_ns" : "=r" (result) );
 777:../03_Drivers/CMSIS/Include/cmsis_gcc.h ****   return result;
 778:../03_Drivers/CMSIS/Include/cmsis_gcc.h **** #endif
 779:../03_Drivers/CMSIS/Include/cmsis_gcc.h **** }
 780:../03_Drivers/CMSIS/Include/cmsis_gcc.h **** #endif
 781:../03_Drivers/CMSIS/Include/cmsis_gcc.h **** 
 782:../03_Drivers/CMSIS/Include/cmsis_gcc.h **** 
 783:../03_Drivers/CMSIS/Include/cmsis_gcc.h **** /**
 784:../03_Drivers/CMSIS/Include/cmsis_gcc.h ****   \brief   Set Main Stack Pointer Limit
 785:../03_Drivers/CMSIS/Include/cmsis_gcc.h ****   Devices without ARMv8-M Main Extensions (i.e. Cortex-M23) lack the non-secure
 786:../03_Drivers/CMSIS/Include/cmsis_gcc.h ****   Stack Pointer Limit register hence the write is silently ignored in non-secure
ARM GAS  C:\Users\minde\AppData\Local\Temp\cc31p2l9.s 			page 29


 787:../03_Drivers/CMSIS/Include/cmsis_gcc.h ****   mode.
 788:../03_Drivers/CMSIS/Include/cmsis_gcc.h **** 
 789:../03_Drivers/CMSIS/Include/cmsis_gcc.h ****   \details Assigns the given value to the Main Stack Pointer Limit (MSPLIM).
 790:../03_Drivers/CMSIS/Include/cmsis_gcc.h ****   \param [in]    MainStackPtrLimit  Main Stack Pointer Limit value to set
 791:../03_Drivers/CMSIS/Include/cmsis_gcc.h ****  */
 792:../03_Drivers/CMSIS/Include/cmsis_gcc.h **** __STATIC_FORCEINLINE void __set_MSPLIM(uint32_t MainStackPtrLimit)
 793:../03_Drivers/CMSIS/Include/cmsis_gcc.h **** {
 794:../03_Drivers/CMSIS/Include/cmsis_gcc.h **** #if (!(defined (__ARM_ARCH_8M_MAIN__ ) && (__ARM_ARCH_8M_MAIN__ == 1)) && \
 795:../03_Drivers/CMSIS/Include/cmsis_gcc.h ****     (!defined (__ARM_FEATURE_CMSE) || (__ARM_FEATURE_CMSE < 3)))
 796:../03_Drivers/CMSIS/Include/cmsis_gcc.h ****   // without main extensions, the non-secure MSPLIM is RAZ/WI
 797:../03_Drivers/CMSIS/Include/cmsis_gcc.h ****   (void)MainStackPtrLimit;
 798:../03_Drivers/CMSIS/Include/cmsis_gcc.h **** #else
 799:../03_Drivers/CMSIS/Include/cmsis_gcc.h ****   __ASM volatile ("MSR msplim, %0" : : "r" (MainStackPtrLimit));
 800:../03_Drivers/CMSIS/Include/cmsis_gcc.h **** #endif
 801:../03_Drivers/CMSIS/Include/cmsis_gcc.h **** }
 802:../03_Drivers/CMSIS/Include/cmsis_gcc.h **** 
 803:../03_Drivers/CMSIS/Include/cmsis_gcc.h **** 
 804:../03_Drivers/CMSIS/Include/cmsis_gcc.h **** #if (defined (__ARM_FEATURE_CMSE  ) && (__ARM_FEATURE_CMSE   == 3))
 805:../03_Drivers/CMSIS/Include/cmsis_gcc.h **** /**
 806:../03_Drivers/CMSIS/Include/cmsis_gcc.h ****   \brief   Set Main Stack Pointer Limit (non-secure)
 807:../03_Drivers/CMSIS/Include/cmsis_gcc.h ****   Devices without ARMv8-M Main Extensions (i.e. Cortex-M23) lack the non-secure
 808:../03_Drivers/CMSIS/Include/cmsis_gcc.h ****   Stack Pointer Limit register hence the write is silently ignored.
 809:../03_Drivers/CMSIS/Include/cmsis_gcc.h **** 
 810:../03_Drivers/CMSIS/Include/cmsis_gcc.h ****   \details Assigns the given value to the non-secure Main Stack Pointer Limit (MSPLIM) when in secu
 811:../03_Drivers/CMSIS/Include/cmsis_gcc.h ****   \param [in]    MainStackPtrLimit  Main Stack Pointer value to set
 812:../03_Drivers/CMSIS/Include/cmsis_gcc.h ****  */
 813:../03_Drivers/CMSIS/Include/cmsis_gcc.h **** __STATIC_FORCEINLINE void __TZ_set_MSPLIM_NS(uint32_t MainStackPtrLimit)
 814:../03_Drivers/CMSIS/Include/cmsis_gcc.h **** {
 815:../03_Drivers/CMSIS/Include/cmsis_gcc.h **** #if (!(defined (__ARM_ARCH_8M_MAIN__ ) && (__ARM_ARCH_8M_MAIN__ == 1)))
 816:../03_Drivers/CMSIS/Include/cmsis_gcc.h ****   // without main extensions, the non-secure MSPLIM is RAZ/WI
 817:../03_Drivers/CMSIS/Include/cmsis_gcc.h ****   (void)MainStackPtrLimit;
 818:../03_Drivers/CMSIS/Include/cmsis_gcc.h **** #else
 819:../03_Drivers/CMSIS/Include/cmsis_gcc.h ****   __ASM volatile ("MSR msplim_ns, %0" : : "r" (MainStackPtrLimit));
 820:../03_Drivers/CMSIS/Include/cmsis_gcc.h **** #endif
 821:../03_Drivers/CMSIS/Include/cmsis_gcc.h **** }
 822:../03_Drivers/CMSIS/Include/cmsis_gcc.h **** #endif
 823:../03_Drivers/CMSIS/Include/cmsis_gcc.h **** 
 824:../03_Drivers/CMSIS/Include/cmsis_gcc.h **** #endif /* ((defined (__ARM_ARCH_8M_MAIN__ ) && (__ARM_ARCH_8M_MAIN__ == 1)) || \
 825:../03_Drivers/CMSIS/Include/cmsis_gcc.h ****            (defined (__ARM_ARCH_8M_BASE__ ) && (__ARM_ARCH_8M_BASE__ == 1))    ) */
 826:../03_Drivers/CMSIS/Include/cmsis_gcc.h **** 
 827:../03_Drivers/CMSIS/Include/cmsis_gcc.h **** 
 828:../03_Drivers/CMSIS/Include/cmsis_gcc.h **** /**
 829:../03_Drivers/CMSIS/Include/cmsis_gcc.h ****   \brief   Get FPSCR
 830:../03_Drivers/CMSIS/Include/cmsis_gcc.h ****   \details Returns the current value of the Floating Point Status/Control register.
 831:../03_Drivers/CMSIS/Include/cmsis_gcc.h ****   \return               Floating Point Status/Control register value
 832:../03_Drivers/CMSIS/Include/cmsis_gcc.h ****  */
 833:../03_Drivers/CMSIS/Include/cmsis_gcc.h **** __STATIC_FORCEINLINE uint32_t __get_FPSCR(void)
 834:../03_Drivers/CMSIS/Include/cmsis_gcc.h **** {
 835:../03_Drivers/CMSIS/Include/cmsis_gcc.h **** #if ((defined (__FPU_PRESENT) && (__FPU_PRESENT == 1U)) && \
 836:../03_Drivers/CMSIS/Include/cmsis_gcc.h ****      (defined (__FPU_USED   ) && (__FPU_USED    == 1U))     )
 837:../03_Drivers/CMSIS/Include/cmsis_gcc.h **** #if __has_builtin(__builtin_arm_get_fpscr) 
 838:../03_Drivers/CMSIS/Include/cmsis_gcc.h **** // Re-enable using built-in when GCC has been fixed
 839:../03_Drivers/CMSIS/Include/cmsis_gcc.h **** // || (__GNUC__ > 7) || (__GNUC__ == 7 && __GNUC_MINOR__ >= 2)
 840:../03_Drivers/CMSIS/Include/cmsis_gcc.h ****   /* see https://gcc.gnu.org/ml/gcc-patches/2017-04/msg00443.html */
 841:../03_Drivers/CMSIS/Include/cmsis_gcc.h ****   return __builtin_arm_get_fpscr();
 842:../03_Drivers/CMSIS/Include/cmsis_gcc.h **** #else
 843:../03_Drivers/CMSIS/Include/cmsis_gcc.h ****   uint32_t result;
ARM GAS  C:\Users\minde\AppData\Local\Temp\cc31p2l9.s 			page 30


 844:../03_Drivers/CMSIS/Include/cmsis_gcc.h **** 
 845:../03_Drivers/CMSIS/Include/cmsis_gcc.h ****   __ASM volatile ("VMRS %0, fpscr" : "=r" (result) );
 846:../03_Drivers/CMSIS/Include/cmsis_gcc.h ****   return(result);
 847:../03_Drivers/CMSIS/Include/cmsis_gcc.h **** #endif
 848:../03_Drivers/CMSIS/Include/cmsis_gcc.h **** #else
 849:../03_Drivers/CMSIS/Include/cmsis_gcc.h ****   return(0U);
 850:../03_Drivers/CMSIS/Include/cmsis_gcc.h **** #endif
 851:../03_Drivers/CMSIS/Include/cmsis_gcc.h **** }
 852:../03_Drivers/CMSIS/Include/cmsis_gcc.h **** 
 853:../03_Drivers/CMSIS/Include/cmsis_gcc.h **** 
 854:../03_Drivers/CMSIS/Include/cmsis_gcc.h **** /**
 855:../03_Drivers/CMSIS/Include/cmsis_gcc.h ****   \brief   Set FPSCR
 856:../03_Drivers/CMSIS/Include/cmsis_gcc.h ****   \details Assigns the given value to the Floating Point Status/Control register.
 857:../03_Drivers/CMSIS/Include/cmsis_gcc.h ****   \param [in]    fpscr  Floating Point Status/Control value to set
 858:../03_Drivers/CMSIS/Include/cmsis_gcc.h ****  */
 859:../03_Drivers/CMSIS/Include/cmsis_gcc.h **** __STATIC_FORCEINLINE void __set_FPSCR(uint32_t fpscr)
 860:../03_Drivers/CMSIS/Include/cmsis_gcc.h **** {
 861:../03_Drivers/CMSIS/Include/cmsis_gcc.h **** #if ((defined (__FPU_PRESENT) && (__FPU_PRESENT == 1U)) && \
 862:../03_Drivers/CMSIS/Include/cmsis_gcc.h ****      (defined (__FPU_USED   ) && (__FPU_USED    == 1U))     )
 863:../03_Drivers/CMSIS/Include/cmsis_gcc.h **** #if __has_builtin(__builtin_arm_set_fpscr)
 864:../03_Drivers/CMSIS/Include/cmsis_gcc.h **** // Re-enable using built-in when GCC has been fixed
 865:../03_Drivers/CMSIS/Include/cmsis_gcc.h **** // || (__GNUC__ > 7) || (__GNUC__ == 7 && __GNUC_MINOR__ >= 2)
 866:../03_Drivers/CMSIS/Include/cmsis_gcc.h ****   /* see https://gcc.gnu.org/ml/gcc-patches/2017-04/msg00443.html */
 867:../03_Drivers/CMSIS/Include/cmsis_gcc.h ****   __builtin_arm_set_fpscr(fpscr);
 868:../03_Drivers/CMSIS/Include/cmsis_gcc.h **** #else
 869:../03_Drivers/CMSIS/Include/cmsis_gcc.h ****   __ASM volatile ("VMSR fpscr, %0" : : "r" (fpscr) : "vfpcc", "memory");
 870:../03_Drivers/CMSIS/Include/cmsis_gcc.h **** #endif
 871:../03_Drivers/CMSIS/Include/cmsis_gcc.h **** #else
 872:../03_Drivers/CMSIS/Include/cmsis_gcc.h ****   (void)fpscr;
 873:../03_Drivers/CMSIS/Include/cmsis_gcc.h **** #endif
 874:../03_Drivers/CMSIS/Include/cmsis_gcc.h **** }
 875:../03_Drivers/CMSIS/Include/cmsis_gcc.h **** 
 876:../03_Drivers/CMSIS/Include/cmsis_gcc.h **** 
 877:../03_Drivers/CMSIS/Include/cmsis_gcc.h **** /*@} end of CMSIS_Core_RegAccFunctions */
 878:../03_Drivers/CMSIS/Include/cmsis_gcc.h **** 
 879:../03_Drivers/CMSIS/Include/cmsis_gcc.h **** 
 880:../03_Drivers/CMSIS/Include/cmsis_gcc.h **** /* ##########################  Core Instruction Access  ######################### */
 881:../03_Drivers/CMSIS/Include/cmsis_gcc.h **** /** \defgroup CMSIS_Core_InstructionInterface CMSIS Core Instruction Interface
 882:../03_Drivers/CMSIS/Include/cmsis_gcc.h ****   Access to dedicated instructions
 883:../03_Drivers/CMSIS/Include/cmsis_gcc.h ****   @{
 884:../03_Drivers/CMSIS/Include/cmsis_gcc.h **** */
 885:../03_Drivers/CMSIS/Include/cmsis_gcc.h **** 
 886:../03_Drivers/CMSIS/Include/cmsis_gcc.h **** /* Define macros for porting to both thumb1 and thumb2.
 887:../03_Drivers/CMSIS/Include/cmsis_gcc.h ****  * For thumb1, use low register (r0-r7), specified by constraint "l"
 888:../03_Drivers/CMSIS/Include/cmsis_gcc.h ****  * Otherwise, use general registers, specified by constraint "r" */
 889:../03_Drivers/CMSIS/Include/cmsis_gcc.h **** #if defined (__thumb__) && !defined (__thumb2__)
 890:../03_Drivers/CMSIS/Include/cmsis_gcc.h **** #define __CMSIS_GCC_OUT_REG(r) "=l" (r)
 891:../03_Drivers/CMSIS/Include/cmsis_gcc.h **** #define __CMSIS_GCC_RW_REG(r) "+l" (r)
 892:../03_Drivers/CMSIS/Include/cmsis_gcc.h **** #define __CMSIS_GCC_USE_REG(r) "l" (r)
 893:../03_Drivers/CMSIS/Include/cmsis_gcc.h **** #else
 894:../03_Drivers/CMSIS/Include/cmsis_gcc.h **** #define __CMSIS_GCC_OUT_REG(r) "=r" (r)
 895:../03_Drivers/CMSIS/Include/cmsis_gcc.h **** #define __CMSIS_GCC_RW_REG(r) "+r" (r)
 896:../03_Drivers/CMSIS/Include/cmsis_gcc.h **** #define __CMSIS_GCC_USE_REG(r) "r" (r)
 897:../03_Drivers/CMSIS/Include/cmsis_gcc.h **** #endif
 898:../03_Drivers/CMSIS/Include/cmsis_gcc.h **** 
 899:../03_Drivers/CMSIS/Include/cmsis_gcc.h **** /**
 900:../03_Drivers/CMSIS/Include/cmsis_gcc.h ****   \brief   No Operation
ARM GAS  C:\Users\minde\AppData\Local\Temp\cc31p2l9.s 			page 31


 901:../03_Drivers/CMSIS/Include/cmsis_gcc.h ****   \details No Operation does nothing. This instruction can be used for code alignment purposes.
 902:../03_Drivers/CMSIS/Include/cmsis_gcc.h ****  */
 903:../03_Drivers/CMSIS/Include/cmsis_gcc.h **** #define __NOP()                             __ASM volatile ("nop")
 904:../03_Drivers/CMSIS/Include/cmsis_gcc.h **** 
 905:../03_Drivers/CMSIS/Include/cmsis_gcc.h **** /**
 906:../03_Drivers/CMSIS/Include/cmsis_gcc.h ****   \brief   Wait For Interrupt
 907:../03_Drivers/CMSIS/Include/cmsis_gcc.h ****   \details Wait For Interrupt is a hint instruction that suspends execution until one of a number o
 908:../03_Drivers/CMSIS/Include/cmsis_gcc.h ****  */
 909:../03_Drivers/CMSIS/Include/cmsis_gcc.h **** #define __WFI()                             __ASM volatile ("wfi")
 910:../03_Drivers/CMSIS/Include/cmsis_gcc.h **** 
 911:../03_Drivers/CMSIS/Include/cmsis_gcc.h **** 
 912:../03_Drivers/CMSIS/Include/cmsis_gcc.h **** /**
 913:../03_Drivers/CMSIS/Include/cmsis_gcc.h ****   \brief   Wait For Event
 914:../03_Drivers/CMSIS/Include/cmsis_gcc.h ****   \details Wait For Event is a hint instruction that permits the processor to enter
 915:../03_Drivers/CMSIS/Include/cmsis_gcc.h ****            a low-power state until one of a number of events occurs.
 916:../03_Drivers/CMSIS/Include/cmsis_gcc.h ****  */
 917:../03_Drivers/CMSIS/Include/cmsis_gcc.h **** #define __WFE()                             __ASM volatile ("wfe")
 918:../03_Drivers/CMSIS/Include/cmsis_gcc.h **** 
 919:../03_Drivers/CMSIS/Include/cmsis_gcc.h **** 
 920:../03_Drivers/CMSIS/Include/cmsis_gcc.h **** /**
 921:../03_Drivers/CMSIS/Include/cmsis_gcc.h ****   \brief   Send Event
 922:../03_Drivers/CMSIS/Include/cmsis_gcc.h ****   \details Send Event is a hint instruction. It causes an event to be signaled to the CPU.
 923:../03_Drivers/CMSIS/Include/cmsis_gcc.h ****  */
 924:../03_Drivers/CMSIS/Include/cmsis_gcc.h **** #define __SEV()                             __ASM volatile ("sev")
 925:../03_Drivers/CMSIS/Include/cmsis_gcc.h **** 
 926:../03_Drivers/CMSIS/Include/cmsis_gcc.h **** 
 927:../03_Drivers/CMSIS/Include/cmsis_gcc.h **** /**
 928:../03_Drivers/CMSIS/Include/cmsis_gcc.h ****   \brief   Instruction Synchronization Barrier
 929:../03_Drivers/CMSIS/Include/cmsis_gcc.h ****   \details Instruction Synchronization Barrier flushes the pipeline in the processor,
 930:../03_Drivers/CMSIS/Include/cmsis_gcc.h ****            so that all instructions following the ISB are fetched from cache or memory,
 931:../03_Drivers/CMSIS/Include/cmsis_gcc.h ****            after the instruction has been completed.
 932:../03_Drivers/CMSIS/Include/cmsis_gcc.h ****  */
 933:../03_Drivers/CMSIS/Include/cmsis_gcc.h **** __STATIC_FORCEINLINE void __ISB(void)
  95              		.loc 2 933 27 view .LVU14
  96              	.LBB11:
 934:../03_Drivers/CMSIS/Include/cmsis_gcc.h **** {
 935:../03_Drivers/CMSIS/Include/cmsis_gcc.h ****   __ASM volatile ("isb 0xF":::"memory");
  97              		.loc 2 935 3 view .LVU15
  98              		.syntax unified
  99              	@ 935 "../03_Drivers/CMSIS/Include/cmsis_gcc.h" 1
 100 0056 BFF36F8F 		isb 0xF
 101              	@ 0 "" 2
 102              		.thumb
 103              		.syntax unified
 104              	.LBE11:
 105              	.LBE10:
 712:../03_Drivers/STM32L4xx_HAL_Driver/Src/stm32l4xx_hal_flash.c **** 
 713:../03_Drivers/STM32L4xx_HAL_Driver/Src/stm32l4xx_hal_flash.c ****   /* Program second word */
 714:../03_Drivers/STM32L4xx_HAL_Driver/Src/stm32l4xx_hal_flash.c ****   *(__IO uint32_t*)(Address+4U) = (uint32_t)(Data >> 32);
 106              		.loc 1 714 3 view .LVU16
 107              		.loc 1 714 33 is_stmt 0 view .LVU17
 108 005a 6560     		str	r5, [r4, #4]
 715:../03_Drivers/STM32L4xx_HAL_Driver/Src/stm32l4xx_hal_flash.c **** }
 109              		.loc 1 715 1 view .LVU18
 110 005c 70BD     		pop	{r4, r5, r6, pc}
 111              	.LVL2:
 112              	.L10:
ARM GAS  C:\Users\minde\AppData\Local\Temp\cc31p2l9.s 			page 32


 701:../03_Drivers/STM32L4xx_HAL_Driver/Src/stm32l4xx_hal_flash.c **** 
 113              		.loc 1 701 3 discriminator 6 view .LVU19
 114 005e 0B4B     		ldr	r3, .L14+8
 115 0060 9842     		cmp	r0, r3
 116 0062 EBD8     		bhi	.L2
 117 0064 F1E7     		b	.L4
 118              	.L11:
 701:../03_Drivers/STM32L4xx_HAL_Driver/Src/stm32l4xx_hal_flash.c **** 
 119              		.loc 1 701 3 discriminator 9 view .LVU20
 120 0066 0A4B     		ldr	r3, .L14+12
 121 0068 9842     		cmp	r0, r3
 122 006a E7D8     		bhi	.L2
 123 006c EDE7     		b	.L4
 124              	.L12:
 701:../03_Drivers/STM32L4xx_HAL_Driver/Src/stm32l4xx_hal_flash.c **** 
 125              		.loc 1 701 3 discriminator 12 view .LVU21
 126 006e 094B     		ldr	r3, .L14+16
 127 0070 9842     		cmp	r0, r3
 128 0072 E3D8     		bhi	.L2
 129 0074 E9E7     		b	.L4
 130              	.L13:
 701:../03_Drivers/STM32L4xx_HAL_Driver/Src/stm32l4xx_hal_flash.c **** 
 131              		.loc 1 701 3 discriminator 16 view .LVU22
 132 0076 40F2BD21 		movw	r1, #701
 133 007a 0748     		ldr	r0, .L14+20
 134              	.LVL3:
 701:../03_Drivers/STM32L4xx_HAL_Driver/Src/stm32l4xx_hal_flash.c **** 
 135              		.loc 1 701 3 discriminator 16 view .LVU23
 136 007c FFF7FEFF 		bl	assert_failed
 137              	.LVL4:
 701:../03_Drivers/STM32L4xx_HAL_Driver/Src/stm32l4xx_hal_flash.c **** 
 138              		.loc 1 701 3 discriminator 16 view .LVU24
 139 0080 E3E7     		b	.L4
 140              	.L15:
 141 0082 00BF     		.align	2
 142              	.L14:
 143 0084 0075FF1F 		.word	536835328
 144 0088 00200240 		.word	1073881088
 145 008c FFFF0708 		.word	134742015
 146 0090 FFFF0308 		.word	134479871
 147 0094 FFFF0108 		.word	134348799
 148 0098 00000000 		.word	.LC0
 149              		.cfi_endproc
 150              	.LFE300:
 152              		.section	.text.FLASH_Program_Fast,"ax",%progbits
 153              		.align	1
 154              		.syntax unified
 155              		.thumb
 156              		.thumb_func
 157              		.fpu fpv4-sp-d16
 159              	FLASH_Program_Fast:
 160              	.LVL5:
 161              	.LFB301:
 716:../03_Drivers/STM32L4xx_HAL_Driver/Src/stm32l4xx_hal_flash.c **** 
 717:../03_Drivers/STM32L4xx_HAL_Driver/Src/stm32l4xx_hal_flash.c **** /**
 718:../03_Drivers/STM32L4xx_HAL_Driver/Src/stm32l4xx_hal_flash.c ****   * @brief  Fast program a row double-word (64-bit) at a specified address.
 719:../03_Drivers/STM32L4xx_HAL_Driver/Src/stm32l4xx_hal_flash.c ****   * @param  Address specifies the address to be programmed.
ARM GAS  C:\Users\minde\AppData\Local\Temp\cc31p2l9.s 			page 33


 720:../03_Drivers/STM32L4xx_HAL_Driver/Src/stm32l4xx_hal_flash.c ****   * @param  DataAddress specifies the address where the data are stored.
 721:../03_Drivers/STM32L4xx_HAL_Driver/Src/stm32l4xx_hal_flash.c ****   * @retval None
 722:../03_Drivers/STM32L4xx_HAL_Driver/Src/stm32l4xx_hal_flash.c ****   */
 723:../03_Drivers/STM32L4xx_HAL_Driver/Src/stm32l4xx_hal_flash.c **** static void FLASH_Program_Fast(uint32_t Address, uint32_t DataAddress)
 724:../03_Drivers/STM32L4xx_HAL_Driver/Src/stm32l4xx_hal_flash.c **** {
 162              		.loc 1 724 1 is_stmt 1 view -0
 163              		.cfi_startproc
 164              		@ args = 0, pretend = 0, frame = 0
 165              		@ frame_needed = 0, uses_anonymous_args = 0
 166              		.loc 1 724 1 is_stmt 0 view .LVU26
 167 0000 38B5     		push	{r3, r4, r5, lr}
 168              	.LCFI1:
 169              		.cfi_def_cfa_offset 16
 170              		.cfi_offset 3, -16
 171              		.cfi_offset 4, -12
 172              		.cfi_offset 5, -8
 173              		.cfi_offset 14, -4
 725:../03_Drivers/STM32L4xx_HAL_Driver/Src/stm32l4xx_hal_flash.c ****   uint32_t primask_bit;
 174              		.loc 1 725 3 is_stmt 1 view .LVU27
 726:../03_Drivers/STM32L4xx_HAL_Driver/Src/stm32l4xx_hal_flash.c ****   uint8_t row_index = (2*FLASH_NB_DOUBLE_WORDS_IN_ROW);
 175              		.loc 1 726 3 view .LVU28
 176              	.LVL6:
 727:../03_Drivers/STM32L4xx_HAL_Driver/Src/stm32l4xx_hal_flash.c ****   __IO uint32_t *dest_addr = (__IO uint32_t*)Address;
 177              		.loc 1 727 3 view .LVU29
 178              		.loc 1 727 18 is_stmt 0 view .LVU30
 179 0002 0546     		mov	r5, r0
 180              	.LVL7:
 728:../03_Drivers/STM32L4xx_HAL_Driver/Src/stm32l4xx_hal_flash.c ****   __IO uint32_t *src_addr = (__IO uint32_t*)DataAddress;
 181              		.loc 1 728 3 is_stmt 1 view .LVU31
 182              		.loc 1 728 18 is_stmt 0 view .LVU32
 183 0004 0C46     		mov	r4, r1
 184              	.LVL8:
 729:../03_Drivers/STM32L4xx_HAL_Driver/Src/stm32l4xx_hal_flash.c **** 
 730:../03_Drivers/STM32L4xx_HAL_Driver/Src/stm32l4xx_hal_flash.c ****   /* Check the parameters */
 731:../03_Drivers/STM32L4xx_HAL_Driver/Src/stm32l4xx_hal_flash.c ****   assert_param(IS_FLASH_MAIN_MEM_ADDRESS(Address));
 185              		.loc 1 731 3 is_stmt 1 view .LVU33
 186 0006 B0F1006F 		cmp	r0, #134217728
 187 000a 16D3     		bcc	.L17
 188              		.loc 1 731 3 is_stmt 0 discriminator 2 view .LVU34
 189 000c 1D4B     		ldr	r3, .L29
 190 000e B3F8E030 		ldrh	r3, [r3, #224]
 191 0012 C3F30B03 		ubfx	r3, r3, #0, #12
 192 0016 B3F5806F 		cmp	r3, #1024
 193 001a 0BD0     		beq	.L25
 194              		.loc 1 731 3 discriminator 4 view .LVU35
 195 001c B3F5007F 		cmp	r3, #512
 196 0020 24D0     		beq	.L26
 197              		.loc 1 731 3 discriminator 7 view .LVU36
 198 0022 B3F5807F 		cmp	r3, #256
 199 0026 25D0     		beq	.L27
 200              		.loc 1 731 3 discriminator 10 view .LVU37
 201 0028 802B     		cmp	r3, #128
 202 002a 27D0     		beq	.L28
 203              		.loc 1 731 3 discriminator 13 view .LVU38
 204 002c B0F1016F 		cmp	r0, #135266304
 205 0030 08D3     		bcc	.L19
 206 0032 02E0     		b	.L17
ARM GAS  C:\Users\minde\AppData\Local\Temp\cc31p2l9.s 			page 34


 207              	.L25:
 208              		.loc 1 731 3 discriminator 3 view .LVU39
 209 0034 B0F1016F 		cmp	r0, #135266304
 210 0038 04D3     		bcc	.L19
 211              	.L17:
 212              		.loc 1 731 3 discriminator 15 view .LVU40
 213 003a 40F2DB21 		movw	r1, #731
 214              	.LVL9:
 215              		.loc 1 731 3 discriminator 15 view .LVU41
 216 003e 1248     		ldr	r0, .L29+4
 217              	.LVL10:
 218              		.loc 1 731 3 discriminator 15 view .LVU42
 219 0040 FFF7FEFF 		bl	assert_failed
 220              	.LVL11:
 221              	.L19:
 732:../03_Drivers/STM32L4xx_HAL_Driver/Src/stm32l4xx_hal_flash.c **** 
 733:../03_Drivers/STM32L4xx_HAL_Driver/Src/stm32l4xx_hal_flash.c ****   /* Set FSTPG bit */
 734:../03_Drivers/STM32L4xx_HAL_Driver/Src/stm32l4xx_hal_flash.c ****   SET_BIT(FLASH->CR, FLASH_CR_FSTPG);
 222              		.loc 1 734 3 is_stmt 1 view .LVU43
 223 0044 114A     		ldr	r2, .L29+8
 224 0046 5369     		ldr	r3, [r2, #20]
 225 0048 43F48023 		orr	r3, r3, #262144
 226 004c 5361     		str	r3, [r2, #20]
 735:../03_Drivers/STM32L4xx_HAL_Driver/Src/stm32l4xx_hal_flash.c **** 
 736:../03_Drivers/STM32L4xx_HAL_Driver/Src/stm32l4xx_hal_flash.c ****   /* Disable interrupts to avoid any interruption during the loop */
 737:../03_Drivers/STM32L4xx_HAL_Driver/Src/stm32l4xx_hal_flash.c ****   primask_bit = __get_PRIMASK();
 227              		.loc 1 737 3 view .LVU44
 228              	.LBB12:
 229              	.LBI12:
 449:../03_Drivers/CMSIS/Include/cmsis_gcc.h **** {
 230              		.loc 2 449 31 view .LVU45
 231              	.LBB13:
 451:../03_Drivers/CMSIS/Include/cmsis_gcc.h **** 
 232              		.loc 2 451 3 view .LVU46
 453:../03_Drivers/CMSIS/Include/cmsis_gcc.h ****   return(result);
 233              		.loc 2 453 3 view .LVU47
 234              		.syntax unified
 235              	@ 453 "../03_Drivers/CMSIS/Include/cmsis_gcc.h" 1
 236 004e EFF31081 		MRS r1, primask
 237              	@ 0 "" 2
 238              	.LVL12:
 454:../03_Drivers/CMSIS/Include/cmsis_gcc.h **** }
 239              		.loc 2 454 3 view .LVU48
 454:../03_Drivers/CMSIS/Include/cmsis_gcc.h **** }
 240              		.loc 2 454 3 is_stmt 0 view .LVU49
 241              		.thumb
 242              		.syntax unified
 243              	.LBE13:
 244              	.LBE12:
 738:../03_Drivers/STM32L4xx_HAL_Driver/Src/stm32l4xx_hal_flash.c ****   __disable_irq();
 245              		.loc 1 738 3 is_stmt 1 view .LVU50
 246              	.LBB14:
 247              	.LBI14:
 207:../03_Drivers/CMSIS/Include/cmsis_gcc.h **** {
 248              		.loc 2 207 27 view .LVU51
 249              	.LBB15:
 209:../03_Drivers/CMSIS/Include/cmsis_gcc.h **** }
ARM GAS  C:\Users\minde\AppData\Local\Temp\cc31p2l9.s 			page 35


 250              		.loc 2 209 3 view .LVU52
 251              		.syntax unified
 252              	@ 209 "../03_Drivers/CMSIS/Include/cmsis_gcc.h" 1
 253 0052 72B6     		cpsid i
 254              	@ 0 "" 2
 255              		.thumb
 256              		.syntax unified
 257              	.LBE15:
 258              	.LBE14:
 726:../03_Drivers/STM32L4xx_HAL_Driver/Src/stm32l4xx_hal_flash.c ****   __IO uint32_t *dest_addr = (__IO uint32_t*)Address;
 259              		.loc 1 726 11 is_stmt 0 view .LVU53
 260 0054 4023     		movs	r3, #64
 261              	.LVL13:
 262              	.L23:
 739:../03_Drivers/STM32L4xx_HAL_Driver/Src/stm32l4xx_hal_flash.c **** 
 740:../03_Drivers/STM32L4xx_HAL_Driver/Src/stm32l4xx_hal_flash.c ****   /* Program the double word of the row */
 741:../03_Drivers/STM32L4xx_HAL_Driver/Src/stm32l4xx_hal_flash.c ****   do
 263              		.loc 1 741 3 is_stmt 1 discriminator 1 view .LVU54
 742:../03_Drivers/STM32L4xx_HAL_Driver/Src/stm32l4xx_hal_flash.c ****   {
 743:../03_Drivers/STM32L4xx_HAL_Driver/Src/stm32l4xx_hal_flash.c ****     *dest_addr = *src_addr;
 264              		.loc 1 743 5 discriminator 1 view .LVU55
 265              		.loc 1 743 18 is_stmt 0 discriminator 1 view .LVU56
 266 0056 54F8042B 		ldr	r2, [r4], #4
 267              	.LVL14:
 268              		.loc 1 743 16 discriminator 1 view .LVU57
 269 005a 45F8042B 		str	r2, [r5], #4
 270              	.LVL15:
 744:../03_Drivers/STM32L4xx_HAL_Driver/Src/stm32l4xx_hal_flash.c ****     dest_addr++;
 271              		.loc 1 744 5 is_stmt 1 discriminator 1 view .LVU58
 745:../03_Drivers/STM32L4xx_HAL_Driver/Src/stm32l4xx_hal_flash.c ****     src_addr++;
 272              		.loc 1 745 5 discriminator 1 view .LVU59
 746:../03_Drivers/STM32L4xx_HAL_Driver/Src/stm32l4xx_hal_flash.c ****     row_index--;
 273              		.loc 1 746 5 discriminator 1 view .LVU60
 274              		.loc 1 746 14 is_stmt 0 discriminator 1 view .LVU61
 275 005e 013B     		subs	r3, r3, #1
 276              	.LVL16:
 747:../03_Drivers/STM32L4xx_HAL_Driver/Src/stm32l4xx_hal_flash.c ****   } while (row_index != 0U);
 277              		.loc 1 747 11 is_stmt 1 discriminator 1 view .LVU62
 278              		.loc 1 747 3 is_stmt 0 discriminator 1 view .LVU63
 279 0060 13F0FF03 		ands	r3, r3, #255
 280              	.LVL17:
 281              		.loc 1 747 3 discriminator 1 view .LVU64
 282 0064 F7D1     		bne	.L23
 748:../03_Drivers/STM32L4xx_HAL_Driver/Src/stm32l4xx_hal_flash.c **** 
 749:../03_Drivers/STM32L4xx_HAL_Driver/Src/stm32l4xx_hal_flash.c ****   /* Re-enable the interrupts */
 750:../03_Drivers/STM32L4xx_HAL_Driver/Src/stm32l4xx_hal_flash.c ****   __set_PRIMASK(primask_bit);
 283              		.loc 1 750 3 is_stmt 1 view .LVU65
 284              	.LVL18:
 285              	.LBB16:
 286              	.LBI16:
 479:../03_Drivers/CMSIS/Include/cmsis_gcc.h **** {
 287              		.loc 2 479 27 view .LVU66
 288              	.LBB17:
 481:../03_Drivers/CMSIS/Include/cmsis_gcc.h **** }
 289              		.loc 2 481 3 view .LVU67
 290              		.syntax unified
 291              	@ 481 "../03_Drivers/CMSIS/Include/cmsis_gcc.h" 1
ARM GAS  C:\Users\minde\AppData\Local\Temp\cc31p2l9.s 			page 36


 292 0066 81F31088 		MSR primask, r1
 293              	@ 0 "" 2
 294              	.LVL19:
 481:../03_Drivers/CMSIS/Include/cmsis_gcc.h **** }
 295              		.loc 2 481 3 is_stmt 0 view .LVU68
 296              		.thumb
 297              		.syntax unified
 298              	.LBE17:
 299              	.LBE16:
 751:../03_Drivers/STM32L4xx_HAL_Driver/Src/stm32l4xx_hal_flash.c **** }
 300              		.loc 1 751 1 view .LVU69
 301 006a 38BD     		pop	{r3, r4, r5, pc}
 302              	.LVL20:
 303              	.L26:
 731:../03_Drivers/STM32L4xx_HAL_Driver/Src/stm32l4xx_hal_flash.c **** 
 304              		.loc 1 731 3 discriminator 6 view .LVU70
 305 006c 084B     		ldr	r3, .L29+12
 306 006e 9842     		cmp	r0, r3
 307 0070 E3D8     		bhi	.L17
 308 0072 E7E7     		b	.L19
 309              	.L27:
 731:../03_Drivers/STM32L4xx_HAL_Driver/Src/stm32l4xx_hal_flash.c **** 
 310              		.loc 1 731 3 discriminator 9 view .LVU71
 311 0074 074B     		ldr	r3, .L29+16
 312 0076 9842     		cmp	r0, r3
 313 0078 DFD8     		bhi	.L17
 314 007a E3E7     		b	.L19
 315              	.L28:
 731:../03_Drivers/STM32L4xx_HAL_Driver/Src/stm32l4xx_hal_flash.c **** 
 316              		.loc 1 731 3 discriminator 12 view .LVU72
 317 007c 064B     		ldr	r3, .L29+20
 318 007e 9842     		cmp	r0, r3
 319 0080 DBD8     		bhi	.L17
 320 0082 DFE7     		b	.L19
 321              	.L30:
 322              		.align	2
 323              	.L29:
 324 0084 0075FF1F 		.word	536835328
 325 0088 00000000 		.word	.LC0
 326 008c 00200240 		.word	1073881088
 327 0090 FFFF0708 		.word	134742015
 328 0094 FFFF0308 		.word	134479871
 329 0098 FFFF0108 		.word	134348799
 330              		.cfi_endproc
 331              	.LFE301:
 333              		.section	.text.HAL_FLASH_Program_IT,"ax",%progbits
 334              		.align	1
 335              		.global	HAL_FLASH_Program_IT
 336              		.syntax unified
 337              		.thumb
 338              		.thumb_func
 339              		.fpu fpv4-sp-d16
 341              	HAL_FLASH_Program_IT:
 342              	.LVL21:
 343              	.LFB289:
 254:../03_Drivers/STM32L4xx_HAL_Driver/Src/stm32l4xx_hal_flash.c ****   HAL_StatusTypeDef status = HAL_OK;
 344              		.loc 1 254 1 is_stmt 1 view -0
ARM GAS  C:\Users\minde\AppData\Local\Temp\cc31p2l9.s 			page 37


 345              		.cfi_startproc
 346              		@ args = 0, pretend = 0, frame = 0
 347              		@ frame_needed = 0, uses_anonymous_args = 0
 254:../03_Drivers/STM32L4xx_HAL_Driver/Src/stm32l4xx_hal_flash.c ****   HAL_StatusTypeDef status = HAL_OK;
 348              		.loc 1 254 1 is_stmt 0 view .LVU74
 349 0000 F8B5     		push	{r3, r4, r5, r6, r7, lr}
 350              	.LCFI2:
 351              		.cfi_def_cfa_offset 24
 352              		.cfi_offset 3, -24
 353              		.cfi_offset 4, -20
 354              		.cfi_offset 5, -16
 355              		.cfi_offset 6, -12
 356              		.cfi_offset 7, -8
 357              		.cfi_offset 14, -4
 358 0002 0446     		mov	r4, r0
 359 0004 0D46     		mov	r5, r1
 360 0006 1646     		mov	r6, r2
 361 0008 1F46     		mov	r7, r3
 255:../03_Drivers/STM32L4xx_HAL_Driver/Src/stm32l4xx_hal_flash.c **** 
 362              		.loc 1 255 3 is_stmt 1 view .LVU75
 363              	.LVL22:
 258:../03_Drivers/STM32L4xx_HAL_Driver/Src/stm32l4xx_hal_flash.c **** 
 364              		.loc 1 258 3 view .LVU76
 365 000a 0228     		cmp	r0, #2
 366 000c 27D8     		bhi	.L42
 367              	.LVL23:
 368              	.L32:
 261:../03_Drivers/STM32L4xx_HAL_Driver/Src/stm32l4xx_hal_flash.c **** 
 369              		.loc 1 261 3 view .LVU77
 261:../03_Drivers/STM32L4xx_HAL_Driver/Src/stm32l4xx_hal_flash.c **** 
 370              		.loc 1 261 3 view .LVU78
 371 000e 224B     		ldr	r3, .L46
 372 0010 1B78     		ldrb	r3, [r3]	@ zero_extendqisi2
 373 0012 012B     		cmp	r3, #1
 374 0014 3ED0     		beq	.L39
 261:../03_Drivers/STM32L4xx_HAL_Driver/Src/stm32l4xx_hal_flash.c **** 
 375              		.loc 1 261 3 discriminator 2 view .LVU79
 376 0016 204B     		ldr	r3, .L46
 377 0018 0122     		movs	r2, #1
 378 001a 1A70     		strb	r2, [r3]
 261:../03_Drivers/STM32L4xx_HAL_Driver/Src/stm32l4xx_hal_flash.c **** 
 379              		.loc 1 261 3 discriminator 2 view .LVU80
 263:../03_Drivers/STM32L4xx_HAL_Driver/Src/stm32l4xx_hal_flash.c **** 
 380              		.loc 1 263 3 discriminator 2 view .LVU81
 263:../03_Drivers/STM32L4xx_HAL_Driver/Src/stm32l4xx_hal_flash.c **** 
 381              		.loc 1 263 20 is_stmt 0 discriminator 2 view .LVU82
 382 001c 0022     		movs	r2, #0
 383 001e 5A60     		str	r2, [r3, #4]
 266:../03_Drivers/STM32L4xx_HAL_Driver/Src/stm32l4xx_hal_flash.c ****   {
 384              		.loc 1 266 3 is_stmt 1 discriminator 2 view .LVU83
 266:../03_Drivers/STM32L4xx_HAL_Driver/Src/stm32l4xx_hal_flash.c ****   {
 385              		.loc 1 266 6 is_stmt 0 discriminator 2 view .LVU84
 386 0020 1E4B     		ldr	r3, .L46+4
 387 0022 1B68     		ldr	r3, [r3]
 266:../03_Drivers/STM32L4xx_HAL_Driver/Src/stm32l4xx_hal_flash.c ****   {
 388              		.loc 1 266 5 discriminator 2 view .LVU85
 389 0024 13F4806F 		tst	r3, #1024
ARM GAS  C:\Users\minde\AppData\Local\Temp\cc31p2l9.s 			page 38


 390 0028 1FD0     		beq	.L34
 269:../03_Drivers/STM32L4xx_HAL_Driver/Src/stm32l4xx_hal_flash.c ****     pFlash.CacheToReactivate = FLASH_CACHE_DCACHE_ENABLED;
 391              		.loc 1 269 5 is_stmt 1 view .LVU86
 392 002a 1C4A     		ldr	r2, .L46+4
 393 002c 1368     		ldr	r3, [r2]
 394 002e 23F48063 		bic	r3, r3, #1024
 395 0032 1360     		str	r3, [r2]
 270:../03_Drivers/STM32L4xx_HAL_Driver/Src/stm32l4xx_hal_flash.c ****   }
 396              		.loc 1 270 5 view .LVU87
 270:../03_Drivers/STM32L4xx_HAL_Driver/Src/stm32l4xx_hal_flash.c ****   }
 397              		.loc 1 270 30 is_stmt 0 view .LVU88
 398 0034 184B     		ldr	r3, .L46
 399 0036 0222     		movs	r2, #2
 400 0038 1A77     		strb	r2, [r3, #28]
 401              	.L35:
 278:../03_Drivers/STM32L4xx_HAL_Driver/Src/stm32l4xx_hal_flash.c ****   {
 402              		.loc 1 278 3 is_stmt 1 view .LVU89
 278:../03_Drivers/STM32L4xx_HAL_Driver/Src/stm32l4xx_hal_flash.c ****   {
 403              		.loc 1 278 5 is_stmt 0 view .LVU90
 404 003a 022C     		cmp	r4, #2
 405 003c 19D0     		beq	.L43
 284:../03_Drivers/STM32L4xx_HAL_Driver/Src/stm32l4xx_hal_flash.c ****   }
 406              		.loc 1 284 5 is_stmt 1 view .LVU91
 284:../03_Drivers/STM32L4xx_HAL_Driver/Src/stm32l4xx_hal_flash.c ****   }
 407              		.loc 1 284 29 is_stmt 0 view .LVU92
 408 003e 164B     		ldr	r3, .L46
 409 0040 0322     		movs	r2, #3
 410 0042 1A72     		strb	r2, [r3, #8]
 411              	.L37:
 286:../03_Drivers/STM32L4xx_HAL_Driver/Src/stm32l4xx_hal_flash.c **** 
 412              		.loc 1 286 3 is_stmt 1 view .LVU93
 286:../03_Drivers/STM32L4xx_HAL_Driver/Src/stm32l4xx_hal_flash.c **** 
 413              		.loc 1 286 18 is_stmt 0 view .LVU94
 414 0044 144B     		ldr	r3, .L46
 415 0046 DD60     		str	r5, [r3, #12]
 289:../03_Drivers/STM32L4xx_HAL_Driver/Src/stm32l4xx_hal_flash.c **** 
 416              		.loc 1 289 3 is_stmt 1 view .LVU95
 289:../03_Drivers/STM32L4xx_HAL_Driver/Src/stm32l4xx_hal_flash.c **** 
 417              		.loc 1 289 3 view .LVU96
 289:../03_Drivers/STM32L4xx_HAL_Driver/Src/stm32l4xx_hal_flash.c **** 
 418              		.loc 1 289 3 view .LVU97
 289:../03_Drivers/STM32L4xx_HAL_Driver/Src/stm32l4xx_hal_flash.c **** 
 419              		.loc 1 289 3 view .LVU98
 420 0048 144B     		ldr	r3, .L46+4
 421 004a 5869     		ldr	r0, [r3, #20]
 422 004c 40F04070 		orr	r0, r0, #50331648
 423 0050 5861     		str	r0, [r3, #20]
 289:../03_Drivers/STM32L4xx_HAL_Driver/Src/stm32l4xx_hal_flash.c **** 
 424              		.loc 1 289 3 view .LVU99
 291:../03_Drivers/STM32L4xx_HAL_Driver/Src/stm32l4xx_hal_flash.c ****   {
 425              		.loc 1 291 3 view .LVU100
 291:../03_Drivers/STM32L4xx_HAL_Driver/Src/stm32l4xx_hal_flash.c ****   {
 426              		.loc 1 291 5 is_stmt 0 view .LVU101
 427 0052 94B1     		cbz	r4, .L44
 296:../03_Drivers/STM32L4xx_HAL_Driver/Src/stm32l4xx_hal_flash.c ****   {
 428              		.loc 1 296 8 is_stmt 1 view .LVU102
 296:../03_Drivers/STM32L4xx_HAL_Driver/Src/stm32l4xx_hal_flash.c ****   {
ARM GAS  C:\Users\minde\AppData\Local\Temp\cc31p2l9.s 			page 39


 429              		.loc 1 296 51 is_stmt 0 view .LVU103
 430 0054 013C     		subs	r4, r4, #1
 431              	.LVL24:
 296:../03_Drivers/STM32L4xx_HAL_Driver/Src/stm32l4xx_hal_flash.c ****   {
 432              		.loc 1 296 10 view .LVU104
 433 0056 012C     		cmp	r4, #1
 434 0058 16D9     		bls	.L45
 306:../03_Drivers/STM32L4xx_HAL_Driver/Src/stm32l4xx_hal_flash.c **** }
 435              		.loc 1 306 10 view .LVU105
 436 005a 0020     		movs	r0, #0
 437              	.LVL25:
 438              	.L33:
 307:../03_Drivers/STM32L4xx_HAL_Driver/Src/stm32l4xx_hal_flash.c **** 
 439              		.loc 1 307 1 view .LVU106
 440 005c F8BD     		pop	{r3, r4, r5, r6, r7, pc}
 441              	.LVL26:
 442              	.L42:
 258:../03_Drivers/STM32L4xx_HAL_Driver/Src/stm32l4xx_hal_flash.c **** 
 443              		.loc 1 258 3 discriminator 1 view .LVU107
 444 005e 4FF48171 		mov	r1, #258
 445              	.LVL27:
 258:../03_Drivers/STM32L4xx_HAL_Driver/Src/stm32l4xx_hal_flash.c **** 
 446              		.loc 1 258 3 discriminator 1 view .LVU108
 447 0062 0F48     		ldr	r0, .L46+8
 448              	.LVL28:
 258:../03_Drivers/STM32L4xx_HAL_Driver/Src/stm32l4xx_hal_flash.c **** 
 449              		.loc 1 258 3 discriminator 1 view .LVU109
 450 0064 FFF7FEFF 		bl	assert_failed
 451              	.LVL29:
 258:../03_Drivers/STM32L4xx_HAL_Driver/Src/stm32l4xx_hal_flash.c **** 
 452              		.loc 1 258 3 discriminator 1 view .LVU110
 453 0068 D1E7     		b	.L32
 454              	.L34:
 274:../03_Drivers/STM32L4xx_HAL_Driver/Src/stm32l4xx_hal_flash.c ****   }
 455              		.loc 1 274 5 is_stmt 1 view .LVU111
 274:../03_Drivers/STM32L4xx_HAL_Driver/Src/stm32l4xx_hal_flash.c ****   }
 456              		.loc 1 274 30 is_stmt 0 view .LVU112
 457 006a 0B4B     		ldr	r3, .L46
 458 006c 0022     		movs	r2, #0
 459 006e 1A77     		strb	r2, [r3, #28]
 460 0070 E3E7     		b	.L35
 461              	.L43:
 280:../03_Drivers/STM32L4xx_HAL_Driver/Src/stm32l4xx_hal_flash.c ****   }
 462              		.loc 1 280 5 is_stmt 1 view .LVU113
 280:../03_Drivers/STM32L4xx_HAL_Driver/Src/stm32l4xx_hal_flash.c ****   }
 463              		.loc 1 280 29 is_stmt 0 view .LVU114
 464 0072 094B     		ldr	r3, .L46
 465 0074 0422     		movs	r2, #4
 466 0076 1A72     		strb	r2, [r3, #8]
 467 0078 E4E7     		b	.L37
 468              	.L44:
 294:../03_Drivers/STM32L4xx_HAL_Driver/Src/stm32l4xx_hal_flash.c ****   }
 469              		.loc 1 294 5 is_stmt 1 view .LVU115
 470 007a 3246     		mov	r2, r6
 471 007c 3B46     		mov	r3, r7
 472 007e 2846     		mov	r0, r5
 473 0080 FFF7FEFF 		bl	FLASH_Program_DoubleWord
ARM GAS  C:\Users\minde\AppData\Local\Temp\cc31p2l9.s 			page 40


 474              	.LVL30:
 306:../03_Drivers/STM32L4xx_HAL_Driver/Src/stm32l4xx_hal_flash.c **** }
 475              		.loc 1 306 10 is_stmt 0 view .LVU116
 476 0084 0020     		movs	r0, #0
 477 0086 E9E7     		b	.L33
 478              	.LVL31:
 479              	.L45:
 299:../03_Drivers/STM32L4xx_HAL_Driver/Src/stm32l4xx_hal_flash.c ****   }
 480              		.loc 1 299 5 is_stmt 1 view .LVU117
 481 0088 3146     		mov	r1, r6
 482 008a 2846     		mov	r0, r5
 483 008c FFF7FEFF 		bl	FLASH_Program_Fast
 484              	.LVL32:
 306:../03_Drivers/STM32L4xx_HAL_Driver/Src/stm32l4xx_hal_flash.c **** }
 485              		.loc 1 306 10 is_stmt 0 view .LVU118
 486 0090 0020     		movs	r0, #0
 487 0092 E3E7     		b	.L33
 488              	.LVL33:
 489              	.L39:
 261:../03_Drivers/STM32L4xx_HAL_Driver/Src/stm32l4xx_hal_flash.c **** 
 490              		.loc 1 261 3 view .LVU119
 491 0094 0220     		movs	r0, #2
 492 0096 E1E7     		b	.L33
 493              	.L47:
 494              		.align	2
 495              	.L46:
 496 0098 00000000 		.word	.LANCHOR0
 497 009c 00200240 		.word	1073881088
 498 00a0 00000000 		.word	.LC0
 499              		.cfi_endproc
 500              	.LFE289:
 502              		.section	.text.HAL_FLASH_EndOfOperationCallback,"ax",%progbits
 503              		.align	1
 504              		.weak	HAL_FLASH_EndOfOperationCallback
 505              		.syntax unified
 506              		.thumb
 507              		.thumb_func
 508              		.fpu fpv4-sp-d16
 510              	HAL_FLASH_EndOfOperationCallback:
 511              	.LVL34:
 512              	.LFB291:
 457:../03_Drivers/STM32L4xx_HAL_Driver/Src/stm32l4xx_hal_flash.c ****   /* Prevent unused argument(s) compilation warning */
 513              		.loc 1 457 1 is_stmt 1 view -0
 514              		.cfi_startproc
 515              		@ args = 0, pretend = 0, frame = 0
 516              		@ frame_needed = 0, uses_anonymous_args = 0
 517              		@ link register save eliminated.
 459:../03_Drivers/STM32L4xx_HAL_Driver/Src/stm32l4xx_hal_flash.c **** 
 518              		.loc 1 459 3 view .LVU121
 464:../03_Drivers/STM32L4xx_HAL_Driver/Src/stm32l4xx_hal_flash.c **** 
 519              		.loc 1 464 1 is_stmt 0 view .LVU122
 520 0000 7047     		bx	lr
 521              		.cfi_endproc
 522              	.LFE291:
 524              		.section	.text.HAL_FLASH_OperationErrorCallback,"ax",%progbits
 525              		.align	1
 526              		.weak	HAL_FLASH_OperationErrorCallback
ARM GAS  C:\Users\minde\AppData\Local\Temp\cc31p2l9.s 			page 41


 527              		.syntax unified
 528              		.thumb
 529              		.thumb_func
 530              		.fpu fpv4-sp-d16
 532              	HAL_FLASH_OperationErrorCallback:
 533              	.LVL35:
 534              	.LFB292:
 475:../03_Drivers/STM32L4xx_HAL_Driver/Src/stm32l4xx_hal_flash.c ****   /* Prevent unused argument(s) compilation warning */
 535              		.loc 1 475 1 is_stmt 1 view -0
 536              		.cfi_startproc
 537              		@ args = 0, pretend = 0, frame = 0
 538              		@ frame_needed = 0, uses_anonymous_args = 0
 539              		@ link register save eliminated.
 477:../03_Drivers/STM32L4xx_HAL_Driver/Src/stm32l4xx_hal_flash.c **** 
 540              		.loc 1 477 3 view .LVU124
 482:../03_Drivers/STM32L4xx_HAL_Driver/Src/stm32l4xx_hal_flash.c **** 
 541              		.loc 1 482 1 is_stmt 0 view .LVU125
 542 0000 7047     		bx	lr
 543              		.cfi_endproc
 544              	.LFE292:
 546              		.section	.text.HAL_FLASH_IRQHandler,"ax",%progbits
 547              		.align	1
 548              		.global	HAL_FLASH_IRQHandler
 549              		.syntax unified
 550              		.thumb
 551              		.thumb_func
 552              		.fpu fpv4-sp-d16
 554              	HAL_FLASH_IRQHandler:
 555              	.LFB290:
 314:../03_Drivers/STM32L4xx_HAL_Driver/Src/stm32l4xx_hal_flash.c ****   uint32_t tmp_page;
 556              		.loc 1 314 1 is_stmt 1 view -0
 557              		.cfi_startproc
 558              		@ args = 0, pretend = 0, frame = 0
 559              		@ frame_needed = 0, uses_anonymous_args = 0
 560 0000 10B5     		push	{r4, lr}
 561              	.LCFI3:
 562              		.cfi_def_cfa_offset 8
 563              		.cfi_offset 4, -8
 564              		.cfi_offset 14, -4
 315:../03_Drivers/STM32L4xx_HAL_Driver/Src/stm32l4xx_hal_flash.c ****   uint32_t error;
 565              		.loc 1 315 3 view .LVU127
 316:../03_Drivers/STM32L4xx_HAL_Driver/Src/stm32l4xx_hal_flash.c ****   FLASH_ProcedureTypeDef procedure;
 566              		.loc 1 316 3 view .LVU128
 317:../03_Drivers/STM32L4xx_HAL_Driver/Src/stm32l4xx_hal_flash.c **** 
 567              		.loc 1 317 3 view .LVU129
 320:../03_Drivers/STM32L4xx_HAL_Driver/Src/stm32l4xx_hal_flash.c **** #if defined (STM32L471xx) || defined (STM32L475xx) || defined (STM32L476xx) || defined (STM32L485xx
 568              		.loc 1 320 3 view .LVU130
 569 0002 464A     		ldr	r2, .L71
 570 0004 5369     		ldr	r3, [r2, #20]
 571 0006 23F47F73 		bic	r3, r3, #1020
 572 000a 23F00303 		bic	r3, r3, #3
 573 000e 5361     		str	r3, [r2, #20]
 329:../03_Drivers/STM32L4xx_HAL_Driver/Src/stm32l4xx_hal_flash.c ****   {
 574              		.loc 1 329 3 view .LVU131
 329:../03_Drivers/STM32L4xx_HAL_Driver/Src/stm32l4xx_hal_flash.c ****   {
 575              		.loc 1 329 12 is_stmt 0 view .LVU132
 576 0010 434B     		ldr	r3, .L71+4
ARM GAS  C:\Users\minde\AppData\Local\Temp\cc31p2l9.s 			page 42


 577 0012 1B7A     		ldrb	r3, [r3, #8]	@ zero_extendqisi2
 578 0014 DBB2     		uxtb	r3, r3
 329:../03_Drivers/STM32L4xx_HAL_Driver/Src/stm32l4xx_hal_flash.c ****   {
 579              		.loc 1 329 5 view .LVU133
 580 0016 042B     		cmp	r3, #4
 581 0018 24D0     		beq	.L64
 582              	.L51:
 335:../03_Drivers/STM32L4xx_HAL_Driver/Src/stm32l4xx_hal_flash.c **** 
 583              		.loc 1 335 3 is_stmt 1 view .LVU134
 335:../03_Drivers/STM32L4xx_HAL_Driver/Src/stm32l4xx_hal_flash.c **** 
 584              		.loc 1 335 17 is_stmt 0 view .LVU135
 585 001a 404B     		ldr	r3, .L71
 586 001c 1B69     		ldr	r3, [r3, #16]
 335:../03_Drivers/STM32L4xx_HAL_Driver/Src/stm32l4xx_hal_flash.c **** 
 587              		.loc 1 335 9 view .LVU136
 588 001e 414A     		ldr	r2, .L71+8
 589              	.LVL36:
 337:../03_Drivers/STM32L4xx_HAL_Driver/Src/stm32l4xx_hal_flash.c ****   {
 590              		.loc 1 337 3 is_stmt 1 view .LVU137
 337:../03_Drivers/STM32L4xx_HAL_Driver/Src/stm32l4xx_hal_flash.c ****   {
 591              		.loc 1 337 6 is_stmt 0 view .LVU138
 592 0020 1340     		ands	r3, r3, r2
 593              	.LVL37:
 337:../03_Drivers/STM32L4xx_HAL_Driver/Src/stm32l4xx_hal_flash.c ****   {
 594              		.loc 1 337 6 view .LVU139
 595 0022 24D1     		bne	.L65
 596              	.LVL38:
 597              	.L52:
 373:../03_Drivers/STM32L4xx_HAL_Driver/Src/stm32l4xx_hal_flash.c ****   {
 598              		.loc 1 373 3 is_stmt 1 view .LVU140
 373:../03_Drivers/STM32L4xx_HAL_Driver/Src/stm32l4xx_hal_flash.c ****   {
 599              		.loc 1 373 6 is_stmt 0 view .LVU141
 600 0024 3D4B     		ldr	r3, .L71
 601 0026 1B69     		ldr	r3, [r3, #16]
 373:../03_Drivers/STM32L4xx_HAL_Driver/Src/stm32l4xx_hal_flash.c ****   {
 602              		.loc 1 373 5 view .LVU142
 603 0028 13F0010F 		tst	r3, #1
 604 002c 60D0     		beq	.L57
 376:../03_Drivers/STM32L4xx_HAL_Driver/Src/stm32l4xx_hal_flash.c **** 
 605              		.loc 1 376 5 is_stmt 1 discriminator 4 view .LVU143
 376:../03_Drivers/STM32L4xx_HAL_Driver/Src/stm32l4xx_hal_flash.c **** 
 606              		.loc 1 376 5 discriminator 4 view .LVU144
 376:../03_Drivers/STM32L4xx_HAL_Driver/Src/stm32l4xx_hal_flash.c **** 
 607              		.loc 1 376 5 discriminator 4 view .LVU145
 376:../03_Drivers/STM32L4xx_HAL_Driver/Src/stm32l4xx_hal_flash.c **** 
 608              		.loc 1 376 5 discriminator 4 view .LVU146
 609 002e 3B4B     		ldr	r3, .L71
 610 0030 0122     		movs	r2, #1
 611 0032 1A61     		str	r2, [r3, #16]
 376:../03_Drivers/STM32L4xx_HAL_Driver/Src/stm32l4xx_hal_flash.c **** 
 612              		.loc 1 376 5 discriminator 4 view .LVU147
 378:../03_Drivers/STM32L4xx_HAL_Driver/Src/stm32l4xx_hal_flash.c ****     {
 613              		.loc 1 378 5 discriminator 4 view .LVU148
 378:../03_Drivers/STM32L4xx_HAL_Driver/Src/stm32l4xx_hal_flash.c ****     {
 614              		.loc 1 378 14 is_stmt 0 discriminator 4 view .LVU149
 615 0034 3A4B     		ldr	r3, .L71+4
 616 0036 1B7A     		ldrb	r3, [r3, #8]	@ zero_extendqisi2
ARM GAS  C:\Users\minde\AppData\Local\Temp\cc31p2l9.s 			page 43


 617 0038 DBB2     		uxtb	r3, r3
 378:../03_Drivers/STM32L4xx_HAL_Driver/Src/stm32l4xx_hal_flash.c ****     {
 618              		.loc 1 378 7 discriminator 4 view .LVU150
 619 003a 9342     		cmp	r3, r2
 620 003c 4AD1     		bne	.L58
 381:../03_Drivers/STM32L4xx_HAL_Driver/Src/stm32l4xx_hal_flash.c **** 
 621              		.loc 1 381 7 is_stmt 1 view .LVU151
 381:../03_Drivers/STM32L4xx_HAL_Driver/Src/stm32l4xx_hal_flash.c **** 
 622              		.loc 1 381 13 is_stmt 0 view .LVU152
 623 003e 384B     		ldr	r3, .L71+4
 624 0040 9A69     		ldr	r2, [r3, #24]
 381:../03_Drivers/STM32L4xx_HAL_Driver/Src/stm32l4xx_hal_flash.c **** 
 625              		.loc 1 381 28 view .LVU153
 626 0042 013A     		subs	r2, r2, #1
 627 0044 9A61     		str	r2, [r3, #24]
 384:../03_Drivers/STM32L4xx_HAL_Driver/Src/stm32l4xx_hal_flash.c ****       {
 628              		.loc 1 384 7 is_stmt 1 view .LVU154
 384:../03_Drivers/STM32L4xx_HAL_Driver/Src/stm32l4xx_hal_flash.c ****       {
 629              		.loc 1 384 16 is_stmt 0 view .LVU155
 630 0046 9B69     		ldr	r3, [r3, #24]
 384:../03_Drivers/STM32L4xx_HAL_Driver/Src/stm32l4xx_hal_flash.c ****       {
 631              		.loc 1 384 9 view .LVU156
 632 0048 002B     		cmp	r3, #0
 633 004a 37D0     		beq	.L59
 387:../03_Drivers/STM32L4xx_HAL_Driver/Src/stm32l4xx_hal_flash.c **** 
 634              		.loc 1 387 9 is_stmt 1 view .LVU157
 635 004c 344C     		ldr	r4, .L71+4
 636 004e 6069     		ldr	r0, [r4, #20]
 637 0050 FFF7FEFF 		bl	HAL_FLASH_EndOfOperationCallback
 638              	.LVL39:
 390:../03_Drivers/STM32L4xx_HAL_Driver/Src/stm32l4xx_hal_flash.c ****         tmp_page = pFlash.Page;
 639              		.loc 1 390 9 view .LVU158
 390:../03_Drivers/STM32L4xx_HAL_Driver/Src/stm32l4xx_hal_flash.c ****         tmp_page = pFlash.Page;
 640              		.loc 1 390 15 is_stmt 0 view .LVU159
 641 0054 6369     		ldr	r3, [r4, #20]
 390:../03_Drivers/STM32L4xx_HAL_Driver/Src/stm32l4xx_hal_flash.c ****         tmp_page = pFlash.Page;
 642              		.loc 1 390 20 view .LVU160
 643 0056 0133     		adds	r3, r3, #1
 644 0058 6361     		str	r3, [r4, #20]
 391:../03_Drivers/STM32L4xx_HAL_Driver/Src/stm32l4xx_hal_flash.c ****         FLASH_PageErase(tmp_page, pFlash.Bank);
 645              		.loc 1 391 9 is_stmt 1 view .LVU161
 391:../03_Drivers/STM32L4xx_HAL_Driver/Src/stm32l4xx_hal_flash.c ****         FLASH_PageErase(tmp_page, pFlash.Bank);
 646              		.loc 1 391 18 is_stmt 0 view .LVU162
 647 005a 6069     		ldr	r0, [r4, #20]
 648              	.LVL40:
 392:../03_Drivers/STM32L4xx_HAL_Driver/Src/stm32l4xx_hal_flash.c ****       }
 649              		.loc 1 392 9 is_stmt 1 view .LVU163
 650 005c 2169     		ldr	r1, [r4, #16]
 651 005e FFF7FEFF 		bl	FLASH_PageErase
 652              	.LVL41:
 392:../03_Drivers/STM32L4xx_HAL_Driver/Src/stm32l4xx_hal_flash.c ****       }
 653              		.loc 1 392 9 is_stmt 0 view .LVU164
 654 0062 45E0     		b	.L57
 655              	.L64:
 331:../03_Drivers/STM32L4xx_HAL_Driver/Src/stm32l4xx_hal_flash.c ****   }
 656              		.loc 1 331 5 is_stmt 1 view .LVU165
 657 0064 5369     		ldr	r3, [r2, #20]
ARM GAS  C:\Users\minde\AppData\Local\Temp\cc31p2l9.s 			page 44


 658 0066 23F48023 		bic	r3, r3, #262144
 659 006a 5361     		str	r3, [r2, #20]
 660 006c D5E7     		b	.L51
 661              	.LVL42:
 662              	.L65:
 340:../03_Drivers/STM32L4xx_HAL_Driver/Src/stm32l4xx_hal_flash.c **** 
 663              		.loc 1 340 5 view .LVU166
 340:../03_Drivers/STM32L4xx_HAL_Driver/Src/stm32l4xx_hal_flash.c **** 
 664              		.loc 1 340 22 is_stmt 0 view .LVU167
 665 006e 2C4C     		ldr	r4, .L71+4
 666 0070 6268     		ldr	r2, [r4, #4]
 667 0072 1A43     		orrs	r2, r2, r3
 668 0074 6260     		str	r2, [r4, #4]
 343:../03_Drivers/STM32L4xx_HAL_Driver/Src/stm32l4xx_hal_flash.c **** 
 669              		.loc 1 343 5 is_stmt 1 view .LVU168
 343:../03_Drivers/STM32L4xx_HAL_Driver/Src/stm32l4xx_hal_flash.c **** 
 670              		.loc 1 343 5 view .LVU169
 343:../03_Drivers/STM32L4xx_HAL_Driver/Src/stm32l4xx_hal_flash.c **** 
 671              		.loc 1 343 5 view .LVU170
 343:../03_Drivers/STM32L4xx_HAL_Driver/Src/stm32l4xx_hal_flash.c **** 
 672              		.loc 1 343 5 view .LVU171
 673 0076 294A     		ldr	r2, .L71
 674 0078 1361     		str	r3, [r2, #16]
 343:../03_Drivers/STM32L4xx_HAL_Driver/Src/stm32l4xx_hal_flash.c **** 
 675              		.loc 1 343 5 view .LVU172
 346:../03_Drivers/STM32L4xx_HAL_Driver/Src/stm32l4xx_hal_flash.c **** 
 676              		.loc 1 346 5 view .LVU173
 677 007a FFF7FEFF 		bl	FLASH_FlushCaches
 678              	.LVL43:
 349:../03_Drivers/STM32L4xx_HAL_Driver/Src/stm32l4xx_hal_flash.c ****     if(procedure == FLASH_PROC_PAGE_ERASE)
 679              		.loc 1 349 5 view .LVU174
 349:../03_Drivers/STM32L4xx_HAL_Driver/Src/stm32l4xx_hal_flash.c ****     if(procedure == FLASH_PROC_PAGE_ERASE)
 680              		.loc 1 349 15 is_stmt 0 view .LVU175
 681 007e 237A     		ldrb	r3, [r4, #8]	@ zero_extendqisi2
 682 0080 DBB2     		uxtb	r3, r3
 683              	.LVL44:
 350:../03_Drivers/STM32L4xx_HAL_Driver/Src/stm32l4xx_hal_flash.c ****     {
 684              		.loc 1 350 5 is_stmt 1 view .LVU176
 350:../03_Drivers/STM32L4xx_HAL_Driver/Src/stm32l4xx_hal_flash.c ****     {
 685              		.loc 1 350 7 is_stmt 0 view .LVU177
 686 0082 012B     		cmp	r3, #1
 687 0084 0CD0     		beq	.L66
 354:../03_Drivers/STM32L4xx_HAL_Driver/Src/stm32l4xx_hal_flash.c ****     {
 688              		.loc 1 354 10 is_stmt 1 view .LVU178
 354:../03_Drivers/STM32L4xx_HAL_Driver/Src/stm32l4xx_hal_flash.c ****     {
 689              		.loc 1 354 12 is_stmt 0 view .LVU179
 690 0086 022B     		cmp	r3, #2
 691 0088 0ED0     		beq	.L67
 358:../03_Drivers/STM32L4xx_HAL_Driver/Src/stm32l4xx_hal_flash.c ****             (procedure == FLASH_PROC_PROGRAM_LAST))
 692              		.loc 1 358 10 is_stmt 1 view .LVU180
 358:../03_Drivers/STM32L4xx_HAL_Driver/Src/stm32l4xx_hal_flash.c ****             (procedure == FLASH_PROC_PROGRAM_LAST))
 693              		.loc 1 358 47 is_stmt 0 view .LVU181
 694 008a 033B     		subs	r3, r3, #3
 695              	.LVL45:
 358:../03_Drivers/STM32L4xx_HAL_Driver/Src/stm32l4xx_hal_flash.c ****             (procedure == FLASH_PROC_PROGRAM_LAST))
 696              		.loc 1 358 47 view .LVU182
 697 008c DBB2     		uxtb	r3, r3
ARM GAS  C:\Users\minde\AppData\Local\Temp\cc31p2l9.s 			page 45


 698              	.LVL46:
 358:../03_Drivers/STM32L4xx_HAL_Driver/Src/stm32l4xx_hal_flash.c ****             (procedure == FLASH_PROC_PROGRAM_LAST))
 699              		.loc 1 358 12 view .LVU183
 700 008e 012B     		cmp	r3, #1
 701 0090 0FD9     		bls	.L68
 365:../03_Drivers/STM32L4xx_HAL_Driver/Src/stm32l4xx_hal_flash.c ****     }
 702              		.loc 1 365 8 is_stmt 1 view .LVU184
 703 0092 0020     		movs	r0, #0
 704 0094 FFF7FEFF 		bl	HAL_FLASH_OperationErrorCallback
 705              	.LVL47:
 706              	.L54:
 369:../03_Drivers/STM32L4xx_HAL_Driver/Src/stm32l4xx_hal_flash.c ****   }
 707              		.loc 1 369 5 view .LVU185
 369:../03_Drivers/STM32L4xx_HAL_Driver/Src/stm32l4xx_hal_flash.c ****   }
 708              		.loc 1 369 29 is_stmt 0 view .LVU186
 709 0098 214B     		ldr	r3, .L71+4
 710 009a 0022     		movs	r2, #0
 711 009c 1A72     		strb	r2, [r3, #8]
 712 009e C1E7     		b	.L52
 713              	.LVL48:
 714              	.L66:
 352:../03_Drivers/STM32L4xx_HAL_Driver/Src/stm32l4xx_hal_flash.c ****     }
 715              		.loc 1 352 8 is_stmt 1 view .LVU187
 716 00a0 6069     		ldr	r0, [r4, #20]
 717 00a2 FFF7FEFF 		bl	HAL_FLASH_OperationErrorCallback
 718              	.LVL49:
 352:../03_Drivers/STM32L4xx_HAL_Driver/Src/stm32l4xx_hal_flash.c ****     }
 719              		.loc 1 352 8 is_stmt 0 view .LVU188
 720 00a6 F7E7     		b	.L54
 721              	.LVL50:
 722              	.L67:
 356:../03_Drivers/STM32L4xx_HAL_Driver/Src/stm32l4xx_hal_flash.c ****     }
 723              		.loc 1 356 9 is_stmt 1 view .LVU189
 724 00a8 1D4B     		ldr	r3, .L71+4
 725              	.LVL51:
 356:../03_Drivers/STM32L4xx_HAL_Driver/Src/stm32l4xx_hal_flash.c ****     }
 726              		.loc 1 356 9 is_stmt 0 view .LVU190
 727 00aa 1869     		ldr	r0, [r3, #16]
 728 00ac FFF7FEFF 		bl	HAL_FLASH_OperationErrorCallback
 729              	.LVL52:
 356:../03_Drivers/STM32L4xx_HAL_Driver/Src/stm32l4xx_hal_flash.c ****     }
 730              		.loc 1 356 9 view .LVU191
 731 00b0 F2E7     		b	.L54
 732              	.LVL53:
 733              	.L68:
 361:../03_Drivers/STM32L4xx_HAL_Driver/Src/stm32l4xx_hal_flash.c ****     }
 734              		.loc 1 361 8 is_stmt 1 view .LVU192
 735 00b2 1B4B     		ldr	r3, .L71+4
 736 00b4 D868     		ldr	r0, [r3, #12]
 737 00b6 FFF7FEFF 		bl	HAL_FLASH_OperationErrorCallback
 738              	.LVL54:
 361:../03_Drivers/STM32L4xx_HAL_Driver/Src/stm32l4xx_hal_flash.c ****     }
 739              		.loc 1 361 8 is_stmt 0 view .LVU193
 740 00ba EDE7     		b	.L54
 741              	.L59:
 398:../03_Drivers/STM32L4xx_HAL_Driver/Src/stm32l4xx_hal_flash.c ****         pFlash.ProcedureOnGoing = FLASH_PROC_NONE;
 742              		.loc 1 398 9 is_stmt 1 view .LVU194
ARM GAS  C:\Users\minde\AppData\Local\Temp\cc31p2l9.s 			page 46


 398:../03_Drivers/STM32L4xx_HAL_Driver/Src/stm32l4xx_hal_flash.c ****         pFlash.ProcedureOnGoing = FLASH_PROC_NONE;
 743              		.loc 1 398 21 is_stmt 0 view .LVU195
 744 00bc 184C     		ldr	r4, .L71+4
 745 00be 4FF0FF33 		mov	r3, #-1
 746 00c2 6361     		str	r3, [r4, #20]
 399:../03_Drivers/STM32L4xx_HAL_Driver/Src/stm32l4xx_hal_flash.c **** 
 747              		.loc 1 399 9 is_stmt 1 view .LVU196
 399:../03_Drivers/STM32L4xx_HAL_Driver/Src/stm32l4xx_hal_flash.c **** 
 748              		.loc 1 399 33 is_stmt 0 view .LVU197
 749 00c4 0023     		movs	r3, #0
 750 00c6 2372     		strb	r3, [r4, #8]
 402:../03_Drivers/STM32L4xx_HAL_Driver/Src/stm32l4xx_hal_flash.c **** 
 751              		.loc 1 402 9 is_stmt 1 view .LVU198
 752 00c8 FFF7FEFF 		bl	FLASH_FlushCaches
 753              	.LVL55:
 405:../03_Drivers/STM32L4xx_HAL_Driver/Src/stm32l4xx_hal_flash.c ****       }
 754              		.loc 1 405 9 view .LVU199
 755 00cc 6069     		ldr	r0, [r4, #20]
 756 00ce FFF7FEFF 		bl	HAL_FLASH_EndOfOperationCallback
 757              	.LVL56:
 758 00d2 0DE0     		b	.L57
 759              	.L58:
 411:../03_Drivers/STM32L4xx_HAL_Driver/Src/stm32l4xx_hal_flash.c **** 
 760              		.loc 1 411 7 view .LVU200
 761 00d4 FFF7FEFF 		bl	FLASH_FlushCaches
 762              	.LVL57:
 413:../03_Drivers/STM32L4xx_HAL_Driver/Src/stm32l4xx_hal_flash.c ****       if(procedure == FLASH_PROC_MASS_ERASE)
 763              		.loc 1 413 7 view .LVU201
 413:../03_Drivers/STM32L4xx_HAL_Driver/Src/stm32l4xx_hal_flash.c ****       if(procedure == FLASH_PROC_MASS_ERASE)
 764              		.loc 1 413 17 is_stmt 0 view .LVU202
 765 00d8 114B     		ldr	r3, .L71+4
 766 00da 1B7A     		ldrb	r3, [r3, #8]	@ zero_extendqisi2
 767 00dc DBB2     		uxtb	r3, r3
 768              	.LVL58:
 414:../03_Drivers/STM32L4xx_HAL_Driver/Src/stm32l4xx_hal_flash.c ****       {
 769              		.loc 1 414 7 is_stmt 1 view .LVU203
 414:../03_Drivers/STM32L4xx_HAL_Driver/Src/stm32l4xx_hal_flash.c ****       {
 770              		.loc 1 414 9 is_stmt 0 view .LVU204
 771 00de 022B     		cmp	r3, #2
 772 00e0 12D0     		beq	.L69
 420:../03_Drivers/STM32L4xx_HAL_Driver/Src/stm32l4xx_hal_flash.c ****               (procedure == FLASH_PROC_PROGRAM_LAST))
 773              		.loc 1 420 12 is_stmt 1 view .LVU205
 420:../03_Drivers/STM32L4xx_HAL_Driver/Src/stm32l4xx_hal_flash.c ****               (procedure == FLASH_PROC_PROGRAM_LAST))
 774              		.loc 1 420 49 is_stmt 0 view .LVU206
 775 00e2 033B     		subs	r3, r3, #3
 776              	.LVL59:
 420:../03_Drivers/STM32L4xx_HAL_Driver/Src/stm32l4xx_hal_flash.c ****               (procedure == FLASH_PROC_PROGRAM_LAST))
 777              		.loc 1 420 49 view .LVU207
 778 00e4 DBB2     		uxtb	r3, r3
 779              	.LVL60:
 420:../03_Drivers/STM32L4xx_HAL_Driver/Src/stm32l4xx_hal_flash.c ****               (procedure == FLASH_PROC_PROGRAM_LAST))
 780              		.loc 1 420 14 view .LVU208
 781 00e6 012B     		cmp	r3, #1
 782 00e8 13D9     		bls	.L70
 783              	.LVL61:
 784              	.L61:
 430:../03_Drivers/STM32L4xx_HAL_Driver/Src/stm32l4xx_hal_flash.c **** 
ARM GAS  C:\Users\minde\AppData\Local\Temp\cc31p2l9.s 			page 47


 785              		.loc 1 430 7 is_stmt 1 view .LVU209
 433:../03_Drivers/STM32L4xx_HAL_Driver/Src/stm32l4xx_hal_flash.c ****     }
 786              		.loc 1 433 7 view .LVU210
 433:../03_Drivers/STM32L4xx_HAL_Driver/Src/stm32l4xx_hal_flash.c ****     }
 787              		.loc 1 433 31 is_stmt 0 view .LVU211
 788 00ea 0D4B     		ldr	r3, .L71+4
 789 00ec 0022     		movs	r2, #0
 790 00ee 1A72     		strb	r2, [r3, #8]
 791              	.L57:
 437:../03_Drivers/STM32L4xx_HAL_Driver/Src/stm32l4xx_hal_flash.c ****   {
 792              		.loc 1 437 3 is_stmt 1 view .LVU212
 437:../03_Drivers/STM32L4xx_HAL_Driver/Src/stm32l4xx_hal_flash.c ****   {
 793              		.loc 1 437 12 is_stmt 0 view .LVU213
 794 00f0 0B4B     		ldr	r3, .L71+4
 795 00f2 1B7A     		ldrb	r3, [r3, #8]	@ zero_extendqisi2
 437:../03_Drivers/STM32L4xx_HAL_Driver/Src/stm32l4xx_hal_flash.c ****   {
 796              		.loc 1 437 5 view .LVU214
 797 00f4 3BB9     		cbnz	r3, .L50
 440:../03_Drivers/STM32L4xx_HAL_Driver/Src/stm32l4xx_hal_flash.c **** 
 798              		.loc 1 440 5 is_stmt 1 discriminator 4 view .LVU215
 440:../03_Drivers/STM32L4xx_HAL_Driver/Src/stm32l4xx_hal_flash.c **** 
 799              		.loc 1 440 5 discriminator 4 view .LVU216
 440:../03_Drivers/STM32L4xx_HAL_Driver/Src/stm32l4xx_hal_flash.c **** 
 800              		.loc 1 440 5 discriminator 4 view .LVU217
 440:../03_Drivers/STM32L4xx_HAL_Driver/Src/stm32l4xx_hal_flash.c **** 
 801              		.loc 1 440 5 discriminator 4 view .LVU218
 802 00f6 094A     		ldr	r2, .L71
 803 00f8 5369     		ldr	r3, [r2, #20]
 804 00fa 23F04073 		bic	r3, r3, #50331648
 805 00fe 5361     		str	r3, [r2, #20]
 440:../03_Drivers/STM32L4xx_HAL_Driver/Src/stm32l4xx_hal_flash.c **** 
 806              		.loc 1 440 5 discriminator 4 view .LVU219
 443:../03_Drivers/STM32L4xx_HAL_Driver/Src/stm32l4xx_hal_flash.c ****   }
 807              		.loc 1 443 5 discriminator 4 view .LVU220
 443:../03_Drivers/STM32L4xx_HAL_Driver/Src/stm32l4xx_hal_flash.c ****   }
 808              		.loc 1 443 5 discriminator 4 view .LVU221
 809 0100 074B     		ldr	r3, .L71+4
 810 0102 0022     		movs	r2, #0
 811 0104 1A70     		strb	r2, [r3]
 443:../03_Drivers/STM32L4xx_HAL_Driver/Src/stm32l4xx_hal_flash.c ****   }
 812              		.loc 1 443 5 discriminator 4 view .LVU222
 813              	.L50:
 445:../03_Drivers/STM32L4xx_HAL_Driver/Src/stm32l4xx_hal_flash.c **** 
 814              		.loc 1 445 1 is_stmt 0 view .LVU223
 815 0106 10BD     		pop	{r4, pc}
 816              	.LVL62:
 817              	.L69:
 418:../03_Drivers/STM32L4xx_HAL_Driver/Src/stm32l4xx_hal_flash.c ****       }
 818              		.loc 1 418 9 is_stmt 1 view .LVU224
 819 0108 054B     		ldr	r3, .L71+4
 820              	.LVL63:
 418:../03_Drivers/STM32L4xx_HAL_Driver/Src/stm32l4xx_hal_flash.c ****       }
 821              		.loc 1 418 9 is_stmt 0 view .LVU225
 822 010a 1869     		ldr	r0, [r3, #16]
 823 010c FFF7FEFF 		bl	HAL_FLASH_EndOfOperationCallback
 824              	.LVL64:
 418:../03_Drivers/STM32L4xx_HAL_Driver/Src/stm32l4xx_hal_flash.c ****       }
ARM GAS  C:\Users\minde\AppData\Local\Temp\cc31p2l9.s 			page 48


 825              		.loc 1 418 9 view .LVU226
 826 0110 EBE7     		b	.L61
 827              	.LVL65:
 828              	.L70:
 425:../03_Drivers/STM32L4xx_HAL_Driver/Src/stm32l4xx_hal_flash.c ****       }
 829              		.loc 1 425 9 is_stmt 1 view .LVU227
 830 0112 034B     		ldr	r3, .L71+4
 831 0114 D868     		ldr	r0, [r3, #12]
 832 0116 FFF7FEFF 		bl	HAL_FLASH_EndOfOperationCallback
 833              	.LVL66:
 425:../03_Drivers/STM32L4xx_HAL_Driver/Src/stm32l4xx_hal_flash.c ****       }
 834              		.loc 1 425 9 is_stmt 0 view .LVU228
 835 011a E6E7     		b	.L61
 836              	.L72:
 837              		.align	2
 838              	.L71:
 839 011c 00200240 		.word	1073881088
 840 0120 00000000 		.word	.LANCHOR0
 841 0124 FAC30200 		.word	181242
 842              		.cfi_endproc
 843              	.LFE290:
 845              		.section	.text.HAL_FLASH_Unlock,"ax",%progbits
 846              		.align	1
 847              		.global	HAL_FLASH_Unlock
 848              		.syntax unified
 849              		.thumb
 850              		.thumb_func
 851              		.fpu fpv4-sp-d16
 853              	HAL_FLASH_Unlock:
 854              	.LFB293:
 508:../03_Drivers/STM32L4xx_HAL_Driver/Src/stm32l4xx_hal_flash.c ****   HAL_StatusTypeDef status = HAL_OK;
 855              		.loc 1 508 1 is_stmt 1 view -0
 856              		.cfi_startproc
 857              		@ args = 0, pretend = 0, frame = 0
 858              		@ frame_needed = 0, uses_anonymous_args = 0
 859              		@ link register save eliminated.
 509:../03_Drivers/STM32L4xx_HAL_Driver/Src/stm32l4xx_hal_flash.c **** 
 860              		.loc 1 509 3 view .LVU230
 861              	.LVL67:
 511:../03_Drivers/STM32L4xx_HAL_Driver/Src/stm32l4xx_hal_flash.c ****   {
 862              		.loc 1 511 3 view .LVU231
 511:../03_Drivers/STM32L4xx_HAL_Driver/Src/stm32l4xx_hal_flash.c ****   {
 863              		.loc 1 511 6 is_stmt 0 view .LVU232
 864 0000 094B     		ldr	r3, .L78
 865 0002 5B69     		ldr	r3, [r3, #20]
 511:../03_Drivers/STM32L4xx_HAL_Driver/Src/stm32l4xx_hal_flash.c ****   {
 866              		.loc 1 511 5 view .LVU233
 867 0004 002B     		cmp	r3, #0
 868 0006 01DB     		blt	.L77
 509:../03_Drivers/STM32L4xx_HAL_Driver/Src/stm32l4xx_hal_flash.c **** 
 869              		.loc 1 509 21 view .LVU234
 870 0008 0020     		movs	r0, #0
 871 000a 7047     		bx	lr
 872              	.L77:
 514:../03_Drivers/STM32L4xx_HAL_Driver/Src/stm32l4xx_hal_flash.c ****     WRITE_REG(FLASH->KEYR, FLASH_KEY2);
 873              		.loc 1 514 5 is_stmt 1 view .LVU235
 874 000c 064B     		ldr	r3, .L78
ARM GAS  C:\Users\minde\AppData\Local\Temp\cc31p2l9.s 			page 49


 875 000e 074A     		ldr	r2, .L78+4
 876 0010 9A60     		str	r2, [r3, #8]
 515:../03_Drivers/STM32L4xx_HAL_Driver/Src/stm32l4xx_hal_flash.c **** 
 877              		.loc 1 515 5 view .LVU236
 878 0012 02F18832 		add	r2, r2, #-2004318072
 879 0016 9A60     		str	r2, [r3, #8]
 518:../03_Drivers/STM32L4xx_HAL_Driver/Src/stm32l4xx_hal_flash.c ****     {
 880              		.loc 1 518 5 view .LVU237
 518:../03_Drivers/STM32L4xx_HAL_Driver/Src/stm32l4xx_hal_flash.c ****     {
 881              		.loc 1 518 8 is_stmt 0 view .LVU238
 882 0018 5B69     		ldr	r3, [r3, #20]
 518:../03_Drivers/STM32L4xx_HAL_Driver/Src/stm32l4xx_hal_flash.c ****     {
 883              		.loc 1 518 7 view .LVU239
 884 001a 002B     		cmp	r3, #0
 885 001c 01DB     		blt	.L76
 509:../03_Drivers/STM32L4xx_HAL_Driver/Src/stm32l4xx_hal_flash.c **** 
 886              		.loc 1 509 21 view .LVU240
 887 001e 0020     		movs	r0, #0
 888 0020 7047     		bx	lr
 889              	.L76:
 520:../03_Drivers/STM32L4xx_HAL_Driver/Src/stm32l4xx_hal_flash.c ****     }
 890              		.loc 1 520 14 view .LVU241
 891 0022 0120     		movs	r0, #1
 892              	.LVL68:
 524:../03_Drivers/STM32L4xx_HAL_Driver/Src/stm32l4xx_hal_flash.c **** }
 893              		.loc 1 524 3 is_stmt 1 view .LVU242
 525:../03_Drivers/STM32L4xx_HAL_Driver/Src/stm32l4xx_hal_flash.c **** 
 894              		.loc 1 525 1 is_stmt 0 view .LVU243
 895 0024 7047     		bx	lr
 896              	.L79:
 897 0026 00BF     		.align	2
 898              	.L78:
 899 0028 00200240 		.word	1073881088
 900 002c 23016745 		.word	1164378403
 901              		.cfi_endproc
 902              	.LFE293:
 904              		.section	.text.HAL_FLASH_Lock,"ax",%progbits
 905              		.align	1
 906              		.global	HAL_FLASH_Lock
 907              		.syntax unified
 908              		.thumb
 909              		.thumb_func
 910              		.fpu fpv4-sp-d16
 912              	HAL_FLASH_Lock:
 913              	.LFB294:
 532:../03_Drivers/STM32L4xx_HAL_Driver/Src/stm32l4xx_hal_flash.c ****   /* Set the LOCK Bit to lock the FLASH Registers access */
 914              		.loc 1 532 1 is_stmt 1 view -0
 915              		.cfi_startproc
 916              		@ args = 0, pretend = 0, frame = 0
 917              		@ frame_needed = 0, uses_anonymous_args = 0
 918              		@ link register save eliminated.
 534:../03_Drivers/STM32L4xx_HAL_Driver/Src/stm32l4xx_hal_flash.c **** 
 919              		.loc 1 534 3 view .LVU245
 920 0000 034A     		ldr	r2, .L81
 921 0002 5369     		ldr	r3, [r2, #20]
 922 0004 43F00043 		orr	r3, r3, #-2147483648
 923 0008 5361     		str	r3, [r2, #20]
ARM GAS  C:\Users\minde\AppData\Local\Temp\cc31p2l9.s 			page 50


 536:../03_Drivers/STM32L4xx_HAL_Driver/Src/stm32l4xx_hal_flash.c **** }
 924              		.loc 1 536 3 view .LVU246
 537:../03_Drivers/STM32L4xx_HAL_Driver/Src/stm32l4xx_hal_flash.c **** 
 925              		.loc 1 537 1 is_stmt 0 view .LVU247
 926 000a 0020     		movs	r0, #0
 927 000c 7047     		bx	lr
 928              	.L82:
 929 000e 00BF     		.align	2
 930              	.L81:
 931 0010 00200240 		.word	1073881088
 932              		.cfi_endproc
 933              	.LFE294:
 935              		.section	.text.HAL_FLASH_OB_Unlock,"ax",%progbits
 936              		.align	1
 937              		.global	HAL_FLASH_OB_Unlock
 938              		.syntax unified
 939              		.thumb
 940              		.thumb_func
 941              		.fpu fpv4-sp-d16
 943              	HAL_FLASH_OB_Unlock:
 944              	.LFB295:
 544:../03_Drivers/STM32L4xx_HAL_Driver/Src/stm32l4xx_hal_flash.c ****   if(READ_BIT(FLASH->CR, FLASH_CR_OPTLOCK) != 0U)
 945              		.loc 1 544 1 is_stmt 1 view -0
 946              		.cfi_startproc
 947              		@ args = 0, pretend = 0, frame = 0
 948              		@ frame_needed = 0, uses_anonymous_args = 0
 949              		@ link register save eliminated.
 545:../03_Drivers/STM32L4xx_HAL_Driver/Src/stm32l4xx_hal_flash.c ****   {
 950              		.loc 1 545 3 view .LVU249
 545:../03_Drivers/STM32L4xx_HAL_Driver/Src/stm32l4xx_hal_flash.c ****   {
 951              		.loc 1 545 6 is_stmt 0 view .LVU250
 952 0000 074B     		ldr	r3, .L86
 953 0002 5B69     		ldr	r3, [r3, #20]
 545:../03_Drivers/STM32L4xx_HAL_Driver/Src/stm32l4xx_hal_flash.c ****   {
 954              		.loc 1 545 5 view .LVU251
 955 0004 13F0804F 		tst	r3, #1073741824
 956 0008 07D0     		beq	.L85
 548:../03_Drivers/STM32L4xx_HAL_Driver/Src/stm32l4xx_hal_flash.c ****     WRITE_REG(FLASH->OPTKEYR, FLASH_OPTKEY2);
 957              		.loc 1 548 5 is_stmt 1 view .LVU252
 958 000a 054B     		ldr	r3, .L86
 959 000c 054A     		ldr	r2, .L86+4
 960 000e DA60     		str	r2, [r3, #12]
 549:../03_Drivers/STM32L4xx_HAL_Driver/Src/stm32l4xx_hal_flash.c ****   }
 961              		.loc 1 549 5 view .LVU253
 962 0010 02F14432 		add	r2, r2, #1145324612
 963 0014 DA60     		str	r2, [r3, #12]
 556:../03_Drivers/STM32L4xx_HAL_Driver/Src/stm32l4xx_hal_flash.c **** }
 964              		.loc 1 556 3 view .LVU254
 556:../03_Drivers/STM32L4xx_HAL_Driver/Src/stm32l4xx_hal_flash.c **** }
 965              		.loc 1 556 10 is_stmt 0 view .LVU255
 966 0016 0020     		movs	r0, #0
 967 0018 7047     		bx	lr
 968              	.L85:
 553:../03_Drivers/STM32L4xx_HAL_Driver/Src/stm32l4xx_hal_flash.c ****   }
 969              		.loc 1 553 12 view .LVU256
 970 001a 0120     		movs	r0, #1
 557:../03_Drivers/STM32L4xx_HAL_Driver/Src/stm32l4xx_hal_flash.c **** 
ARM GAS  C:\Users\minde\AppData\Local\Temp\cc31p2l9.s 			page 51


 971              		.loc 1 557 1 view .LVU257
 972 001c 7047     		bx	lr
 973              	.L87:
 974 001e 00BF     		.align	2
 975              	.L86:
 976 0020 00200240 		.word	1073881088
 977 0024 3B2A1908 		.word	135866939
 978              		.cfi_endproc
 979              	.LFE295:
 981              		.section	.text.HAL_FLASH_OB_Lock,"ax",%progbits
 982              		.align	1
 983              		.global	HAL_FLASH_OB_Lock
 984              		.syntax unified
 985              		.thumb
 986              		.thumb_func
 987              		.fpu fpv4-sp-d16
 989              	HAL_FLASH_OB_Lock:
 990              	.LFB296:
 564:../03_Drivers/STM32L4xx_HAL_Driver/Src/stm32l4xx_hal_flash.c ****   /* Set the OPTLOCK Bit to lock the FLASH Option Byte Registers access */
 991              		.loc 1 564 1 is_stmt 1 view -0
 992              		.cfi_startproc
 993              		@ args = 0, pretend = 0, frame = 0
 994              		@ frame_needed = 0, uses_anonymous_args = 0
 995              		@ link register save eliminated.
 566:../03_Drivers/STM32L4xx_HAL_Driver/Src/stm32l4xx_hal_flash.c **** 
 996              		.loc 1 566 3 view .LVU259
 997 0000 034A     		ldr	r2, .L89
 998 0002 5369     		ldr	r3, [r2, #20]
 999 0004 43F08043 		orr	r3, r3, #1073741824
 1000 0008 5361     		str	r3, [r2, #20]
 568:../03_Drivers/STM32L4xx_HAL_Driver/Src/stm32l4xx_hal_flash.c **** }
 1001              		.loc 1 568 3 view .LVU260
 569:../03_Drivers/STM32L4xx_HAL_Driver/Src/stm32l4xx_hal_flash.c **** 
 1002              		.loc 1 569 1 is_stmt 0 view .LVU261
 1003 000a 0020     		movs	r0, #0
 1004 000c 7047     		bx	lr
 1005              	.L90:
 1006 000e 00BF     		.align	2
 1007              	.L89:
 1008 0010 00200240 		.word	1073881088
 1009              		.cfi_endproc
 1010              	.LFE296:
 1012              		.section	.text.HAL_FLASH_GetError,"ax",%progbits
 1013              		.align	1
 1014              		.global	HAL_FLASH_GetError
 1015              		.syntax unified
 1016              		.thumb
 1017              		.thumb_func
 1018              		.fpu fpv4-sp-d16
 1020              	HAL_FLASH_GetError:
 1021              	.LFB298:
 625:../03_Drivers/STM32L4xx_HAL_Driver/Src/stm32l4xx_hal_flash.c ****    return pFlash.ErrorCode;
 1022              		.loc 1 625 1 is_stmt 1 view -0
 1023              		.cfi_startproc
 1024              		@ args = 0, pretend = 0, frame = 0
 1025              		@ frame_needed = 0, uses_anonymous_args = 0
 1026              		@ link register save eliminated.
ARM GAS  C:\Users\minde\AppData\Local\Temp\cc31p2l9.s 			page 52


 626:../03_Drivers/STM32L4xx_HAL_Driver/Src/stm32l4xx_hal_flash.c **** }
 1027              		.loc 1 626 4 view .LVU263
 626:../03_Drivers/STM32L4xx_HAL_Driver/Src/stm32l4xx_hal_flash.c **** }
 1028              		.loc 1 626 17 is_stmt 0 view .LVU264
 1029 0000 014B     		ldr	r3, .L92
 1030 0002 5868     		ldr	r0, [r3, #4]
 627:../03_Drivers/STM32L4xx_HAL_Driver/Src/stm32l4xx_hal_flash.c **** 
 1031              		.loc 1 627 1 view .LVU265
 1032 0004 7047     		bx	lr
 1033              	.L93:
 1034 0006 00BF     		.align	2
 1035              	.L92:
 1036 0008 00000000 		.word	.LANCHOR0
 1037              		.cfi_endproc
 1038              	.LFE298:
 1040              		.section	.text.FLASH_WaitForLastOperation,"ax",%progbits
 1041              		.align	1
 1042              		.global	FLASH_WaitForLastOperation
 1043              		.syntax unified
 1044              		.thumb
 1045              		.thumb_func
 1046              		.fpu fpv4-sp-d16
 1048              	FLASH_WaitForLastOperation:
 1049              	.LVL69:
 1050              	.LFB299:
 649:../03_Drivers/STM32L4xx_HAL_Driver/Src/stm32l4xx_hal_flash.c ****   /* Wait for the FLASH operation to complete by polling on BUSY flag to be reset.
 1051              		.loc 1 649 1 is_stmt 1 view -0
 1052              		.cfi_startproc
 1053              		@ args = 0, pretend = 0, frame = 0
 1054              		@ frame_needed = 0, uses_anonymous_args = 0
 649:../03_Drivers/STM32L4xx_HAL_Driver/Src/stm32l4xx_hal_flash.c ****   /* Wait for the FLASH operation to complete by polling on BUSY flag to be reset.
 1055              		.loc 1 649 1 is_stmt 0 view .LVU267
 1056 0000 38B5     		push	{r3, r4, r5, lr}
 1057              	.LCFI4:
 1058              		.cfi_def_cfa_offset 16
 1059              		.cfi_offset 3, -16
 1060              		.cfi_offset 4, -12
 1061              		.cfi_offset 5, -8
 1062              		.cfi_offset 14, -4
 1063 0002 0446     		mov	r4, r0
 654:../03_Drivers/STM32L4xx_HAL_Driver/Src/stm32l4xx_hal_flash.c ****   uint32_t error;
 1064              		.loc 1 654 3 is_stmt 1 view .LVU268
 654:../03_Drivers/STM32L4xx_HAL_Driver/Src/stm32l4xx_hal_flash.c ****   uint32_t error;
 1065              		.loc 1 654 24 is_stmt 0 view .LVU269
 1066 0004 FFF7FEFF 		bl	HAL_GetTick
 1067              	.LVL70:
 654:../03_Drivers/STM32L4xx_HAL_Driver/Src/stm32l4xx_hal_flash.c ****   uint32_t error;
 1068              		.loc 1 654 24 view .LVU270
 1069 0008 0546     		mov	r5, r0
 1070              	.LVL71:
 655:../03_Drivers/STM32L4xx_HAL_Driver/Src/stm32l4xx_hal_flash.c **** 
 1071              		.loc 1 655 3 is_stmt 1 view .LVU271
 657:../03_Drivers/STM32L4xx_HAL_Driver/Src/stm32l4xx_hal_flash.c ****   {
 1072              		.loc 1 657 3 view .LVU272
 1073              	.L96:
 657:../03_Drivers/STM32L4xx_HAL_Driver/Src/stm32l4xx_hal_flash.c ****   {
 1074              		.loc 1 657 8 view .LVU273
ARM GAS  C:\Users\minde\AppData\Local\Temp\cc31p2l9.s 			page 53


 657:../03_Drivers/STM32L4xx_HAL_Driver/Src/stm32l4xx_hal_flash.c ****   {
 1075              		.loc 1 657 9 is_stmt 0 view .LVU274
 1076 000a 144B     		ldr	r3, .L105
 1077 000c 1B69     		ldr	r3, [r3, #16]
 657:../03_Drivers/STM32L4xx_HAL_Driver/Src/stm32l4xx_hal_flash.c ****   {
 1078              		.loc 1 657 8 view .LVU275
 1079 000e 13F4803F 		tst	r3, #65536
 1080 0012 09D0     		beq	.L103
 659:../03_Drivers/STM32L4xx_HAL_Driver/Src/stm32l4xx_hal_flash.c ****     {
 1081              		.loc 1 659 5 is_stmt 1 view .LVU276
 659:../03_Drivers/STM32L4xx_HAL_Driver/Src/stm32l4xx_hal_flash.c ****     {
 1082              		.loc 1 659 7 is_stmt 0 view .LVU277
 1083 0014 B4F1FF3F 		cmp	r4, #-1
 1084 0018 F7D0     		beq	.L96
 661:../03_Drivers/STM32L4xx_HAL_Driver/Src/stm32l4xx_hal_flash.c ****       {
 1085              		.loc 1 661 7 is_stmt 1 view .LVU278
 661:../03_Drivers/STM32L4xx_HAL_Driver/Src/stm32l4xx_hal_flash.c ****       {
 1086              		.loc 1 661 11 is_stmt 0 view .LVU279
 1087 001a FFF7FEFF 		bl	HAL_GetTick
 1088              	.LVL72:
 661:../03_Drivers/STM32L4xx_HAL_Driver/Src/stm32l4xx_hal_flash.c ****       {
 1089              		.loc 1 661 25 view .LVU280
 1090 001e 401B     		subs	r0, r0, r5
 661:../03_Drivers/STM32L4xx_HAL_Driver/Src/stm32l4xx_hal_flash.c ****       {
 1091              		.loc 1 661 9 view .LVU281
 1092 0020 A042     		cmp	r0, r4
 1093 0022 F2D3     		bcc	.L96
 663:../03_Drivers/STM32L4xx_HAL_Driver/Src/stm32l4xx_hal_flash.c ****       }
 1094              		.loc 1 663 16 view .LVU282
 1095 0024 0320     		movs	r0, #3
 1096 0026 15E0     		b	.L97
 1097              	.L103:
 668:../03_Drivers/STM32L4xx_HAL_Driver/Src/stm32l4xx_hal_flash.c **** 
 1098              		.loc 1 668 3 is_stmt 1 view .LVU283
 668:../03_Drivers/STM32L4xx_HAL_Driver/Src/stm32l4xx_hal_flash.c **** 
 1099              		.loc 1 668 17 is_stmt 0 view .LVU284
 1100 0028 0C4B     		ldr	r3, .L105
 1101 002a 1B69     		ldr	r3, [r3, #16]
 668:../03_Drivers/STM32L4xx_HAL_Driver/Src/stm32l4xx_hal_flash.c **** 
 1102              		.loc 1 668 9 view .LVU285
 1103 002c 0C4A     		ldr	r2, .L105+4
 1104              	.LVL73:
 670:../03_Drivers/STM32L4xx_HAL_Driver/Src/stm32l4xx_hal_flash.c ****   {
 1105              		.loc 1 670 3 is_stmt 1 view .LVU286
 670:../03_Drivers/STM32L4xx_HAL_Driver/Src/stm32l4xx_hal_flash.c ****   {
 1106              		.loc 1 670 5 is_stmt 0 view .LVU287
 1107 002e 1340     		ands	r3, r3, r2
 1108              	.LVL74:
 670:../03_Drivers/STM32L4xx_HAL_Driver/Src/stm32l4xx_hal_flash.c ****   {
 1109              		.loc 1 670 5 view .LVU288
 1110 0030 09D1     		bne	.L104
 682:../03_Drivers/STM32L4xx_HAL_Driver/Src/stm32l4xx_hal_flash.c ****   {
 1111              		.loc 1 682 3 is_stmt 1 view .LVU289
 682:../03_Drivers/STM32L4xx_HAL_Driver/Src/stm32l4xx_hal_flash.c ****   {
 1112              		.loc 1 682 7 is_stmt 0 view .LVU290
 1113 0032 0A4B     		ldr	r3, .L105
 1114              	.LVL75:
ARM GAS  C:\Users\minde\AppData\Local\Temp\cc31p2l9.s 			page 54


 682:../03_Drivers/STM32L4xx_HAL_Driver/Src/stm32l4xx_hal_flash.c ****   {
 1115              		.loc 1 682 7 view .LVU291
 1116 0034 1B69     		ldr	r3, [r3, #16]
 682:../03_Drivers/STM32L4xx_HAL_Driver/Src/stm32l4xx_hal_flash.c ****   {
 1117              		.loc 1 682 6 view .LVU292
 1118 0036 13F0010F 		tst	r3, #1
 1119 003a 0CD0     		beq	.L101
 685:../03_Drivers/STM32L4xx_HAL_Driver/Src/stm32l4xx_hal_flash.c ****   }
 1120              		.loc 1 685 5 is_stmt 1 discriminator 4 view .LVU293
 685:../03_Drivers/STM32L4xx_HAL_Driver/Src/stm32l4xx_hal_flash.c ****   }
 1121              		.loc 1 685 5 discriminator 4 view .LVU294
 685:../03_Drivers/STM32L4xx_HAL_Driver/Src/stm32l4xx_hal_flash.c ****   }
 1122              		.loc 1 685 5 discriminator 4 view .LVU295
 685:../03_Drivers/STM32L4xx_HAL_Driver/Src/stm32l4xx_hal_flash.c ****   }
 1123              		.loc 1 685 5 discriminator 4 view .LVU296
 1124 003c 074B     		ldr	r3, .L105
 1125 003e 0122     		movs	r2, #1
 1126 0040 1A61     		str	r2, [r3, #16]
 689:../03_Drivers/STM32L4xx_HAL_Driver/Src/stm32l4xx_hal_flash.c **** }
 1127              		.loc 1 689 10 is_stmt 0 discriminator 4 view .LVU297
 1128 0042 0020     		movs	r0, #0
 1129 0044 06E0     		b	.L97
 1130              	.LVL76:
 1131              	.L104:
 673:../03_Drivers/STM32L4xx_HAL_Driver/Src/stm32l4xx_hal_flash.c **** 
 1132              		.loc 1 673 5 is_stmt 1 view .LVU298
 673:../03_Drivers/STM32L4xx_HAL_Driver/Src/stm32l4xx_hal_flash.c **** 
 1133              		.loc 1 673 22 is_stmt 0 view .LVU299
 1134 0046 0749     		ldr	r1, .L105+8
 1135 0048 4A68     		ldr	r2, [r1, #4]
 1136 004a 1A43     		orrs	r2, r2, r3
 1137 004c 4A60     		str	r2, [r1, #4]
 676:../03_Drivers/STM32L4xx_HAL_Driver/Src/stm32l4xx_hal_flash.c **** 
 1138              		.loc 1 676 5 is_stmt 1 view .LVU300
 676:../03_Drivers/STM32L4xx_HAL_Driver/Src/stm32l4xx_hal_flash.c **** 
 1139              		.loc 1 676 5 view .LVU301
 676:../03_Drivers/STM32L4xx_HAL_Driver/Src/stm32l4xx_hal_flash.c **** 
 1140              		.loc 1 676 5 view .LVU302
 676:../03_Drivers/STM32L4xx_HAL_Driver/Src/stm32l4xx_hal_flash.c **** 
 1141              		.loc 1 676 5 view .LVU303
 1142 004e 034A     		ldr	r2, .L105
 1143 0050 1361     		str	r3, [r2, #16]
 676:../03_Drivers/STM32L4xx_HAL_Driver/Src/stm32l4xx_hal_flash.c **** 
 1144              		.loc 1 676 5 view .LVU304
 678:../03_Drivers/STM32L4xx_HAL_Driver/Src/stm32l4xx_hal_flash.c ****   }
 1145              		.loc 1 678 5 view .LVU305
 678:../03_Drivers/STM32L4xx_HAL_Driver/Src/stm32l4xx_hal_flash.c ****   }
 1146              		.loc 1 678 12 is_stmt 0 view .LVU306
 1147 0052 0120     		movs	r0, #1
 1148              	.LVL77:
 1149              	.L97:
 690:../03_Drivers/STM32L4xx_HAL_Driver/Src/stm32l4xx_hal_flash.c **** 
 1150              		.loc 1 690 1 view .LVU307
 1151 0054 38BD     		pop	{r3, r4, r5, pc}
 1152              	.LVL78:
 1153              	.L101:
 689:../03_Drivers/STM32L4xx_HAL_Driver/Src/stm32l4xx_hal_flash.c **** }
ARM GAS  C:\Users\minde\AppData\Local\Temp\cc31p2l9.s 			page 55


 1154              		.loc 1 689 10 view .LVU308
 1155 0056 0020     		movs	r0, #0
 1156 0058 FCE7     		b	.L97
 1157              	.L106:
 1158 005a 00BF     		.align	2
 1159              	.L105:
 1160 005c 00200240 		.word	1073881088
 1161 0060 FAC30200 		.word	181242
 1162 0064 00000000 		.word	.LANCHOR0
 1163              		.cfi_endproc
 1164              	.LFE299:
 1166              		.section	.text.HAL_FLASH_Program,"ax",%progbits
 1167              		.align	1
 1168              		.global	HAL_FLASH_Program
 1169              		.syntax unified
 1170              		.thumb
 1171              		.thumb_func
 1172              		.fpu fpv4-sp-d16
 1174              	HAL_FLASH_Program:
 1175              	.LVL79:
 1176              	.LFB288:
 172:../03_Drivers/STM32L4xx_HAL_Driver/Src/stm32l4xx_hal_flash.c ****   HAL_StatusTypeDef status;
 1177              		.loc 1 172 1 is_stmt 1 view -0
 1178              		.cfi_startproc
 1179              		@ args = 0, pretend = 0, frame = 0
 1180              		@ frame_needed = 0, uses_anonymous_args = 0
 172:../03_Drivers/STM32L4xx_HAL_Driver/Src/stm32l4xx_hal_flash.c ****   HAL_StatusTypeDef status;
 1181              		.loc 1 172 1 is_stmt 0 view .LVU310
 1182 0000 2DE9F041 		push	{r4, r5, r6, r7, r8, lr}
 1183              	.LCFI5:
 1184              		.cfi_def_cfa_offset 24
 1185              		.cfi_offset 4, -24
 1186              		.cfi_offset 5, -20
 1187              		.cfi_offset 6, -16
 1188              		.cfi_offset 7, -12
 1189              		.cfi_offset 8, -8
 1190              		.cfi_offset 14, -4
 1191 0004 1746     		mov	r7, r2
 173:../03_Drivers/STM32L4xx_HAL_Driver/Src/stm32l4xx_hal_flash.c ****   uint32_t prog_bit = 0;
 1192              		.loc 1 173 3 is_stmt 1 view .LVU311
 174:../03_Drivers/STM32L4xx_HAL_Driver/Src/stm32l4xx_hal_flash.c **** 
 1193              		.loc 1 174 3 view .LVU312
 1194              	.LVL80:
 177:../03_Drivers/STM32L4xx_HAL_Driver/Src/stm32l4xx_hal_flash.c **** 
 1195              		.loc 1 177 3 view .LVU313
 177:../03_Drivers/STM32L4xx_HAL_Driver/Src/stm32l4xx_hal_flash.c **** 
 1196              		.loc 1 177 3 view .LVU314
 1197 0006 2B4A     		ldr	r2, .L123
 1198              	.LVL81:
 177:../03_Drivers/STM32L4xx_HAL_Driver/Src/stm32l4xx_hal_flash.c **** 
 1199              		.loc 1 177 3 is_stmt 0 view .LVU315
 1200 0008 1278     		ldrb	r2, [r2]	@ zero_extendqisi2
 1201 000a 012A     		cmp	r2, #1
 1202 000c 50D0     		beq	.L116
 1203 000e 0446     		mov	r4, r0
 1204 0010 0E46     		mov	r6, r1
 1205 0012 9846     		mov	r8, r3
ARM GAS  C:\Users\minde\AppData\Local\Temp\cc31p2l9.s 			page 56


 177:../03_Drivers/STM32L4xx_HAL_Driver/Src/stm32l4xx_hal_flash.c **** 
 1206              		.loc 1 177 3 is_stmt 1 discriminator 2 view .LVU316
 1207 0014 274B     		ldr	r3, .L123
 1208 0016 0122     		movs	r2, #1
 1209 0018 1A70     		strb	r2, [r3]
 177:../03_Drivers/STM32L4xx_HAL_Driver/Src/stm32l4xx_hal_flash.c **** 
 1210              		.loc 1 177 3 discriminator 2 view .LVU317
 180:../03_Drivers/STM32L4xx_HAL_Driver/Src/stm32l4xx_hal_flash.c **** 
 1211              		.loc 1 180 3 discriminator 2 view .LVU318
 1212 001a 0228     		cmp	r0, #2
 1213 001c 2DD8     		bhi	.L120
 1214              	.LVL82:
 1215              	.L109:
 183:../03_Drivers/STM32L4xx_HAL_Driver/Src/stm32l4xx_hal_flash.c **** 
 1216              		.loc 1 183 3 view .LVU319
 183:../03_Drivers/STM32L4xx_HAL_Driver/Src/stm32l4xx_hal_flash.c **** 
 1217              		.loc 1 183 12 is_stmt 0 view .LVU320
 1218 001e 4CF25030 		movw	r0, #50000
 1219 0022 FFF7FEFF 		bl	FLASH_WaitForLastOperation
 1220              	.LVL83:
 185:../03_Drivers/STM32L4xx_HAL_Driver/Src/stm32l4xx_hal_flash.c ****   {
 1221              		.loc 1 185 3 is_stmt 1 view .LVU321
 185:../03_Drivers/STM32L4xx_HAL_Driver/Src/stm32l4xx_hal_flash.c ****   {
 1222              		.loc 1 185 5 is_stmt 0 view .LVU322
 1223 0026 0546     		mov	r5, r0
 1224 0028 08BB     		cbnz	r0, .L110
 187:../03_Drivers/STM32L4xx_HAL_Driver/Src/stm32l4xx_hal_flash.c **** 
 1225              		.loc 1 187 5 is_stmt 1 view .LVU323
 187:../03_Drivers/STM32L4xx_HAL_Driver/Src/stm32l4xx_hal_flash.c **** 
 1226              		.loc 1 187 22 is_stmt 0 view .LVU324
 1227 002a 224B     		ldr	r3, .L123
 1228 002c 0022     		movs	r2, #0
 1229 002e 5A60     		str	r2, [r3, #4]
 190:../03_Drivers/STM32L4xx_HAL_Driver/Src/stm32l4xx_hal_flash.c ****     {
 1230              		.loc 1 190 5 is_stmt 1 view .LVU325
 190:../03_Drivers/STM32L4xx_HAL_Driver/Src/stm32l4xx_hal_flash.c ****     {
 1231              		.loc 1 190 8 is_stmt 0 view .LVU326
 1232 0030 214B     		ldr	r3, .L123+4
 1233 0032 1B68     		ldr	r3, [r3]
 190:../03_Drivers/STM32L4xx_HAL_Driver/Src/stm32l4xx_hal_flash.c ****     {
 1234              		.loc 1 190 7 view .LVU327
 1235 0034 13F4806F 		tst	r3, #1024
 1236 0038 24D0     		beq	.L111
 193:../03_Drivers/STM32L4xx_HAL_Driver/Src/stm32l4xx_hal_flash.c ****       pFlash.CacheToReactivate = FLASH_CACHE_DCACHE_ENABLED;
 1237              		.loc 1 193 7 is_stmt 1 view .LVU328
 1238 003a 1F4A     		ldr	r2, .L123+4
 1239 003c 1368     		ldr	r3, [r2]
 1240 003e 23F48063 		bic	r3, r3, #1024
 1241 0042 1360     		str	r3, [r2]
 194:../03_Drivers/STM32L4xx_HAL_Driver/Src/stm32l4xx_hal_flash.c ****     }
 1242              		.loc 1 194 7 view .LVU329
 194:../03_Drivers/STM32L4xx_HAL_Driver/Src/stm32l4xx_hal_flash.c ****     }
 1243              		.loc 1 194 32 is_stmt 0 view .LVU330
 1244 0044 1B4B     		ldr	r3, .L123
 1245 0046 0222     		movs	r2, #2
 1246 0048 1A77     		strb	r2, [r3, #28]
 1247              	.L112:
ARM GAS  C:\Users\minde\AppData\Local\Temp\cc31p2l9.s 			page 57


 201:../03_Drivers/STM32L4xx_HAL_Driver/Src/stm32l4xx_hal_flash.c ****     {
 1248              		.loc 1 201 5 is_stmt 1 view .LVU331
 201:../03_Drivers/STM32L4xx_HAL_Driver/Src/stm32l4xx_hal_flash.c ****     {
 1249              		.loc 1 201 7 is_stmt 0 view .LVU332
 1250 004a FCB1     		cbz	r4, .L121
 207:../03_Drivers/STM32L4xx_HAL_Driver/Src/stm32l4xx_hal_flash.c ****     {
 1251              		.loc 1 207 10 is_stmt 1 view .LVU333
 207:../03_Drivers/STM32L4xx_HAL_Driver/Src/stm32l4xx_hal_flash.c ****     {
 1252              		.loc 1 207 53 is_stmt 0 view .LVU334
 1253 004c 631E     		subs	r3, r4, #1
 207:../03_Drivers/STM32L4xx_HAL_Driver/Src/stm32l4xx_hal_flash.c ****     {
 1254              		.loc 1 207 12 view .LVU335
 1255 004e 012B     		cmp	r3, #1
 1256 0050 23D9     		bls	.L122
 174:../03_Drivers/STM32L4xx_HAL_Driver/Src/stm32l4xx_hal_flash.c **** 
 1257              		.loc 1 174 12 view .LVU336
 1258 0052 0024     		movs	r4, #0
 1259              	.LVL84:
 1260              	.L114:
 221:../03_Drivers/STM32L4xx_HAL_Driver/Src/stm32l4xx_hal_flash.c **** 
 1261              		.loc 1 221 5 is_stmt 1 view .LVU337
 224:../03_Drivers/STM32L4xx_HAL_Driver/Src/stm32l4xx_hal_flash.c **** 
 1262              		.loc 1 224 5 view .LVU338
 224:../03_Drivers/STM32L4xx_HAL_Driver/Src/stm32l4xx_hal_flash.c **** 
 1263              		.loc 1 224 14 is_stmt 0 view .LVU339
 1264 0054 4CF25030 		movw	r0, #50000
 1265 0058 FFF7FEFF 		bl	FLASH_WaitForLastOperation
 1266              	.LVL85:
 1267 005c 0546     		mov	r5, r0
 1268              	.LVL86:
 227:../03_Drivers/STM32L4xx_HAL_Driver/Src/stm32l4xx_hal_flash.c ****     {
 1269              		.loc 1 227 5 is_stmt 1 view .LVU340
 227:../03_Drivers/STM32L4xx_HAL_Driver/Src/stm32l4xx_hal_flash.c ****     {
 1270              		.loc 1 227 8 is_stmt 0 view .LVU341
 1271 005e 24B1     		cbz	r4, .L115
 229:../03_Drivers/STM32L4xx_HAL_Driver/Src/stm32l4xx_hal_flash.c ****     }
 1272              		.loc 1 229 7 is_stmt 1 view .LVU342
 1273 0060 154A     		ldr	r2, .L123+4
 1274 0062 5369     		ldr	r3, [r2, #20]
 1275 0064 23EA0404 		bic	r4, r3, r4
 1276              	.LVL87:
 229:../03_Drivers/STM32L4xx_HAL_Driver/Src/stm32l4xx_hal_flash.c ****     }
 1277              		.loc 1 229 7 is_stmt 0 view .LVU343
 1278 0068 5461     		str	r4, [r2, #20]
 1279              	.L115:
 233:../03_Drivers/STM32L4xx_HAL_Driver/Src/stm32l4xx_hal_flash.c ****   }
 1280              		.loc 1 233 5 is_stmt 1 view .LVU344
 1281 006a FFF7FEFF 		bl	FLASH_FlushCaches
 1282              	.LVL88:
 1283              	.L110:
 237:../03_Drivers/STM32L4xx_HAL_Driver/Src/stm32l4xx_hal_flash.c **** 
 1284              		.loc 1 237 3 view .LVU345
 237:../03_Drivers/STM32L4xx_HAL_Driver/Src/stm32l4xx_hal_flash.c **** 
 1285              		.loc 1 237 3 view .LVU346
 1286 006e 114B     		ldr	r3, .L123
 1287 0070 0022     		movs	r2, #0
 1288 0072 1A70     		strb	r2, [r3]
ARM GAS  C:\Users\minde\AppData\Local\Temp\cc31p2l9.s 			page 58


 237:../03_Drivers/STM32L4xx_HAL_Driver/Src/stm32l4xx_hal_flash.c **** 
 1289              		.loc 1 237 3 view .LVU347
 239:../03_Drivers/STM32L4xx_HAL_Driver/Src/stm32l4xx_hal_flash.c **** }
 1290              		.loc 1 239 3 view .LVU348
 1291              	.LVL89:
 1292              	.L108:
 240:../03_Drivers/STM32L4xx_HAL_Driver/Src/stm32l4xx_hal_flash.c **** 
 1293              		.loc 1 240 1 is_stmt 0 view .LVU349
 1294 0074 2846     		mov	r0, r5
 1295 0076 BDE8F081 		pop	{r4, r5, r6, r7, r8, pc}
 1296              	.LVL90:
 1297              	.L120:
 180:../03_Drivers/STM32L4xx_HAL_Driver/Src/stm32l4xx_hal_flash.c **** 
 1298              		.loc 1 180 3 discriminator 1 view .LVU350
 1299 007a B421     		movs	r1, #180
 1300              	.LVL91:
 180:../03_Drivers/STM32L4xx_HAL_Driver/Src/stm32l4xx_hal_flash.c **** 
 1301              		.loc 1 180 3 discriminator 1 view .LVU351
 1302 007c 0F48     		ldr	r0, .L123+8
 1303              	.LVL92:
 180:../03_Drivers/STM32L4xx_HAL_Driver/Src/stm32l4xx_hal_flash.c **** 
 1304              		.loc 1 180 3 discriminator 1 view .LVU352
 1305 007e FFF7FEFF 		bl	assert_failed
 1306              	.LVL93:
 1307 0082 CCE7     		b	.L109
 1308              	.LVL94:
 1309              	.L111:
 198:../03_Drivers/STM32L4xx_HAL_Driver/Src/stm32l4xx_hal_flash.c ****     }
 1310              		.loc 1 198 7 is_stmt 1 view .LVU353
 198:../03_Drivers/STM32L4xx_HAL_Driver/Src/stm32l4xx_hal_flash.c ****     }
 1311              		.loc 1 198 32 is_stmt 0 view .LVU354
 1312 0084 0B4B     		ldr	r3, .L123
 1313 0086 0022     		movs	r2, #0
 1314 0088 1A77     		strb	r2, [r3, #28]
 1315 008a DEE7     		b	.L112
 1316              	.L121:
 204:../03_Drivers/STM32L4xx_HAL_Driver/Src/stm32l4xx_hal_flash.c ****       prog_bit = FLASH_CR_PG;
 1317              		.loc 1 204 7 is_stmt 1 view .LVU355
 1318 008c 3A46     		mov	r2, r7
 1319 008e 4346     		mov	r3, r8
 1320 0090 3046     		mov	r0, r6
 1321              	.LVL95:
 204:../03_Drivers/STM32L4xx_HAL_Driver/Src/stm32l4xx_hal_flash.c ****       prog_bit = FLASH_CR_PG;
 1322              		.loc 1 204 7 is_stmt 0 view .LVU356
 1323 0092 FFF7FEFF 		bl	FLASH_Program_DoubleWord
 1324              	.LVL96:
 205:../03_Drivers/STM32L4xx_HAL_Driver/Src/stm32l4xx_hal_flash.c ****     }
 1325              		.loc 1 205 7 is_stmt 1 view .LVU357
 205:../03_Drivers/STM32L4xx_HAL_Driver/Src/stm32l4xx_hal_flash.c ****     }
 1326              		.loc 1 205 16 is_stmt 0 view .LVU358
 1327 0096 0124     		movs	r4, #1
 1328              	.LVL97:
 205:../03_Drivers/STM32L4xx_HAL_Driver/Src/stm32l4xx_hal_flash.c ****     }
 1329              		.loc 1 205 16 view .LVU359
 1330 0098 DCE7     		b	.L114
 1331              	.LVL98:
 1332              	.L122:
ARM GAS  C:\Users\minde\AppData\Local\Temp\cc31p2l9.s 			page 59


 210:../03_Drivers/STM32L4xx_HAL_Driver/Src/stm32l4xx_hal_flash.c **** 
 1333              		.loc 1 210 7 is_stmt 1 view .LVU360
 1334 009a 3946     		mov	r1, r7
 1335 009c 3046     		mov	r0, r6
 1336              	.LVL99:
 210:../03_Drivers/STM32L4xx_HAL_Driver/Src/stm32l4xx_hal_flash.c **** 
 1337              		.loc 1 210 7 is_stmt 0 view .LVU361
 1338 009e FFF7FEFF 		bl	FLASH_Program_Fast
 1339              	.LVL100:
 213:../03_Drivers/STM32L4xx_HAL_Driver/Src/stm32l4xx_hal_flash.c ****       {
 1340              		.loc 1 213 7 is_stmt 1 view .LVU362
 213:../03_Drivers/STM32L4xx_HAL_Driver/Src/stm32l4xx_hal_flash.c ****       {
 1341              		.loc 1 213 9 is_stmt 0 view .LVU363
 1342 00a2 022C     		cmp	r4, #2
 1343 00a4 01D0     		beq	.L118
 174:../03_Drivers/STM32L4xx_HAL_Driver/Src/stm32l4xx_hal_flash.c **** 
 1344              		.loc 1 174 12 view .LVU364
 1345 00a6 0024     		movs	r4, #0
 1346              	.LVL101:
 174:../03_Drivers/STM32L4xx_HAL_Driver/Src/stm32l4xx_hal_flash.c **** 
 1347              		.loc 1 174 12 view .LVU365
 1348 00a8 D4E7     		b	.L114
 1349              	.LVL102:
 1350              	.L118:
 215:../03_Drivers/STM32L4xx_HAL_Driver/Src/stm32l4xx_hal_flash.c ****       }
 1351              		.loc 1 215 18 view .LVU366
 1352 00aa 4FF48024 		mov	r4, #262144
 1353              	.LVL103:
 215:../03_Drivers/STM32L4xx_HAL_Driver/Src/stm32l4xx_hal_flash.c ****       }
 1354              		.loc 1 215 18 view .LVU367
 1355 00ae D1E7     		b	.L114
 1356              	.LVL104:
 1357              	.L116:
 177:../03_Drivers/STM32L4xx_HAL_Driver/Src/stm32l4xx_hal_flash.c **** 
 1358              		.loc 1 177 3 view .LVU368
 1359 00b0 0225     		movs	r5, #2
 1360 00b2 DFE7     		b	.L108
 1361              	.L124:
 1362              		.align	2
 1363              	.L123:
 1364 00b4 00000000 		.word	.LANCHOR0
 1365 00b8 00200240 		.word	1073881088
 1366 00bc 00000000 		.word	.LC0
 1367              		.cfi_endproc
 1368              	.LFE288:
 1370              		.section	.text.HAL_FLASH_OB_Launch,"ax",%progbits
 1371              		.align	1
 1372              		.global	HAL_FLASH_OB_Launch
 1373              		.syntax unified
 1374              		.thumb
 1375              		.thumb_func
 1376              		.fpu fpv4-sp-d16
 1378              	HAL_FLASH_OB_Launch:
 1379              	.LFB297:
 576:../03_Drivers/STM32L4xx_HAL_Driver/Src/stm32l4xx_hal_flash.c ****   /* Set the bit to force the option byte reloading */
 1380              		.loc 1 576 1 is_stmt 1 view -0
 1381              		.cfi_startproc
ARM GAS  C:\Users\minde\AppData\Local\Temp\cc31p2l9.s 			page 60


 1382              		@ args = 0, pretend = 0, frame = 0
 1383              		@ frame_needed = 0, uses_anonymous_args = 0
 1384 0000 08B5     		push	{r3, lr}
 1385              	.LCFI6:
 1386              		.cfi_def_cfa_offset 8
 1387              		.cfi_offset 3, -8
 1388              		.cfi_offset 14, -4
 578:../03_Drivers/STM32L4xx_HAL_Driver/Src/stm32l4xx_hal_flash.c **** 
 1389              		.loc 1 578 3 view .LVU370
 1390 0002 054A     		ldr	r2, .L127
 1391 0004 5369     		ldr	r3, [r2, #20]
 1392 0006 43F00063 		orr	r3, r3, #134217728
 1393 000a 5361     		str	r3, [r2, #20]
 581:../03_Drivers/STM32L4xx_HAL_Driver/Src/stm32l4xx_hal_flash.c **** }
 1394              		.loc 1 581 3 view .LVU371
 581:../03_Drivers/STM32L4xx_HAL_Driver/Src/stm32l4xx_hal_flash.c **** }
 1395              		.loc 1 581 10 is_stmt 0 view .LVU372
 1396 000c 4CF25030 		movw	r0, #50000
 1397 0010 FFF7FEFF 		bl	FLASH_WaitForLastOperation
 1398              	.LVL105:
 582:../03_Drivers/STM32L4xx_HAL_Driver/Src/stm32l4xx_hal_flash.c **** 
 1399              		.loc 1 582 1 view .LVU373
 1400 0014 08BD     		pop	{r3, pc}
 1401              	.L128:
 1402 0016 00BF     		.align	2
 1403              	.L127:
 1404 0018 00200240 		.word	1073881088
 1405              		.cfi_endproc
 1406              	.LFE297:
 1408              		.global	pFlash
 1409              		.section	.data.pFlash,"aw"
 1410              		.align	2
 1411              		.set	.LANCHOR0,. + 0
 1414              	pFlash:
 1415 0000 00       		.byte	0
 1416 0001 000000   		.space	3
 1417 0004 00000000 		.word	0
 1418 0008 00       		.byte	0
 1419 0009 000000   		.space	3
 1420 000c 00000000 		.word	0
 1421 0010 01000000 		.word	1
 1422 0014 00000000 		.word	0
 1423 0018 00000000 		.word	0
 1424 001c 00       		.byte	0
 1425 001d 000000   		.space	3
 1426              		.text
 1427              	.Letext0:
 1428              		.file 3 "c:\\gnu arm embedded toolchain\\10 2020-q4-major\\arm-none-eabi\\include\\machine\\_defau
 1429              		.file 4 "c:\\gnu arm embedded toolchain\\10 2020-q4-major\\arm-none-eabi\\include\\sys\\_stdint.h"
 1430              		.file 5 "../03_Drivers/CMSIS/Device/ST/STM32L4xx/Include/stm32l432xx.h"
 1431              		.file 6 "../03_Drivers/STM32L4xx_HAL_Driver/Inc/stm32l4xx_hal_def.h"
 1432              		.file 7 "../03_Drivers/STM32L4xx_HAL_Driver/Inc/stm32l4xx_hal_flash.h"
 1433              		.file 8 "../02_OS/Core_Reg/stm32l4xx_hal_conf.h"
 1434              		.file 9 "../03_Drivers/STM32L4xx_HAL_Driver/Inc/stm32l4xx_hal.h"
 1435              		.file 10 "../03_Drivers/STM32L4xx_HAL_Driver/Inc/stm32l4xx_hal_flash_ex.h"
ARM GAS  C:\Users\minde\AppData\Local\Temp\cc31p2l9.s 			page 61

