ARM GAS  C:\Users\minde\AppData\Local\Temp\ccYkQJ5V.s 			page 1


   1              		.cpu cortex-m4
   2              		.eabi_attribute 27, 1
   3              		.eabi_attribute 28, 1
   4              		.eabi_attribute 20, 1
   5              		.eabi_attribute 21, 1
   6              		.eabi_attribute 23, 3
   7              		.eabi_attribute 24, 1
   8              		.eabi_attribute 25, 1
   9              		.eabi_attribute 26, 1
  10              		.eabi_attribute 30, 1
  11              		.eabi_attribute 34, 1
  12              		.eabi_attribute 18, 4
  13              		.file	"stm32l4xx_hal_flash_ex.c"
  14              		.text
  15              	.Ltext0:
  16              		.cfi_sections	.debug_frame
  17              		.section	.text.FLASH_OB_GetWRP,"ax",%progbits
  18              		.align	1
  19              		.arch armv7e-m
  20              		.syntax unified
  21              		.thumb
  22              		.thumb_func
  23              		.fpu fpv4-sp-d16
  25              	FLASH_OB_GetWRP:
  26              	.LVL0:
  27              	.LFB299:
  28              		.file 1 "../03_Drivers/STM32L4xx_HAL_Driver/Src/stm32l4xx_hal_flash_ex.c"
   1:../03_Drivers/STM32L4xx_HAL_Driver/Src/stm32l4xx_hal_flash_ex.c **** /**
   2:../03_Drivers/STM32L4xx_HAL_Driver/Src/stm32l4xx_hal_flash_ex.c ****   ******************************************************************************
   3:../03_Drivers/STM32L4xx_HAL_Driver/Src/stm32l4xx_hal_flash_ex.c ****   * @file    stm32l4xx_hal_flash_ex.c
   4:../03_Drivers/STM32L4xx_HAL_Driver/Src/stm32l4xx_hal_flash_ex.c ****   * @author  MCD Application Team
   5:../03_Drivers/STM32L4xx_HAL_Driver/Src/stm32l4xx_hal_flash_ex.c ****   * @brief   Extended FLASH HAL module driver.
   6:../03_Drivers/STM32L4xx_HAL_Driver/Src/stm32l4xx_hal_flash_ex.c ****   *          This file provides firmware functions to manage the following
   7:../03_Drivers/STM32L4xx_HAL_Driver/Src/stm32l4xx_hal_flash_ex.c ****   *          functionalities of the FLASH extended peripheral:
   8:../03_Drivers/STM32L4xx_HAL_Driver/Src/stm32l4xx_hal_flash_ex.c ****   *           + Extended programming operations functions
   9:../03_Drivers/STM32L4xx_HAL_Driver/Src/stm32l4xx_hal_flash_ex.c ****   *
  10:../03_Drivers/STM32L4xx_HAL_Driver/Src/stm32l4xx_hal_flash_ex.c ****  @verbatim
  11:../03_Drivers/STM32L4xx_HAL_Driver/Src/stm32l4xx_hal_flash_ex.c ****  ==============================================================================
  12:../03_Drivers/STM32L4xx_HAL_Driver/Src/stm32l4xx_hal_flash_ex.c ****                    ##### Flash Extended features #####
  13:../03_Drivers/STM32L4xx_HAL_Driver/Src/stm32l4xx_hal_flash_ex.c ****   ==============================================================================
  14:../03_Drivers/STM32L4xx_HAL_Driver/Src/stm32l4xx_hal_flash_ex.c **** 
  15:../03_Drivers/STM32L4xx_HAL_Driver/Src/stm32l4xx_hal_flash_ex.c ****   [..] Comparing to other previous devices, the FLASH interface for STM32L4xx
  16:../03_Drivers/STM32L4xx_HAL_Driver/Src/stm32l4xx_hal_flash_ex.c ****        devices contains the following additional features
  17:../03_Drivers/STM32L4xx_HAL_Driver/Src/stm32l4xx_hal_flash_ex.c **** 
  18:../03_Drivers/STM32L4xx_HAL_Driver/Src/stm32l4xx_hal_flash_ex.c ****        (+) Capacity up to 2 Mbyte with dual bank architecture supporting read-while-write
  19:../03_Drivers/STM32L4xx_HAL_Driver/Src/stm32l4xx_hal_flash_ex.c ****            capability (RWW)
  20:../03_Drivers/STM32L4xx_HAL_Driver/Src/stm32l4xx_hal_flash_ex.c ****        (+) Dual bank memory organization
  21:../03_Drivers/STM32L4xx_HAL_Driver/Src/stm32l4xx_hal_flash_ex.c ****        (+) PCROP protection for all banks
  22:../03_Drivers/STM32L4xx_HAL_Driver/Src/stm32l4xx_hal_flash_ex.c **** 
  23:../03_Drivers/STM32L4xx_HAL_Driver/Src/stm32l4xx_hal_flash_ex.c ****                         ##### How to use this driver #####
  24:../03_Drivers/STM32L4xx_HAL_Driver/Src/stm32l4xx_hal_flash_ex.c ****  ==============================================================================
  25:../03_Drivers/STM32L4xx_HAL_Driver/Src/stm32l4xx_hal_flash_ex.c ****   [..] This driver provides functions to configure and program the FLASH memory
  26:../03_Drivers/STM32L4xx_HAL_Driver/Src/stm32l4xx_hal_flash_ex.c ****        of all STM32L4xx devices. It includes
  27:../03_Drivers/STM32L4xx_HAL_Driver/Src/stm32l4xx_hal_flash_ex.c ****       (#) Flash Memory Erase functions:
  28:../03_Drivers/STM32L4xx_HAL_Driver/Src/stm32l4xx_hal_flash_ex.c ****            (++) Lock and Unlock the FLASH interface using HAL_FLASH_Unlock() and
  29:../03_Drivers/STM32L4xx_HAL_Driver/Src/stm32l4xx_hal_flash_ex.c ****                 HAL_FLASH_Lock() functions
  30:../03_Drivers/STM32L4xx_HAL_Driver/Src/stm32l4xx_hal_flash_ex.c ****            (++) Erase function: Erase page, erase all sectors
ARM GAS  C:\Users\minde\AppData\Local\Temp\ccYkQJ5V.s 			page 2


  31:../03_Drivers/STM32L4xx_HAL_Driver/Src/stm32l4xx_hal_flash_ex.c ****            (++) There are two modes of erase :
  32:../03_Drivers/STM32L4xx_HAL_Driver/Src/stm32l4xx_hal_flash_ex.c ****              (+++) Polling Mode using HAL_FLASHEx_Erase()
  33:../03_Drivers/STM32L4xx_HAL_Driver/Src/stm32l4xx_hal_flash_ex.c ****              (+++) Interrupt Mode using HAL_FLASHEx_Erase_IT()
  34:../03_Drivers/STM32L4xx_HAL_Driver/Src/stm32l4xx_hal_flash_ex.c **** 
  35:../03_Drivers/STM32L4xx_HAL_Driver/Src/stm32l4xx_hal_flash_ex.c ****       (#) Option Bytes Programming function: Use HAL_FLASHEx_OBProgram() to :
  36:../03_Drivers/STM32L4xx_HAL_Driver/Src/stm32l4xx_hal_flash_ex.c ****         (++) Set/Reset the write protection
  37:../03_Drivers/STM32L4xx_HAL_Driver/Src/stm32l4xx_hal_flash_ex.c ****         (++) Set the Read protection Level
  38:../03_Drivers/STM32L4xx_HAL_Driver/Src/stm32l4xx_hal_flash_ex.c ****         (++) Program the user Option Bytes
  39:../03_Drivers/STM32L4xx_HAL_Driver/Src/stm32l4xx_hal_flash_ex.c ****         (++) Configure the PCROP protection
  40:../03_Drivers/STM32L4xx_HAL_Driver/Src/stm32l4xx_hal_flash_ex.c **** 
  41:../03_Drivers/STM32L4xx_HAL_Driver/Src/stm32l4xx_hal_flash_ex.c ****       (#) Get Option Bytes Configuration function: Use HAL_FLASHEx_OBGetConfig() to :
  42:../03_Drivers/STM32L4xx_HAL_Driver/Src/stm32l4xx_hal_flash_ex.c ****         (++) Get the value of a write protection area
  43:../03_Drivers/STM32L4xx_HAL_Driver/Src/stm32l4xx_hal_flash_ex.c ****         (++) Know if the read protection is activated
  44:../03_Drivers/STM32L4xx_HAL_Driver/Src/stm32l4xx_hal_flash_ex.c ****         (++) Get the value of the user Option Bytes
  45:../03_Drivers/STM32L4xx_HAL_Driver/Src/stm32l4xx_hal_flash_ex.c ****         (++) Get the value of a PCROP area
  46:../03_Drivers/STM32L4xx_HAL_Driver/Src/stm32l4xx_hal_flash_ex.c **** 
  47:../03_Drivers/STM32L4xx_HAL_Driver/Src/stm32l4xx_hal_flash_ex.c ****  @endverbatim
  48:../03_Drivers/STM32L4xx_HAL_Driver/Src/stm32l4xx_hal_flash_ex.c ****   ******************************************************************************
  49:../03_Drivers/STM32L4xx_HAL_Driver/Src/stm32l4xx_hal_flash_ex.c ****   * @attention
  50:../03_Drivers/STM32L4xx_HAL_Driver/Src/stm32l4xx_hal_flash_ex.c ****   *
  51:../03_Drivers/STM32L4xx_HAL_Driver/Src/stm32l4xx_hal_flash_ex.c ****   * <h2><center>&copy; Copyright (c) 2017 STMicroelectronics.
  52:../03_Drivers/STM32L4xx_HAL_Driver/Src/stm32l4xx_hal_flash_ex.c ****   * All rights reserved.</center></h2>
  53:../03_Drivers/STM32L4xx_HAL_Driver/Src/stm32l4xx_hal_flash_ex.c ****   *
  54:../03_Drivers/STM32L4xx_HAL_Driver/Src/stm32l4xx_hal_flash_ex.c ****   * This software component is licensed by ST under BSD 3-Clause license,
  55:../03_Drivers/STM32L4xx_HAL_Driver/Src/stm32l4xx_hal_flash_ex.c ****   * the "License"; You may not use this file except in compliance with the
  56:../03_Drivers/STM32L4xx_HAL_Driver/Src/stm32l4xx_hal_flash_ex.c ****   * License. You may obtain a copy of the License at:
  57:../03_Drivers/STM32L4xx_HAL_Driver/Src/stm32l4xx_hal_flash_ex.c ****   *                       opensource.org/licenses/BSD-3-Clause
  58:../03_Drivers/STM32L4xx_HAL_Driver/Src/stm32l4xx_hal_flash_ex.c ****   *
  59:../03_Drivers/STM32L4xx_HAL_Driver/Src/stm32l4xx_hal_flash_ex.c ****   ******************************************************************************
  60:../03_Drivers/STM32L4xx_HAL_Driver/Src/stm32l4xx_hal_flash_ex.c ****   */
  61:../03_Drivers/STM32L4xx_HAL_Driver/Src/stm32l4xx_hal_flash_ex.c **** 
  62:../03_Drivers/STM32L4xx_HAL_Driver/Src/stm32l4xx_hal_flash_ex.c **** /* Includes ------------------------------------------------------------------*/
  63:../03_Drivers/STM32L4xx_HAL_Driver/Src/stm32l4xx_hal_flash_ex.c **** #include "stm32l4xx_hal.h"
  64:../03_Drivers/STM32L4xx_HAL_Driver/Src/stm32l4xx_hal_flash_ex.c **** 
  65:../03_Drivers/STM32L4xx_HAL_Driver/Src/stm32l4xx_hal_flash_ex.c **** /** @addtogroup STM32L4xx_HAL_Driver
  66:../03_Drivers/STM32L4xx_HAL_Driver/Src/stm32l4xx_hal_flash_ex.c ****   * @{
  67:../03_Drivers/STM32L4xx_HAL_Driver/Src/stm32l4xx_hal_flash_ex.c ****   */
  68:../03_Drivers/STM32L4xx_HAL_Driver/Src/stm32l4xx_hal_flash_ex.c **** 
  69:../03_Drivers/STM32L4xx_HAL_Driver/Src/stm32l4xx_hal_flash_ex.c **** /** @defgroup FLASHEx FLASHEx
  70:../03_Drivers/STM32L4xx_HAL_Driver/Src/stm32l4xx_hal_flash_ex.c ****   * @brief FLASH Extended HAL module driver
  71:../03_Drivers/STM32L4xx_HAL_Driver/Src/stm32l4xx_hal_flash_ex.c ****   * @{
  72:../03_Drivers/STM32L4xx_HAL_Driver/Src/stm32l4xx_hal_flash_ex.c ****   */
  73:../03_Drivers/STM32L4xx_HAL_Driver/Src/stm32l4xx_hal_flash_ex.c **** 
  74:../03_Drivers/STM32L4xx_HAL_Driver/Src/stm32l4xx_hal_flash_ex.c **** #ifdef HAL_FLASH_MODULE_ENABLED
  75:../03_Drivers/STM32L4xx_HAL_Driver/Src/stm32l4xx_hal_flash_ex.c **** 
  76:../03_Drivers/STM32L4xx_HAL_Driver/Src/stm32l4xx_hal_flash_ex.c **** /* Private typedef -----------------------------------------------------------*/
  77:../03_Drivers/STM32L4xx_HAL_Driver/Src/stm32l4xx_hal_flash_ex.c **** /* Private define ------------------------------------------------------------*/
  78:../03_Drivers/STM32L4xx_HAL_Driver/Src/stm32l4xx_hal_flash_ex.c **** /* Private macro -------------------------------------------------------------*/
  79:../03_Drivers/STM32L4xx_HAL_Driver/Src/stm32l4xx_hal_flash_ex.c **** /* Private variables ---------------------------------------------------------*/
  80:../03_Drivers/STM32L4xx_HAL_Driver/Src/stm32l4xx_hal_flash_ex.c **** /* Private function prototypes -----------------------------------------------*/
  81:../03_Drivers/STM32L4xx_HAL_Driver/Src/stm32l4xx_hal_flash_ex.c **** /** @defgroup FLASHEx_Private_Functions FLASHEx Private Functions
  82:../03_Drivers/STM32L4xx_HAL_Driver/Src/stm32l4xx_hal_flash_ex.c ****  * @{
  83:../03_Drivers/STM32L4xx_HAL_Driver/Src/stm32l4xx_hal_flash_ex.c ****  */
  84:../03_Drivers/STM32L4xx_HAL_Driver/Src/stm32l4xx_hal_flash_ex.c **** static void              FLASH_MassErase(uint32_t Banks);
  85:../03_Drivers/STM32L4xx_HAL_Driver/Src/stm32l4xx_hal_flash_ex.c **** static HAL_StatusTypeDef FLASH_OB_WRPConfig(uint32_t WRPArea, uint32_t WRPStartOffset, uint32_t WRD
  86:../03_Drivers/STM32L4xx_HAL_Driver/Src/stm32l4xx_hal_flash_ex.c **** static HAL_StatusTypeDef FLASH_OB_RDPConfig(uint32_t RDPLevel);
  87:../03_Drivers/STM32L4xx_HAL_Driver/Src/stm32l4xx_hal_flash_ex.c **** static HAL_StatusTypeDef FLASH_OB_UserConfig(uint32_t UserType, uint32_t UserConfig);
ARM GAS  C:\Users\minde\AppData\Local\Temp\ccYkQJ5V.s 			page 3


  88:../03_Drivers/STM32L4xx_HAL_Driver/Src/stm32l4xx_hal_flash_ex.c **** static HAL_StatusTypeDef FLASH_OB_PCROPConfig(uint32_t PCROPConfig, uint32_t PCROPStartAddr, uint32
  89:../03_Drivers/STM32L4xx_HAL_Driver/Src/stm32l4xx_hal_flash_ex.c **** static void              FLASH_OB_GetWRP(uint32_t WRPArea, uint32_t * WRPStartOffset, uint32_t * WR
  90:../03_Drivers/STM32L4xx_HAL_Driver/Src/stm32l4xx_hal_flash_ex.c **** static uint32_t          FLASH_OB_GetRDP(void);
  91:../03_Drivers/STM32L4xx_HAL_Driver/Src/stm32l4xx_hal_flash_ex.c **** static uint32_t          FLASH_OB_GetUser(void);
  92:../03_Drivers/STM32L4xx_HAL_Driver/Src/stm32l4xx_hal_flash_ex.c **** static void              FLASH_OB_GetPCROP(uint32_t * PCROPConfig, uint32_t * PCROPStartAddr, uint3
  93:../03_Drivers/STM32L4xx_HAL_Driver/Src/stm32l4xx_hal_flash_ex.c **** /**
  94:../03_Drivers/STM32L4xx_HAL_Driver/Src/stm32l4xx_hal_flash_ex.c ****   * @}
  95:../03_Drivers/STM32L4xx_HAL_Driver/Src/stm32l4xx_hal_flash_ex.c ****   */
  96:../03_Drivers/STM32L4xx_HAL_Driver/Src/stm32l4xx_hal_flash_ex.c **** 
  97:../03_Drivers/STM32L4xx_HAL_Driver/Src/stm32l4xx_hal_flash_ex.c **** /* Exported functions -------------------------------------------------------*/
  98:../03_Drivers/STM32L4xx_HAL_Driver/Src/stm32l4xx_hal_flash_ex.c **** /** @defgroup FLASHEx_Exported_Functions FLASHEx Exported Functions
  99:../03_Drivers/STM32L4xx_HAL_Driver/Src/stm32l4xx_hal_flash_ex.c ****   * @{
 100:../03_Drivers/STM32L4xx_HAL_Driver/Src/stm32l4xx_hal_flash_ex.c ****   */
 101:../03_Drivers/STM32L4xx_HAL_Driver/Src/stm32l4xx_hal_flash_ex.c **** 
 102:../03_Drivers/STM32L4xx_HAL_Driver/Src/stm32l4xx_hal_flash_ex.c **** /** @defgroup FLASHEx_Exported_Functions_Group1 Extended IO operation functions
 103:../03_Drivers/STM32L4xx_HAL_Driver/Src/stm32l4xx_hal_flash_ex.c ****  *  @brief   Extended IO operation functions
 104:../03_Drivers/STM32L4xx_HAL_Driver/Src/stm32l4xx_hal_flash_ex.c ****  *
 105:../03_Drivers/STM32L4xx_HAL_Driver/Src/stm32l4xx_hal_flash_ex.c **** @verbatim
 106:../03_Drivers/STM32L4xx_HAL_Driver/Src/stm32l4xx_hal_flash_ex.c ****  ===============================================================================
 107:../03_Drivers/STM32L4xx_HAL_Driver/Src/stm32l4xx_hal_flash_ex.c ****                 ##### Extended programming operation functions #####
 108:../03_Drivers/STM32L4xx_HAL_Driver/Src/stm32l4xx_hal_flash_ex.c ****  ===============================================================================
 109:../03_Drivers/STM32L4xx_HAL_Driver/Src/stm32l4xx_hal_flash_ex.c ****     [..]
 110:../03_Drivers/STM32L4xx_HAL_Driver/Src/stm32l4xx_hal_flash_ex.c ****     This subsection provides a set of functions allowing to manage the Extended FLASH
 111:../03_Drivers/STM32L4xx_HAL_Driver/Src/stm32l4xx_hal_flash_ex.c ****     programming operations Operations.
 112:../03_Drivers/STM32L4xx_HAL_Driver/Src/stm32l4xx_hal_flash_ex.c **** 
 113:../03_Drivers/STM32L4xx_HAL_Driver/Src/stm32l4xx_hal_flash_ex.c **** @endverbatim
 114:../03_Drivers/STM32L4xx_HAL_Driver/Src/stm32l4xx_hal_flash_ex.c ****   * @{
 115:../03_Drivers/STM32L4xx_HAL_Driver/Src/stm32l4xx_hal_flash_ex.c ****   */
 116:../03_Drivers/STM32L4xx_HAL_Driver/Src/stm32l4xx_hal_flash_ex.c **** /**
 117:../03_Drivers/STM32L4xx_HAL_Driver/Src/stm32l4xx_hal_flash_ex.c ****   * @brief  Perform a mass erase or erase the specified FLASH memory pages.
 118:../03_Drivers/STM32L4xx_HAL_Driver/Src/stm32l4xx_hal_flash_ex.c ****   * @param[in]  pEraseInit: pointer to an FLASH_EraseInitTypeDef structure that
 119:../03_Drivers/STM32L4xx_HAL_Driver/Src/stm32l4xx_hal_flash_ex.c ****   *         contains the configuration information for the erasing.
 120:../03_Drivers/STM32L4xx_HAL_Driver/Src/stm32l4xx_hal_flash_ex.c ****   *
 121:../03_Drivers/STM32L4xx_HAL_Driver/Src/stm32l4xx_hal_flash_ex.c ****   * @param[out]  PageError  : pointer to variable that contains the configuration
 122:../03_Drivers/STM32L4xx_HAL_Driver/Src/stm32l4xx_hal_flash_ex.c ****   *         information on faulty page in case of error (0xFFFFFFFF means that all
 123:../03_Drivers/STM32L4xx_HAL_Driver/Src/stm32l4xx_hal_flash_ex.c ****   *         the pages have been correctly erased)
 124:../03_Drivers/STM32L4xx_HAL_Driver/Src/stm32l4xx_hal_flash_ex.c ****   *
 125:../03_Drivers/STM32L4xx_HAL_Driver/Src/stm32l4xx_hal_flash_ex.c ****   * @retval HAL Status
 126:../03_Drivers/STM32L4xx_HAL_Driver/Src/stm32l4xx_hal_flash_ex.c ****   */
 127:../03_Drivers/STM32L4xx_HAL_Driver/Src/stm32l4xx_hal_flash_ex.c **** HAL_StatusTypeDef HAL_FLASHEx_Erase(FLASH_EraseInitTypeDef *pEraseInit, uint32_t *PageError)
 128:../03_Drivers/STM32L4xx_HAL_Driver/Src/stm32l4xx_hal_flash_ex.c **** {
 129:../03_Drivers/STM32L4xx_HAL_Driver/Src/stm32l4xx_hal_flash_ex.c ****   HAL_StatusTypeDef status;
 130:../03_Drivers/STM32L4xx_HAL_Driver/Src/stm32l4xx_hal_flash_ex.c ****   uint32_t page_index;
 131:../03_Drivers/STM32L4xx_HAL_Driver/Src/stm32l4xx_hal_flash_ex.c **** 
 132:../03_Drivers/STM32L4xx_HAL_Driver/Src/stm32l4xx_hal_flash_ex.c ****   /* Process Locked */
 133:../03_Drivers/STM32L4xx_HAL_Driver/Src/stm32l4xx_hal_flash_ex.c ****   __HAL_LOCK(&pFlash);
 134:../03_Drivers/STM32L4xx_HAL_Driver/Src/stm32l4xx_hal_flash_ex.c **** 
 135:../03_Drivers/STM32L4xx_HAL_Driver/Src/stm32l4xx_hal_flash_ex.c ****   /* Check the parameters */
 136:../03_Drivers/STM32L4xx_HAL_Driver/Src/stm32l4xx_hal_flash_ex.c ****   assert_param(IS_FLASH_TYPEERASE(pEraseInit->TypeErase));
 137:../03_Drivers/STM32L4xx_HAL_Driver/Src/stm32l4xx_hal_flash_ex.c **** 
 138:../03_Drivers/STM32L4xx_HAL_Driver/Src/stm32l4xx_hal_flash_ex.c ****   /* Wait for last operation to be completed */
 139:../03_Drivers/STM32L4xx_HAL_Driver/Src/stm32l4xx_hal_flash_ex.c ****   status = FLASH_WaitForLastOperation((uint32_t)FLASH_TIMEOUT_VALUE);
 140:../03_Drivers/STM32L4xx_HAL_Driver/Src/stm32l4xx_hal_flash_ex.c **** 
 141:../03_Drivers/STM32L4xx_HAL_Driver/Src/stm32l4xx_hal_flash_ex.c ****   if (status == HAL_OK)
 142:../03_Drivers/STM32L4xx_HAL_Driver/Src/stm32l4xx_hal_flash_ex.c ****   {
 143:../03_Drivers/STM32L4xx_HAL_Driver/Src/stm32l4xx_hal_flash_ex.c ****     pFlash.ErrorCode = HAL_FLASH_ERROR_NONE;
 144:../03_Drivers/STM32L4xx_HAL_Driver/Src/stm32l4xx_hal_flash_ex.c **** 
ARM GAS  C:\Users\minde\AppData\Local\Temp\ccYkQJ5V.s 			page 4


 145:../03_Drivers/STM32L4xx_HAL_Driver/Src/stm32l4xx_hal_flash_ex.c ****     /* Deactivate the cache if they are activated to avoid data misbehavior */
 146:../03_Drivers/STM32L4xx_HAL_Driver/Src/stm32l4xx_hal_flash_ex.c ****     if(READ_BIT(FLASH->ACR, FLASH_ACR_ICEN) != 0U)
 147:../03_Drivers/STM32L4xx_HAL_Driver/Src/stm32l4xx_hal_flash_ex.c ****     {
 148:../03_Drivers/STM32L4xx_HAL_Driver/Src/stm32l4xx_hal_flash_ex.c ****       /* Disable instruction cache  */
 149:../03_Drivers/STM32L4xx_HAL_Driver/Src/stm32l4xx_hal_flash_ex.c ****       __HAL_FLASH_INSTRUCTION_CACHE_DISABLE();
 150:../03_Drivers/STM32L4xx_HAL_Driver/Src/stm32l4xx_hal_flash_ex.c **** 
 151:../03_Drivers/STM32L4xx_HAL_Driver/Src/stm32l4xx_hal_flash_ex.c ****       if(READ_BIT(FLASH->ACR, FLASH_ACR_DCEN) != 0U)
 152:../03_Drivers/STM32L4xx_HAL_Driver/Src/stm32l4xx_hal_flash_ex.c ****       {
 153:../03_Drivers/STM32L4xx_HAL_Driver/Src/stm32l4xx_hal_flash_ex.c ****         /* Disable data cache  */
 154:../03_Drivers/STM32L4xx_HAL_Driver/Src/stm32l4xx_hal_flash_ex.c ****         __HAL_FLASH_DATA_CACHE_DISABLE();
 155:../03_Drivers/STM32L4xx_HAL_Driver/Src/stm32l4xx_hal_flash_ex.c ****         pFlash.CacheToReactivate = FLASH_CACHE_ICACHE_DCACHE_ENABLED;
 156:../03_Drivers/STM32L4xx_HAL_Driver/Src/stm32l4xx_hal_flash_ex.c ****       }
 157:../03_Drivers/STM32L4xx_HAL_Driver/Src/stm32l4xx_hal_flash_ex.c ****       else
 158:../03_Drivers/STM32L4xx_HAL_Driver/Src/stm32l4xx_hal_flash_ex.c ****       {
 159:../03_Drivers/STM32L4xx_HAL_Driver/Src/stm32l4xx_hal_flash_ex.c ****         pFlash.CacheToReactivate = FLASH_CACHE_ICACHE_ENABLED;
 160:../03_Drivers/STM32L4xx_HAL_Driver/Src/stm32l4xx_hal_flash_ex.c ****       }
 161:../03_Drivers/STM32L4xx_HAL_Driver/Src/stm32l4xx_hal_flash_ex.c ****     }
 162:../03_Drivers/STM32L4xx_HAL_Driver/Src/stm32l4xx_hal_flash_ex.c ****     else if(READ_BIT(FLASH->ACR, FLASH_ACR_DCEN) != 0U)
 163:../03_Drivers/STM32L4xx_HAL_Driver/Src/stm32l4xx_hal_flash_ex.c ****     {
 164:../03_Drivers/STM32L4xx_HAL_Driver/Src/stm32l4xx_hal_flash_ex.c ****       /* Disable data cache  */
 165:../03_Drivers/STM32L4xx_HAL_Driver/Src/stm32l4xx_hal_flash_ex.c ****       __HAL_FLASH_DATA_CACHE_DISABLE();
 166:../03_Drivers/STM32L4xx_HAL_Driver/Src/stm32l4xx_hal_flash_ex.c ****       pFlash.CacheToReactivate = FLASH_CACHE_DCACHE_ENABLED;
 167:../03_Drivers/STM32L4xx_HAL_Driver/Src/stm32l4xx_hal_flash_ex.c ****     }
 168:../03_Drivers/STM32L4xx_HAL_Driver/Src/stm32l4xx_hal_flash_ex.c ****     else
 169:../03_Drivers/STM32L4xx_HAL_Driver/Src/stm32l4xx_hal_flash_ex.c ****     {
 170:../03_Drivers/STM32L4xx_HAL_Driver/Src/stm32l4xx_hal_flash_ex.c ****       pFlash.CacheToReactivate = FLASH_CACHE_DISABLED;
 171:../03_Drivers/STM32L4xx_HAL_Driver/Src/stm32l4xx_hal_flash_ex.c ****     }
 172:../03_Drivers/STM32L4xx_HAL_Driver/Src/stm32l4xx_hal_flash_ex.c **** 
 173:../03_Drivers/STM32L4xx_HAL_Driver/Src/stm32l4xx_hal_flash_ex.c ****     if (pEraseInit->TypeErase == FLASH_TYPEERASE_MASSERASE)
 174:../03_Drivers/STM32L4xx_HAL_Driver/Src/stm32l4xx_hal_flash_ex.c ****     {
 175:../03_Drivers/STM32L4xx_HAL_Driver/Src/stm32l4xx_hal_flash_ex.c ****       /* Mass erase to be done */
 176:../03_Drivers/STM32L4xx_HAL_Driver/Src/stm32l4xx_hal_flash_ex.c ****       FLASH_MassErase(pEraseInit->Banks);
 177:../03_Drivers/STM32L4xx_HAL_Driver/Src/stm32l4xx_hal_flash_ex.c **** 
 178:../03_Drivers/STM32L4xx_HAL_Driver/Src/stm32l4xx_hal_flash_ex.c ****       /* Wait for last operation to be completed */
 179:../03_Drivers/STM32L4xx_HAL_Driver/Src/stm32l4xx_hal_flash_ex.c ****       status = FLASH_WaitForLastOperation((uint32_t)FLASH_TIMEOUT_VALUE);
 180:../03_Drivers/STM32L4xx_HAL_Driver/Src/stm32l4xx_hal_flash_ex.c **** 
 181:../03_Drivers/STM32L4xx_HAL_Driver/Src/stm32l4xx_hal_flash_ex.c **** #if defined (STM32L471xx) || defined (STM32L475xx) || defined (STM32L476xx) || defined (STM32L485xx
 182:../03_Drivers/STM32L4xx_HAL_Driver/Src/stm32l4xx_hal_flash_ex.c ****     defined (STM32L496xx) || defined (STM32L4A6xx) || \
 183:../03_Drivers/STM32L4xx_HAL_Driver/Src/stm32l4xx_hal_flash_ex.c ****     defined (STM32L4P5xx) || defined (STM32L4Q5xx) || \
 184:../03_Drivers/STM32L4xx_HAL_Driver/Src/stm32l4xx_hal_flash_ex.c ****     defined (STM32L4R5xx) || defined (STM32L4R7xx) || defined (STM32L4R9xx) || defined (STM32L4S5xx
 185:../03_Drivers/STM32L4xx_HAL_Driver/Src/stm32l4xx_hal_flash_ex.c ****       /* If the erase operation is completed, disable the MER1 and MER2 Bits */
 186:../03_Drivers/STM32L4xx_HAL_Driver/Src/stm32l4xx_hal_flash_ex.c ****       CLEAR_BIT(FLASH->CR, (FLASH_CR_MER1 | FLASH_CR_MER2));
 187:../03_Drivers/STM32L4xx_HAL_Driver/Src/stm32l4xx_hal_flash_ex.c **** #else
 188:../03_Drivers/STM32L4xx_HAL_Driver/Src/stm32l4xx_hal_flash_ex.c ****       /* If the erase operation is completed, disable the MER1 Bit */
 189:../03_Drivers/STM32L4xx_HAL_Driver/Src/stm32l4xx_hal_flash_ex.c ****       CLEAR_BIT(FLASH->CR, (FLASH_CR_MER1));
 190:../03_Drivers/STM32L4xx_HAL_Driver/Src/stm32l4xx_hal_flash_ex.c **** #endif
 191:../03_Drivers/STM32L4xx_HAL_Driver/Src/stm32l4xx_hal_flash_ex.c ****     }
 192:../03_Drivers/STM32L4xx_HAL_Driver/Src/stm32l4xx_hal_flash_ex.c ****     else
 193:../03_Drivers/STM32L4xx_HAL_Driver/Src/stm32l4xx_hal_flash_ex.c ****     {
 194:../03_Drivers/STM32L4xx_HAL_Driver/Src/stm32l4xx_hal_flash_ex.c ****       /*Initialization of PageError variable*/
 195:../03_Drivers/STM32L4xx_HAL_Driver/Src/stm32l4xx_hal_flash_ex.c ****       *PageError = 0xFFFFFFFFU;
 196:../03_Drivers/STM32L4xx_HAL_Driver/Src/stm32l4xx_hal_flash_ex.c **** 
 197:../03_Drivers/STM32L4xx_HAL_Driver/Src/stm32l4xx_hal_flash_ex.c ****       for(page_index = pEraseInit->Page; page_index < (pEraseInit->Page + pEraseInit->NbPages); pag
 198:../03_Drivers/STM32L4xx_HAL_Driver/Src/stm32l4xx_hal_flash_ex.c ****       {
 199:../03_Drivers/STM32L4xx_HAL_Driver/Src/stm32l4xx_hal_flash_ex.c ****         FLASH_PageErase(page_index, pEraseInit->Banks);
 200:../03_Drivers/STM32L4xx_HAL_Driver/Src/stm32l4xx_hal_flash_ex.c **** 
 201:../03_Drivers/STM32L4xx_HAL_Driver/Src/stm32l4xx_hal_flash_ex.c ****         /* Wait for last operation to be completed */
ARM GAS  C:\Users\minde\AppData\Local\Temp\ccYkQJ5V.s 			page 5


 202:../03_Drivers/STM32L4xx_HAL_Driver/Src/stm32l4xx_hal_flash_ex.c ****         status = FLASH_WaitForLastOperation((uint32_t)FLASH_TIMEOUT_VALUE);
 203:../03_Drivers/STM32L4xx_HAL_Driver/Src/stm32l4xx_hal_flash_ex.c **** 
 204:../03_Drivers/STM32L4xx_HAL_Driver/Src/stm32l4xx_hal_flash_ex.c ****         /* If the erase operation is completed, disable the PER Bit */
 205:../03_Drivers/STM32L4xx_HAL_Driver/Src/stm32l4xx_hal_flash_ex.c ****         CLEAR_BIT(FLASH->CR, (FLASH_CR_PER | FLASH_CR_PNB));
 206:../03_Drivers/STM32L4xx_HAL_Driver/Src/stm32l4xx_hal_flash_ex.c **** 
 207:../03_Drivers/STM32L4xx_HAL_Driver/Src/stm32l4xx_hal_flash_ex.c ****         if (status != HAL_OK)
 208:../03_Drivers/STM32L4xx_HAL_Driver/Src/stm32l4xx_hal_flash_ex.c ****         {
 209:../03_Drivers/STM32L4xx_HAL_Driver/Src/stm32l4xx_hal_flash_ex.c ****           /* In case of error, stop erase procedure and return the faulty address */
 210:../03_Drivers/STM32L4xx_HAL_Driver/Src/stm32l4xx_hal_flash_ex.c ****           *PageError = page_index;
 211:../03_Drivers/STM32L4xx_HAL_Driver/Src/stm32l4xx_hal_flash_ex.c ****           break;
 212:../03_Drivers/STM32L4xx_HAL_Driver/Src/stm32l4xx_hal_flash_ex.c ****         }
 213:../03_Drivers/STM32L4xx_HAL_Driver/Src/stm32l4xx_hal_flash_ex.c ****       }
 214:../03_Drivers/STM32L4xx_HAL_Driver/Src/stm32l4xx_hal_flash_ex.c ****     }
 215:../03_Drivers/STM32L4xx_HAL_Driver/Src/stm32l4xx_hal_flash_ex.c **** 
 216:../03_Drivers/STM32L4xx_HAL_Driver/Src/stm32l4xx_hal_flash_ex.c ****     /* Flush the caches to be sure of the data consistency */
 217:../03_Drivers/STM32L4xx_HAL_Driver/Src/stm32l4xx_hal_flash_ex.c ****     FLASH_FlushCaches();
 218:../03_Drivers/STM32L4xx_HAL_Driver/Src/stm32l4xx_hal_flash_ex.c ****   }
 219:../03_Drivers/STM32L4xx_HAL_Driver/Src/stm32l4xx_hal_flash_ex.c **** 
 220:../03_Drivers/STM32L4xx_HAL_Driver/Src/stm32l4xx_hal_flash_ex.c ****   /* Process Unlocked */
 221:../03_Drivers/STM32L4xx_HAL_Driver/Src/stm32l4xx_hal_flash_ex.c ****   __HAL_UNLOCK(&pFlash);
 222:../03_Drivers/STM32L4xx_HAL_Driver/Src/stm32l4xx_hal_flash_ex.c **** 
 223:../03_Drivers/STM32L4xx_HAL_Driver/Src/stm32l4xx_hal_flash_ex.c ****   return status;
 224:../03_Drivers/STM32L4xx_HAL_Driver/Src/stm32l4xx_hal_flash_ex.c **** }
 225:../03_Drivers/STM32L4xx_HAL_Driver/Src/stm32l4xx_hal_flash_ex.c **** 
 226:../03_Drivers/STM32L4xx_HAL_Driver/Src/stm32l4xx_hal_flash_ex.c **** /**
 227:../03_Drivers/STM32L4xx_HAL_Driver/Src/stm32l4xx_hal_flash_ex.c ****   * @brief  Perform a mass erase or erase the specified FLASH memory pages with interrupt enabled.
 228:../03_Drivers/STM32L4xx_HAL_Driver/Src/stm32l4xx_hal_flash_ex.c ****   * @param  pEraseInit pointer to an FLASH_EraseInitTypeDef structure that
 229:../03_Drivers/STM32L4xx_HAL_Driver/Src/stm32l4xx_hal_flash_ex.c ****   *         contains the configuration information for the erasing.
 230:../03_Drivers/STM32L4xx_HAL_Driver/Src/stm32l4xx_hal_flash_ex.c ****   *
 231:../03_Drivers/STM32L4xx_HAL_Driver/Src/stm32l4xx_hal_flash_ex.c ****   * @retval HAL Status
 232:../03_Drivers/STM32L4xx_HAL_Driver/Src/stm32l4xx_hal_flash_ex.c ****   */
 233:../03_Drivers/STM32L4xx_HAL_Driver/Src/stm32l4xx_hal_flash_ex.c **** HAL_StatusTypeDef HAL_FLASHEx_Erase_IT(FLASH_EraseInitTypeDef *pEraseInit)
 234:../03_Drivers/STM32L4xx_HAL_Driver/Src/stm32l4xx_hal_flash_ex.c **** {
 235:../03_Drivers/STM32L4xx_HAL_Driver/Src/stm32l4xx_hal_flash_ex.c ****   HAL_StatusTypeDef status = HAL_OK;
 236:../03_Drivers/STM32L4xx_HAL_Driver/Src/stm32l4xx_hal_flash_ex.c **** 
 237:../03_Drivers/STM32L4xx_HAL_Driver/Src/stm32l4xx_hal_flash_ex.c ****   /* Process Locked */
 238:../03_Drivers/STM32L4xx_HAL_Driver/Src/stm32l4xx_hal_flash_ex.c ****   __HAL_LOCK(&pFlash);
 239:../03_Drivers/STM32L4xx_HAL_Driver/Src/stm32l4xx_hal_flash_ex.c **** 
 240:../03_Drivers/STM32L4xx_HAL_Driver/Src/stm32l4xx_hal_flash_ex.c ****   /* Check the parameters */
 241:../03_Drivers/STM32L4xx_HAL_Driver/Src/stm32l4xx_hal_flash_ex.c ****   assert_param(IS_FLASH_TYPEERASE(pEraseInit->TypeErase));
 242:../03_Drivers/STM32L4xx_HAL_Driver/Src/stm32l4xx_hal_flash_ex.c **** 
 243:../03_Drivers/STM32L4xx_HAL_Driver/Src/stm32l4xx_hal_flash_ex.c ****   pFlash.ErrorCode = HAL_FLASH_ERROR_NONE;
 244:../03_Drivers/STM32L4xx_HAL_Driver/Src/stm32l4xx_hal_flash_ex.c **** 
 245:../03_Drivers/STM32L4xx_HAL_Driver/Src/stm32l4xx_hal_flash_ex.c ****   /* Deactivate the cache if they are activated to avoid data misbehavior */
 246:../03_Drivers/STM32L4xx_HAL_Driver/Src/stm32l4xx_hal_flash_ex.c ****   if(READ_BIT(FLASH->ACR, FLASH_ACR_ICEN) != 0U)
 247:../03_Drivers/STM32L4xx_HAL_Driver/Src/stm32l4xx_hal_flash_ex.c ****   {
 248:../03_Drivers/STM32L4xx_HAL_Driver/Src/stm32l4xx_hal_flash_ex.c ****     /* Disable instruction cache  */
 249:../03_Drivers/STM32L4xx_HAL_Driver/Src/stm32l4xx_hal_flash_ex.c ****     __HAL_FLASH_INSTRUCTION_CACHE_DISABLE();
 250:../03_Drivers/STM32L4xx_HAL_Driver/Src/stm32l4xx_hal_flash_ex.c **** 
 251:../03_Drivers/STM32L4xx_HAL_Driver/Src/stm32l4xx_hal_flash_ex.c ****     if(READ_BIT(FLASH->ACR, FLASH_ACR_DCEN) != 0U)
 252:../03_Drivers/STM32L4xx_HAL_Driver/Src/stm32l4xx_hal_flash_ex.c ****     {
 253:../03_Drivers/STM32L4xx_HAL_Driver/Src/stm32l4xx_hal_flash_ex.c ****       /* Disable data cache  */
 254:../03_Drivers/STM32L4xx_HAL_Driver/Src/stm32l4xx_hal_flash_ex.c ****       __HAL_FLASH_DATA_CACHE_DISABLE();
 255:../03_Drivers/STM32L4xx_HAL_Driver/Src/stm32l4xx_hal_flash_ex.c ****       pFlash.CacheToReactivate = FLASH_CACHE_ICACHE_DCACHE_ENABLED;
 256:../03_Drivers/STM32L4xx_HAL_Driver/Src/stm32l4xx_hal_flash_ex.c ****     }
 257:../03_Drivers/STM32L4xx_HAL_Driver/Src/stm32l4xx_hal_flash_ex.c ****     else
 258:../03_Drivers/STM32L4xx_HAL_Driver/Src/stm32l4xx_hal_flash_ex.c ****     {
ARM GAS  C:\Users\minde\AppData\Local\Temp\ccYkQJ5V.s 			page 6


 259:../03_Drivers/STM32L4xx_HAL_Driver/Src/stm32l4xx_hal_flash_ex.c ****       pFlash.CacheToReactivate = FLASH_CACHE_ICACHE_ENABLED;
 260:../03_Drivers/STM32L4xx_HAL_Driver/Src/stm32l4xx_hal_flash_ex.c ****     }
 261:../03_Drivers/STM32L4xx_HAL_Driver/Src/stm32l4xx_hal_flash_ex.c ****   }
 262:../03_Drivers/STM32L4xx_HAL_Driver/Src/stm32l4xx_hal_flash_ex.c ****   else if(READ_BIT(FLASH->ACR, FLASH_ACR_DCEN) != 0U)
 263:../03_Drivers/STM32L4xx_HAL_Driver/Src/stm32l4xx_hal_flash_ex.c ****   {
 264:../03_Drivers/STM32L4xx_HAL_Driver/Src/stm32l4xx_hal_flash_ex.c ****     /* Disable data cache  */
 265:../03_Drivers/STM32L4xx_HAL_Driver/Src/stm32l4xx_hal_flash_ex.c ****     __HAL_FLASH_DATA_CACHE_DISABLE();
 266:../03_Drivers/STM32L4xx_HAL_Driver/Src/stm32l4xx_hal_flash_ex.c ****     pFlash.CacheToReactivate = FLASH_CACHE_DCACHE_ENABLED;
 267:../03_Drivers/STM32L4xx_HAL_Driver/Src/stm32l4xx_hal_flash_ex.c ****   }
 268:../03_Drivers/STM32L4xx_HAL_Driver/Src/stm32l4xx_hal_flash_ex.c ****   else
 269:../03_Drivers/STM32L4xx_HAL_Driver/Src/stm32l4xx_hal_flash_ex.c ****   {
 270:../03_Drivers/STM32L4xx_HAL_Driver/Src/stm32l4xx_hal_flash_ex.c ****     pFlash.CacheToReactivate = FLASH_CACHE_DISABLED;
 271:../03_Drivers/STM32L4xx_HAL_Driver/Src/stm32l4xx_hal_flash_ex.c ****   }
 272:../03_Drivers/STM32L4xx_HAL_Driver/Src/stm32l4xx_hal_flash_ex.c **** 
 273:../03_Drivers/STM32L4xx_HAL_Driver/Src/stm32l4xx_hal_flash_ex.c ****   /* Enable End of Operation and Error interrupts */
 274:../03_Drivers/STM32L4xx_HAL_Driver/Src/stm32l4xx_hal_flash_ex.c ****   __HAL_FLASH_ENABLE_IT(FLASH_IT_EOP | FLASH_IT_OPERR);
 275:../03_Drivers/STM32L4xx_HAL_Driver/Src/stm32l4xx_hal_flash_ex.c **** 
 276:../03_Drivers/STM32L4xx_HAL_Driver/Src/stm32l4xx_hal_flash_ex.c ****   pFlash.Bank = pEraseInit->Banks;
 277:../03_Drivers/STM32L4xx_HAL_Driver/Src/stm32l4xx_hal_flash_ex.c **** 
 278:../03_Drivers/STM32L4xx_HAL_Driver/Src/stm32l4xx_hal_flash_ex.c ****   if (pEraseInit->TypeErase == FLASH_TYPEERASE_MASSERASE)
 279:../03_Drivers/STM32L4xx_HAL_Driver/Src/stm32l4xx_hal_flash_ex.c ****   {
 280:../03_Drivers/STM32L4xx_HAL_Driver/Src/stm32l4xx_hal_flash_ex.c ****     /* Mass erase to be done */
 281:../03_Drivers/STM32L4xx_HAL_Driver/Src/stm32l4xx_hal_flash_ex.c ****     pFlash.ProcedureOnGoing = FLASH_PROC_MASS_ERASE;
 282:../03_Drivers/STM32L4xx_HAL_Driver/Src/stm32l4xx_hal_flash_ex.c ****     FLASH_MassErase(pEraseInit->Banks);
 283:../03_Drivers/STM32L4xx_HAL_Driver/Src/stm32l4xx_hal_flash_ex.c ****   }
 284:../03_Drivers/STM32L4xx_HAL_Driver/Src/stm32l4xx_hal_flash_ex.c ****   else
 285:../03_Drivers/STM32L4xx_HAL_Driver/Src/stm32l4xx_hal_flash_ex.c ****   {
 286:../03_Drivers/STM32L4xx_HAL_Driver/Src/stm32l4xx_hal_flash_ex.c ****     /* Erase by page to be done */
 287:../03_Drivers/STM32L4xx_HAL_Driver/Src/stm32l4xx_hal_flash_ex.c ****     pFlash.ProcedureOnGoing = FLASH_PROC_PAGE_ERASE;
 288:../03_Drivers/STM32L4xx_HAL_Driver/Src/stm32l4xx_hal_flash_ex.c ****     pFlash.NbPagesToErase = pEraseInit->NbPages;
 289:../03_Drivers/STM32L4xx_HAL_Driver/Src/stm32l4xx_hal_flash_ex.c ****     pFlash.Page = pEraseInit->Page;
 290:../03_Drivers/STM32L4xx_HAL_Driver/Src/stm32l4xx_hal_flash_ex.c **** 
 291:../03_Drivers/STM32L4xx_HAL_Driver/Src/stm32l4xx_hal_flash_ex.c ****     /*Erase 1st page and wait for IT */
 292:../03_Drivers/STM32L4xx_HAL_Driver/Src/stm32l4xx_hal_flash_ex.c ****     FLASH_PageErase(pEraseInit->Page, pEraseInit->Banks);
 293:../03_Drivers/STM32L4xx_HAL_Driver/Src/stm32l4xx_hal_flash_ex.c ****   }
 294:../03_Drivers/STM32L4xx_HAL_Driver/Src/stm32l4xx_hal_flash_ex.c **** 
 295:../03_Drivers/STM32L4xx_HAL_Driver/Src/stm32l4xx_hal_flash_ex.c ****   return status;
 296:../03_Drivers/STM32L4xx_HAL_Driver/Src/stm32l4xx_hal_flash_ex.c **** }
 297:../03_Drivers/STM32L4xx_HAL_Driver/Src/stm32l4xx_hal_flash_ex.c **** 
 298:../03_Drivers/STM32L4xx_HAL_Driver/Src/stm32l4xx_hal_flash_ex.c **** /**
 299:../03_Drivers/STM32L4xx_HAL_Driver/Src/stm32l4xx_hal_flash_ex.c ****   * @brief  Program Option bytes.
 300:../03_Drivers/STM32L4xx_HAL_Driver/Src/stm32l4xx_hal_flash_ex.c ****   * @param  pOBInit pointer to an FLASH_OBInitStruct structure that
 301:../03_Drivers/STM32L4xx_HAL_Driver/Src/stm32l4xx_hal_flash_ex.c ****   *         contains the configuration information for the programming.
 302:../03_Drivers/STM32L4xx_HAL_Driver/Src/stm32l4xx_hal_flash_ex.c ****   *
 303:../03_Drivers/STM32L4xx_HAL_Driver/Src/stm32l4xx_hal_flash_ex.c ****   * @retval HAL Status
 304:../03_Drivers/STM32L4xx_HAL_Driver/Src/stm32l4xx_hal_flash_ex.c ****   */
 305:../03_Drivers/STM32L4xx_HAL_Driver/Src/stm32l4xx_hal_flash_ex.c **** HAL_StatusTypeDef HAL_FLASHEx_OBProgram(FLASH_OBProgramInitTypeDef *pOBInit)
 306:../03_Drivers/STM32L4xx_HAL_Driver/Src/stm32l4xx_hal_flash_ex.c **** {
 307:../03_Drivers/STM32L4xx_HAL_Driver/Src/stm32l4xx_hal_flash_ex.c ****   HAL_StatusTypeDef status = HAL_OK;
 308:../03_Drivers/STM32L4xx_HAL_Driver/Src/stm32l4xx_hal_flash_ex.c **** 
 309:../03_Drivers/STM32L4xx_HAL_Driver/Src/stm32l4xx_hal_flash_ex.c ****   /* Process Locked */
 310:../03_Drivers/STM32L4xx_HAL_Driver/Src/stm32l4xx_hal_flash_ex.c ****   __HAL_LOCK(&pFlash);
 311:../03_Drivers/STM32L4xx_HAL_Driver/Src/stm32l4xx_hal_flash_ex.c **** 
 312:../03_Drivers/STM32L4xx_HAL_Driver/Src/stm32l4xx_hal_flash_ex.c ****   /* Check the parameters */
 313:../03_Drivers/STM32L4xx_HAL_Driver/Src/stm32l4xx_hal_flash_ex.c ****   assert_param(IS_OPTIONBYTE(pOBInit->OptionType));
 314:../03_Drivers/STM32L4xx_HAL_Driver/Src/stm32l4xx_hal_flash_ex.c **** 
 315:../03_Drivers/STM32L4xx_HAL_Driver/Src/stm32l4xx_hal_flash_ex.c ****   pFlash.ErrorCode = HAL_FLASH_ERROR_NONE;
ARM GAS  C:\Users\minde\AppData\Local\Temp\ccYkQJ5V.s 			page 7


 316:../03_Drivers/STM32L4xx_HAL_Driver/Src/stm32l4xx_hal_flash_ex.c **** 
 317:../03_Drivers/STM32L4xx_HAL_Driver/Src/stm32l4xx_hal_flash_ex.c ****   /* Write protection configuration */
 318:../03_Drivers/STM32L4xx_HAL_Driver/Src/stm32l4xx_hal_flash_ex.c ****   if((pOBInit->OptionType & OPTIONBYTE_WRP) != 0U)
 319:../03_Drivers/STM32L4xx_HAL_Driver/Src/stm32l4xx_hal_flash_ex.c ****   {
 320:../03_Drivers/STM32L4xx_HAL_Driver/Src/stm32l4xx_hal_flash_ex.c ****     /* Configure of Write protection on the selected area */
 321:../03_Drivers/STM32L4xx_HAL_Driver/Src/stm32l4xx_hal_flash_ex.c ****     if(FLASH_OB_WRPConfig(pOBInit->WRPArea, pOBInit->WRPStartOffset, pOBInit->WRPEndOffset) != HAL_
 322:../03_Drivers/STM32L4xx_HAL_Driver/Src/stm32l4xx_hal_flash_ex.c ****     {
 323:../03_Drivers/STM32L4xx_HAL_Driver/Src/stm32l4xx_hal_flash_ex.c ****       status = HAL_ERROR;
 324:../03_Drivers/STM32L4xx_HAL_Driver/Src/stm32l4xx_hal_flash_ex.c ****     }
 325:../03_Drivers/STM32L4xx_HAL_Driver/Src/stm32l4xx_hal_flash_ex.c **** 
 326:../03_Drivers/STM32L4xx_HAL_Driver/Src/stm32l4xx_hal_flash_ex.c ****   }
 327:../03_Drivers/STM32L4xx_HAL_Driver/Src/stm32l4xx_hal_flash_ex.c **** 
 328:../03_Drivers/STM32L4xx_HAL_Driver/Src/stm32l4xx_hal_flash_ex.c ****   /* Read protection configuration */
 329:../03_Drivers/STM32L4xx_HAL_Driver/Src/stm32l4xx_hal_flash_ex.c ****   if((pOBInit->OptionType & OPTIONBYTE_RDP) != 0U)
 330:../03_Drivers/STM32L4xx_HAL_Driver/Src/stm32l4xx_hal_flash_ex.c ****   {
 331:../03_Drivers/STM32L4xx_HAL_Driver/Src/stm32l4xx_hal_flash_ex.c ****     /* Configure the Read protection level */
 332:../03_Drivers/STM32L4xx_HAL_Driver/Src/stm32l4xx_hal_flash_ex.c ****     if(FLASH_OB_RDPConfig(pOBInit->RDPLevel) != HAL_OK)
 333:../03_Drivers/STM32L4xx_HAL_Driver/Src/stm32l4xx_hal_flash_ex.c ****     {
 334:../03_Drivers/STM32L4xx_HAL_Driver/Src/stm32l4xx_hal_flash_ex.c ****       status = HAL_ERROR;
 335:../03_Drivers/STM32L4xx_HAL_Driver/Src/stm32l4xx_hal_flash_ex.c ****     }
 336:../03_Drivers/STM32L4xx_HAL_Driver/Src/stm32l4xx_hal_flash_ex.c ****   }
 337:../03_Drivers/STM32L4xx_HAL_Driver/Src/stm32l4xx_hal_flash_ex.c **** 
 338:../03_Drivers/STM32L4xx_HAL_Driver/Src/stm32l4xx_hal_flash_ex.c ****   /* User Configuration */
 339:../03_Drivers/STM32L4xx_HAL_Driver/Src/stm32l4xx_hal_flash_ex.c ****   if((pOBInit->OptionType & OPTIONBYTE_USER) != 0U)
 340:../03_Drivers/STM32L4xx_HAL_Driver/Src/stm32l4xx_hal_flash_ex.c ****   {
 341:../03_Drivers/STM32L4xx_HAL_Driver/Src/stm32l4xx_hal_flash_ex.c ****     /* Configure the user option bytes */
 342:../03_Drivers/STM32L4xx_HAL_Driver/Src/stm32l4xx_hal_flash_ex.c ****     if(FLASH_OB_UserConfig(pOBInit->USERType, pOBInit->USERConfig) != HAL_OK)
 343:../03_Drivers/STM32L4xx_HAL_Driver/Src/stm32l4xx_hal_flash_ex.c ****     {
 344:../03_Drivers/STM32L4xx_HAL_Driver/Src/stm32l4xx_hal_flash_ex.c ****       status = HAL_ERROR;
 345:../03_Drivers/STM32L4xx_HAL_Driver/Src/stm32l4xx_hal_flash_ex.c ****     }
 346:../03_Drivers/STM32L4xx_HAL_Driver/Src/stm32l4xx_hal_flash_ex.c ****   }
 347:../03_Drivers/STM32L4xx_HAL_Driver/Src/stm32l4xx_hal_flash_ex.c **** 
 348:../03_Drivers/STM32L4xx_HAL_Driver/Src/stm32l4xx_hal_flash_ex.c ****   /* PCROP Configuration */
 349:../03_Drivers/STM32L4xx_HAL_Driver/Src/stm32l4xx_hal_flash_ex.c ****   if((pOBInit->OptionType & OPTIONBYTE_PCROP) != 0U)
 350:../03_Drivers/STM32L4xx_HAL_Driver/Src/stm32l4xx_hal_flash_ex.c ****   {
 351:../03_Drivers/STM32L4xx_HAL_Driver/Src/stm32l4xx_hal_flash_ex.c ****     if (pOBInit->PCROPStartAddr != pOBInit->PCROPEndAddr)
 352:../03_Drivers/STM32L4xx_HAL_Driver/Src/stm32l4xx_hal_flash_ex.c ****     {
 353:../03_Drivers/STM32L4xx_HAL_Driver/Src/stm32l4xx_hal_flash_ex.c ****       /* Configure the Proprietary code readout protection */
 354:../03_Drivers/STM32L4xx_HAL_Driver/Src/stm32l4xx_hal_flash_ex.c ****       if(FLASH_OB_PCROPConfig(pOBInit->PCROPConfig, pOBInit->PCROPStartAddr, pOBInit->PCROPEndAddr)
 355:../03_Drivers/STM32L4xx_HAL_Driver/Src/stm32l4xx_hal_flash_ex.c ****       {
 356:../03_Drivers/STM32L4xx_HAL_Driver/Src/stm32l4xx_hal_flash_ex.c ****         status = HAL_ERROR;
 357:../03_Drivers/STM32L4xx_HAL_Driver/Src/stm32l4xx_hal_flash_ex.c ****       }
 358:../03_Drivers/STM32L4xx_HAL_Driver/Src/stm32l4xx_hal_flash_ex.c ****     }
 359:../03_Drivers/STM32L4xx_HAL_Driver/Src/stm32l4xx_hal_flash_ex.c ****   }
 360:../03_Drivers/STM32L4xx_HAL_Driver/Src/stm32l4xx_hal_flash_ex.c **** 
 361:../03_Drivers/STM32L4xx_HAL_Driver/Src/stm32l4xx_hal_flash_ex.c ****   /* Process Unlocked */
 362:../03_Drivers/STM32L4xx_HAL_Driver/Src/stm32l4xx_hal_flash_ex.c ****   __HAL_UNLOCK(&pFlash);
 363:../03_Drivers/STM32L4xx_HAL_Driver/Src/stm32l4xx_hal_flash_ex.c **** 
 364:../03_Drivers/STM32L4xx_HAL_Driver/Src/stm32l4xx_hal_flash_ex.c ****   return status;
 365:../03_Drivers/STM32L4xx_HAL_Driver/Src/stm32l4xx_hal_flash_ex.c **** }
 366:../03_Drivers/STM32L4xx_HAL_Driver/Src/stm32l4xx_hal_flash_ex.c **** 
 367:../03_Drivers/STM32L4xx_HAL_Driver/Src/stm32l4xx_hal_flash_ex.c **** /**
 368:../03_Drivers/STM32L4xx_HAL_Driver/Src/stm32l4xx_hal_flash_ex.c ****   * @brief  Get the Option bytes configuration.
 369:../03_Drivers/STM32L4xx_HAL_Driver/Src/stm32l4xx_hal_flash_ex.c ****   * @param  pOBInit pointer to an FLASH_OBInitStruct structure that contains the
 370:../03_Drivers/STM32L4xx_HAL_Driver/Src/stm32l4xx_hal_flash_ex.c ****   *                  configuration information.
 371:../03_Drivers/STM32L4xx_HAL_Driver/Src/stm32l4xx_hal_flash_ex.c ****   * @note   The fields pOBInit->WRPArea and pOBInit->PCROPConfig should indicate
 372:../03_Drivers/STM32L4xx_HAL_Driver/Src/stm32l4xx_hal_flash_ex.c ****   *         which area is requested for the WRP and PCROP, else no information will be returned
ARM GAS  C:\Users\minde\AppData\Local\Temp\ccYkQJ5V.s 			page 8


 373:../03_Drivers/STM32L4xx_HAL_Driver/Src/stm32l4xx_hal_flash_ex.c ****   *
 374:../03_Drivers/STM32L4xx_HAL_Driver/Src/stm32l4xx_hal_flash_ex.c ****   * @retval None
 375:../03_Drivers/STM32L4xx_HAL_Driver/Src/stm32l4xx_hal_flash_ex.c ****   */
 376:../03_Drivers/STM32L4xx_HAL_Driver/Src/stm32l4xx_hal_flash_ex.c **** void HAL_FLASHEx_OBGetConfig(FLASH_OBProgramInitTypeDef *pOBInit)
 377:../03_Drivers/STM32L4xx_HAL_Driver/Src/stm32l4xx_hal_flash_ex.c **** {
 378:../03_Drivers/STM32L4xx_HAL_Driver/Src/stm32l4xx_hal_flash_ex.c ****   pOBInit->OptionType = (OPTIONBYTE_RDP | OPTIONBYTE_USER);
 379:../03_Drivers/STM32L4xx_HAL_Driver/Src/stm32l4xx_hal_flash_ex.c **** 
 380:../03_Drivers/STM32L4xx_HAL_Driver/Src/stm32l4xx_hal_flash_ex.c **** #if defined (STM32L471xx) || defined (STM32L475xx) || defined (STM32L476xx) || defined (STM32L485xx
 381:../03_Drivers/STM32L4xx_HAL_Driver/Src/stm32l4xx_hal_flash_ex.c ****     defined (STM32L496xx) || defined (STM32L4A6xx) || \
 382:../03_Drivers/STM32L4xx_HAL_Driver/Src/stm32l4xx_hal_flash_ex.c ****     defined (STM32L4P5xx) || defined (STM32L4Q5xx) || \
 383:../03_Drivers/STM32L4xx_HAL_Driver/Src/stm32l4xx_hal_flash_ex.c ****     defined (STM32L4R5xx) || defined (STM32L4R7xx) || defined (STM32L4R9xx) || defined (STM32L4S5xx
 384:../03_Drivers/STM32L4xx_HAL_Driver/Src/stm32l4xx_hal_flash_ex.c ****   if((pOBInit->WRPArea == OB_WRPAREA_BANK1_AREAA) || (pOBInit->WRPArea == OB_WRPAREA_BANK1_AREAB) |
 385:../03_Drivers/STM32L4xx_HAL_Driver/Src/stm32l4xx_hal_flash_ex.c ****      (pOBInit->WRPArea == OB_WRPAREA_BANK2_AREAA) || (pOBInit->WRPArea == OB_WRPAREA_BANK2_AREAB))
 386:../03_Drivers/STM32L4xx_HAL_Driver/Src/stm32l4xx_hal_flash_ex.c **** #else
 387:../03_Drivers/STM32L4xx_HAL_Driver/Src/stm32l4xx_hal_flash_ex.c ****   if((pOBInit->WRPArea == OB_WRPAREA_BANK1_AREAA) || (pOBInit->WRPArea == OB_WRPAREA_BANK1_AREAB))
 388:../03_Drivers/STM32L4xx_HAL_Driver/Src/stm32l4xx_hal_flash_ex.c **** #endif
 389:../03_Drivers/STM32L4xx_HAL_Driver/Src/stm32l4xx_hal_flash_ex.c ****   {
 390:../03_Drivers/STM32L4xx_HAL_Driver/Src/stm32l4xx_hal_flash_ex.c ****     pOBInit->OptionType |= OPTIONBYTE_WRP;
 391:../03_Drivers/STM32L4xx_HAL_Driver/Src/stm32l4xx_hal_flash_ex.c ****     /* Get write protection on the selected area */
 392:../03_Drivers/STM32L4xx_HAL_Driver/Src/stm32l4xx_hal_flash_ex.c ****     FLASH_OB_GetWRP(pOBInit->WRPArea, &(pOBInit->WRPStartOffset), &(pOBInit->WRPEndOffset));
 393:../03_Drivers/STM32L4xx_HAL_Driver/Src/stm32l4xx_hal_flash_ex.c ****   }
 394:../03_Drivers/STM32L4xx_HAL_Driver/Src/stm32l4xx_hal_flash_ex.c **** 
 395:../03_Drivers/STM32L4xx_HAL_Driver/Src/stm32l4xx_hal_flash_ex.c ****   /* Get Read protection level */
 396:../03_Drivers/STM32L4xx_HAL_Driver/Src/stm32l4xx_hal_flash_ex.c ****   pOBInit->RDPLevel = FLASH_OB_GetRDP();
 397:../03_Drivers/STM32L4xx_HAL_Driver/Src/stm32l4xx_hal_flash_ex.c **** 
 398:../03_Drivers/STM32L4xx_HAL_Driver/Src/stm32l4xx_hal_flash_ex.c ****   /* Get the user option bytes */
 399:../03_Drivers/STM32L4xx_HAL_Driver/Src/stm32l4xx_hal_flash_ex.c ****   pOBInit->USERConfig = FLASH_OB_GetUser();
 400:../03_Drivers/STM32L4xx_HAL_Driver/Src/stm32l4xx_hal_flash_ex.c **** 
 401:../03_Drivers/STM32L4xx_HAL_Driver/Src/stm32l4xx_hal_flash_ex.c **** #if defined (STM32L471xx) || defined (STM32L475xx) || defined (STM32L476xx) || defined (STM32L485xx
 402:../03_Drivers/STM32L4xx_HAL_Driver/Src/stm32l4xx_hal_flash_ex.c ****     defined (STM32L496xx) || defined (STM32L4A6xx) || \
 403:../03_Drivers/STM32L4xx_HAL_Driver/Src/stm32l4xx_hal_flash_ex.c ****     defined (STM32L4P5xx) || defined (STM32L4Q5xx) || \
 404:../03_Drivers/STM32L4xx_HAL_Driver/Src/stm32l4xx_hal_flash_ex.c ****     defined (STM32L4R5xx) || defined (STM32L4R7xx) || defined (STM32L4R9xx) || defined (STM32L4S5xx
 405:../03_Drivers/STM32L4xx_HAL_Driver/Src/stm32l4xx_hal_flash_ex.c ****   if((pOBInit->PCROPConfig == FLASH_BANK_1) || (pOBInit->PCROPConfig == FLASH_BANK_2))
 406:../03_Drivers/STM32L4xx_HAL_Driver/Src/stm32l4xx_hal_flash_ex.c **** #else
 407:../03_Drivers/STM32L4xx_HAL_Driver/Src/stm32l4xx_hal_flash_ex.c ****   if(pOBInit->PCROPConfig == FLASH_BANK_1)
 408:../03_Drivers/STM32L4xx_HAL_Driver/Src/stm32l4xx_hal_flash_ex.c **** #endif
 409:../03_Drivers/STM32L4xx_HAL_Driver/Src/stm32l4xx_hal_flash_ex.c ****   {
 410:../03_Drivers/STM32L4xx_HAL_Driver/Src/stm32l4xx_hal_flash_ex.c ****     pOBInit->OptionType |= OPTIONBYTE_PCROP;
 411:../03_Drivers/STM32L4xx_HAL_Driver/Src/stm32l4xx_hal_flash_ex.c ****     /* Get the Proprietary code readout protection */
 412:../03_Drivers/STM32L4xx_HAL_Driver/Src/stm32l4xx_hal_flash_ex.c ****     FLASH_OB_GetPCROP(&(pOBInit->PCROPConfig), &(pOBInit->PCROPStartAddr), &(pOBInit->PCROPEndAddr)
 413:../03_Drivers/STM32L4xx_HAL_Driver/Src/stm32l4xx_hal_flash_ex.c ****   }
 414:../03_Drivers/STM32L4xx_HAL_Driver/Src/stm32l4xx_hal_flash_ex.c **** }
 415:../03_Drivers/STM32L4xx_HAL_Driver/Src/stm32l4xx_hal_flash_ex.c **** 
 416:../03_Drivers/STM32L4xx_HAL_Driver/Src/stm32l4xx_hal_flash_ex.c **** /**
 417:../03_Drivers/STM32L4xx_HAL_Driver/Src/stm32l4xx_hal_flash_ex.c ****   * @}
 418:../03_Drivers/STM32L4xx_HAL_Driver/Src/stm32l4xx_hal_flash_ex.c ****   */
 419:../03_Drivers/STM32L4xx_HAL_Driver/Src/stm32l4xx_hal_flash_ex.c **** 
 420:../03_Drivers/STM32L4xx_HAL_Driver/Src/stm32l4xx_hal_flash_ex.c **** #if defined (FLASH_CFGR_LVEN)
 421:../03_Drivers/STM32L4xx_HAL_Driver/Src/stm32l4xx_hal_flash_ex.c **** /** @defgroup FLASHEx_Exported_Functions_Group2 Extended specific configuration functions
 422:../03_Drivers/STM32L4xx_HAL_Driver/Src/stm32l4xx_hal_flash_ex.c ****  *  @brief   Extended specific configuration functions
 423:../03_Drivers/STM32L4xx_HAL_Driver/Src/stm32l4xx_hal_flash_ex.c ****  *
 424:../03_Drivers/STM32L4xx_HAL_Driver/Src/stm32l4xx_hal_flash_ex.c **** @verbatim
 425:../03_Drivers/STM32L4xx_HAL_Driver/Src/stm32l4xx_hal_flash_ex.c ****  ===============================================================================
 426:../03_Drivers/STM32L4xx_HAL_Driver/Src/stm32l4xx_hal_flash_ex.c ****                 ##### Extended specific configuration functions #####
 427:../03_Drivers/STM32L4xx_HAL_Driver/Src/stm32l4xx_hal_flash_ex.c ****  ===============================================================================
 428:../03_Drivers/STM32L4xx_HAL_Driver/Src/stm32l4xx_hal_flash_ex.c ****     [..]
 429:../03_Drivers/STM32L4xx_HAL_Driver/Src/stm32l4xx_hal_flash_ex.c ****     This subsection provides a set of functions allowing to manage the Extended FLASH
ARM GAS  C:\Users\minde\AppData\Local\Temp\ccYkQJ5V.s 			page 9


 430:../03_Drivers/STM32L4xx_HAL_Driver/Src/stm32l4xx_hal_flash_ex.c ****     specific configurations.
 431:../03_Drivers/STM32L4xx_HAL_Driver/Src/stm32l4xx_hal_flash_ex.c **** 
 432:../03_Drivers/STM32L4xx_HAL_Driver/Src/stm32l4xx_hal_flash_ex.c **** @endverbatim
 433:../03_Drivers/STM32L4xx_HAL_Driver/Src/stm32l4xx_hal_flash_ex.c ****   * @{
 434:../03_Drivers/STM32L4xx_HAL_Driver/Src/stm32l4xx_hal_flash_ex.c ****   */
 435:../03_Drivers/STM32L4xx_HAL_Driver/Src/stm32l4xx_hal_flash_ex.c **** 
 436:../03_Drivers/STM32L4xx_HAL_Driver/Src/stm32l4xx_hal_flash_ex.c **** /**
 437:../03_Drivers/STM32L4xx_HAL_Driver/Src/stm32l4xx_hal_flash_ex.c ****   * @brief  Configuration of the LVE pin of the Flash (managed by power controller
 438:../03_Drivers/STM32L4xx_HAL_Driver/Src/stm32l4xx_hal_flash_ex.c ****   *         or forced to low in order to use an external SMPS)
 439:../03_Drivers/STM32L4xx_HAL_Driver/Src/stm32l4xx_hal_flash_ex.c ****   * @param  ConfigLVE Configuration of the LVE pin,
 440:../03_Drivers/STM32L4xx_HAL_Driver/Src/stm32l4xx_hal_flash_ex.c ****   *              This parameter can be one of the following values:
 441:../03_Drivers/STM32L4xx_HAL_Driver/Src/stm32l4xx_hal_flash_ex.c ****   *                @arg FLASH_LVE_PIN_CTRL: LVE FLASH pin controlled by power controller
 442:../03_Drivers/STM32L4xx_HAL_Driver/Src/stm32l4xx_hal_flash_ex.c ****   *                @arg FLASH_LVE_PIN_FORCED: LVE FLASH pin enforced to low (external SMPS used)
 443:../03_Drivers/STM32L4xx_HAL_Driver/Src/stm32l4xx_hal_flash_ex.c ****   *
 444:../03_Drivers/STM32L4xx_HAL_Driver/Src/stm32l4xx_hal_flash_ex.c ****   * @note   Before enforcing the LVE pin to low, the SOC should be in low voltage
 445:../03_Drivers/STM32L4xx_HAL_Driver/Src/stm32l4xx_hal_flash_ex.c ****   *         range 2 and the voltage VDD12 should be higher than 1.08V and SMPS is ON.
 446:../03_Drivers/STM32L4xx_HAL_Driver/Src/stm32l4xx_hal_flash_ex.c ****   *
 447:../03_Drivers/STM32L4xx_HAL_Driver/Src/stm32l4xx_hal_flash_ex.c ****   * @retval HAL Status
 448:../03_Drivers/STM32L4xx_HAL_Driver/Src/stm32l4xx_hal_flash_ex.c ****   */
 449:../03_Drivers/STM32L4xx_HAL_Driver/Src/stm32l4xx_hal_flash_ex.c **** HAL_StatusTypeDef HAL_FLASHEx_ConfigLVEPin(uint32_t ConfigLVE)
 450:../03_Drivers/STM32L4xx_HAL_Driver/Src/stm32l4xx_hal_flash_ex.c **** {
 451:../03_Drivers/STM32L4xx_HAL_Driver/Src/stm32l4xx_hal_flash_ex.c ****   HAL_StatusTypeDef status;
 452:../03_Drivers/STM32L4xx_HAL_Driver/Src/stm32l4xx_hal_flash_ex.c **** 
 453:../03_Drivers/STM32L4xx_HAL_Driver/Src/stm32l4xx_hal_flash_ex.c ****   /* Process Locked */
 454:../03_Drivers/STM32L4xx_HAL_Driver/Src/stm32l4xx_hal_flash_ex.c ****   __HAL_LOCK(&pFlash);
 455:../03_Drivers/STM32L4xx_HAL_Driver/Src/stm32l4xx_hal_flash_ex.c **** 
 456:../03_Drivers/STM32L4xx_HAL_Driver/Src/stm32l4xx_hal_flash_ex.c ****   /* Check the parameters */
 457:../03_Drivers/STM32L4xx_HAL_Driver/Src/stm32l4xx_hal_flash_ex.c ****   assert_param(IS_FLASH_LVE_PIN(ConfigLVE));
 458:../03_Drivers/STM32L4xx_HAL_Driver/Src/stm32l4xx_hal_flash_ex.c **** 
 459:../03_Drivers/STM32L4xx_HAL_Driver/Src/stm32l4xx_hal_flash_ex.c ****   /* Wait for last operation to be completed */
 460:../03_Drivers/STM32L4xx_HAL_Driver/Src/stm32l4xx_hal_flash_ex.c ****   status = FLASH_WaitForLastOperation((uint32_t)FLASH_TIMEOUT_VALUE);
 461:../03_Drivers/STM32L4xx_HAL_Driver/Src/stm32l4xx_hal_flash_ex.c **** 
 462:../03_Drivers/STM32L4xx_HAL_Driver/Src/stm32l4xx_hal_flash_ex.c ****   if (status == HAL_OK)
 463:../03_Drivers/STM32L4xx_HAL_Driver/Src/stm32l4xx_hal_flash_ex.c ****   {
 464:../03_Drivers/STM32L4xx_HAL_Driver/Src/stm32l4xx_hal_flash_ex.c ****     /* Check that the voltage scaling is range 2 */
 465:../03_Drivers/STM32L4xx_HAL_Driver/Src/stm32l4xx_hal_flash_ex.c ****     if (HAL_PWREx_GetVoltageRange() == PWR_REGULATOR_VOLTAGE_SCALE2)
 466:../03_Drivers/STM32L4xx_HAL_Driver/Src/stm32l4xx_hal_flash_ex.c ****     {
 467:../03_Drivers/STM32L4xx_HAL_Driver/Src/stm32l4xx_hal_flash_ex.c ****       /* Configure the LVEN bit */
 468:../03_Drivers/STM32L4xx_HAL_Driver/Src/stm32l4xx_hal_flash_ex.c ****       MODIFY_REG(FLASH->CFGR, FLASH_CFGR_LVEN, ConfigLVE);
 469:../03_Drivers/STM32L4xx_HAL_Driver/Src/stm32l4xx_hal_flash_ex.c **** 
 470:../03_Drivers/STM32L4xx_HAL_Driver/Src/stm32l4xx_hal_flash_ex.c ****       /* Check that the bit has been correctly configured */
 471:../03_Drivers/STM32L4xx_HAL_Driver/Src/stm32l4xx_hal_flash_ex.c ****       if (READ_BIT(FLASH->CFGR, FLASH_CFGR_LVEN) != ConfigLVE)
 472:../03_Drivers/STM32L4xx_HAL_Driver/Src/stm32l4xx_hal_flash_ex.c ****       {
 473:../03_Drivers/STM32L4xx_HAL_Driver/Src/stm32l4xx_hal_flash_ex.c ****         status = HAL_ERROR;
 474:../03_Drivers/STM32L4xx_HAL_Driver/Src/stm32l4xx_hal_flash_ex.c ****       }
 475:../03_Drivers/STM32L4xx_HAL_Driver/Src/stm32l4xx_hal_flash_ex.c ****     }
 476:../03_Drivers/STM32L4xx_HAL_Driver/Src/stm32l4xx_hal_flash_ex.c ****     else
 477:../03_Drivers/STM32L4xx_HAL_Driver/Src/stm32l4xx_hal_flash_ex.c ****     {
 478:../03_Drivers/STM32L4xx_HAL_Driver/Src/stm32l4xx_hal_flash_ex.c ****       /* Not allow to force Flash LVE pin if not in voltage range 2 */
 479:../03_Drivers/STM32L4xx_HAL_Driver/Src/stm32l4xx_hal_flash_ex.c ****       status = HAL_ERROR;
 480:../03_Drivers/STM32L4xx_HAL_Driver/Src/stm32l4xx_hal_flash_ex.c ****     }
 481:../03_Drivers/STM32L4xx_HAL_Driver/Src/stm32l4xx_hal_flash_ex.c ****   }
 482:../03_Drivers/STM32L4xx_HAL_Driver/Src/stm32l4xx_hal_flash_ex.c **** 
 483:../03_Drivers/STM32L4xx_HAL_Driver/Src/stm32l4xx_hal_flash_ex.c ****   /* Process Unlocked */
 484:../03_Drivers/STM32L4xx_HAL_Driver/Src/stm32l4xx_hal_flash_ex.c ****   __HAL_UNLOCK(&pFlash);
 485:../03_Drivers/STM32L4xx_HAL_Driver/Src/stm32l4xx_hal_flash_ex.c **** 
 486:../03_Drivers/STM32L4xx_HAL_Driver/Src/stm32l4xx_hal_flash_ex.c ****   return status;
ARM GAS  C:\Users\minde\AppData\Local\Temp\ccYkQJ5V.s 			page 10


 487:../03_Drivers/STM32L4xx_HAL_Driver/Src/stm32l4xx_hal_flash_ex.c **** }
 488:../03_Drivers/STM32L4xx_HAL_Driver/Src/stm32l4xx_hal_flash_ex.c **** 
 489:../03_Drivers/STM32L4xx_HAL_Driver/Src/stm32l4xx_hal_flash_ex.c **** /**
 490:../03_Drivers/STM32L4xx_HAL_Driver/Src/stm32l4xx_hal_flash_ex.c ****   * @}
 491:../03_Drivers/STM32L4xx_HAL_Driver/Src/stm32l4xx_hal_flash_ex.c ****   */
 492:../03_Drivers/STM32L4xx_HAL_Driver/Src/stm32l4xx_hal_flash_ex.c **** #endif /* FLASH_CFGR_LVEN */
 493:../03_Drivers/STM32L4xx_HAL_Driver/Src/stm32l4xx_hal_flash_ex.c **** 
 494:../03_Drivers/STM32L4xx_HAL_Driver/Src/stm32l4xx_hal_flash_ex.c **** /**
 495:../03_Drivers/STM32L4xx_HAL_Driver/Src/stm32l4xx_hal_flash_ex.c ****   * @}
 496:../03_Drivers/STM32L4xx_HAL_Driver/Src/stm32l4xx_hal_flash_ex.c ****   */
 497:../03_Drivers/STM32L4xx_HAL_Driver/Src/stm32l4xx_hal_flash_ex.c **** 
 498:../03_Drivers/STM32L4xx_HAL_Driver/Src/stm32l4xx_hal_flash_ex.c **** /* Private functions ---------------------------------------------------------*/
 499:../03_Drivers/STM32L4xx_HAL_Driver/Src/stm32l4xx_hal_flash_ex.c **** 
 500:../03_Drivers/STM32L4xx_HAL_Driver/Src/stm32l4xx_hal_flash_ex.c **** /** @addtogroup FLASHEx_Private_Functions
 501:../03_Drivers/STM32L4xx_HAL_Driver/Src/stm32l4xx_hal_flash_ex.c ****   * @{
 502:../03_Drivers/STM32L4xx_HAL_Driver/Src/stm32l4xx_hal_flash_ex.c ****   */
 503:../03_Drivers/STM32L4xx_HAL_Driver/Src/stm32l4xx_hal_flash_ex.c **** /**
 504:../03_Drivers/STM32L4xx_HAL_Driver/Src/stm32l4xx_hal_flash_ex.c ****   * @brief  Mass erase of FLASH memory.
 505:../03_Drivers/STM32L4xx_HAL_Driver/Src/stm32l4xx_hal_flash_ex.c ****   * @param  Banks Banks to be erased
 506:../03_Drivers/STM32L4xx_HAL_Driver/Src/stm32l4xx_hal_flash_ex.c ****   *          This parameter can be one of the following values:
 507:../03_Drivers/STM32L4xx_HAL_Driver/Src/stm32l4xx_hal_flash_ex.c ****   *            @arg FLASH_BANK_1: Bank1 to be erased
 508:../03_Drivers/STM32L4xx_HAL_Driver/Src/stm32l4xx_hal_flash_ex.c ****   *            @arg FLASH_BANK_2: Bank2 to be erased
 509:../03_Drivers/STM32L4xx_HAL_Driver/Src/stm32l4xx_hal_flash_ex.c ****   *            @arg FLASH_BANK_BOTH: Bank1 and Bank2 to be erased
 510:../03_Drivers/STM32L4xx_HAL_Driver/Src/stm32l4xx_hal_flash_ex.c ****   * @retval None
 511:../03_Drivers/STM32L4xx_HAL_Driver/Src/stm32l4xx_hal_flash_ex.c ****   */
 512:../03_Drivers/STM32L4xx_HAL_Driver/Src/stm32l4xx_hal_flash_ex.c **** static void FLASH_MassErase(uint32_t Banks)
 513:../03_Drivers/STM32L4xx_HAL_Driver/Src/stm32l4xx_hal_flash_ex.c **** {
 514:../03_Drivers/STM32L4xx_HAL_Driver/Src/stm32l4xx_hal_flash_ex.c **** #if defined (STM32L4P5xx) || defined (STM32L4Q5xx) || defined (STM32L4R5xx) || defined (STM32L4R7xx
 515:../03_Drivers/STM32L4xx_HAL_Driver/Src/stm32l4xx_hal_flash_ex.c ****   if (READ_BIT(FLASH->OPTR, FLASH_OPTR_DBANK) != 0U)
 516:../03_Drivers/STM32L4xx_HAL_Driver/Src/stm32l4xx_hal_flash_ex.c **** #endif
 517:../03_Drivers/STM32L4xx_HAL_Driver/Src/stm32l4xx_hal_flash_ex.c ****   {
 518:../03_Drivers/STM32L4xx_HAL_Driver/Src/stm32l4xx_hal_flash_ex.c ****     /* Check the parameters */
 519:../03_Drivers/STM32L4xx_HAL_Driver/Src/stm32l4xx_hal_flash_ex.c ****     assert_param(IS_FLASH_BANK(Banks));
 520:../03_Drivers/STM32L4xx_HAL_Driver/Src/stm32l4xx_hal_flash_ex.c **** 
 521:../03_Drivers/STM32L4xx_HAL_Driver/Src/stm32l4xx_hal_flash_ex.c ****     /* Set the Mass Erase Bit for the bank 1 if requested */
 522:../03_Drivers/STM32L4xx_HAL_Driver/Src/stm32l4xx_hal_flash_ex.c ****     if((Banks & FLASH_BANK_1) != 0U)
 523:../03_Drivers/STM32L4xx_HAL_Driver/Src/stm32l4xx_hal_flash_ex.c ****     {
 524:../03_Drivers/STM32L4xx_HAL_Driver/Src/stm32l4xx_hal_flash_ex.c ****       SET_BIT(FLASH->CR, FLASH_CR_MER1);
 525:../03_Drivers/STM32L4xx_HAL_Driver/Src/stm32l4xx_hal_flash_ex.c ****     }
 526:../03_Drivers/STM32L4xx_HAL_Driver/Src/stm32l4xx_hal_flash_ex.c **** 
 527:../03_Drivers/STM32L4xx_HAL_Driver/Src/stm32l4xx_hal_flash_ex.c **** #if defined (STM32L471xx) || defined (STM32L475xx) || defined (STM32L476xx) || defined (STM32L485xx
 528:../03_Drivers/STM32L4xx_HAL_Driver/Src/stm32l4xx_hal_flash_ex.c ****     defined (STM32L496xx) || defined (STM32L4A6xx) || \
 529:../03_Drivers/STM32L4xx_HAL_Driver/Src/stm32l4xx_hal_flash_ex.c ****     defined (STM32L4P5xx) || defined (STM32L4Q5xx) || \
 530:../03_Drivers/STM32L4xx_HAL_Driver/Src/stm32l4xx_hal_flash_ex.c ****     defined (STM32L4R5xx) || defined (STM32L4R7xx) || defined (STM32L4R9xx) || defined (STM32L4S5xx
 531:../03_Drivers/STM32L4xx_HAL_Driver/Src/stm32l4xx_hal_flash_ex.c ****     /* Set the Mass Erase Bit for the bank 2 if requested */
 532:../03_Drivers/STM32L4xx_HAL_Driver/Src/stm32l4xx_hal_flash_ex.c ****     if((Banks & FLASH_BANK_2) != 0U)
 533:../03_Drivers/STM32L4xx_HAL_Driver/Src/stm32l4xx_hal_flash_ex.c ****     {
 534:../03_Drivers/STM32L4xx_HAL_Driver/Src/stm32l4xx_hal_flash_ex.c ****       SET_BIT(FLASH->CR, FLASH_CR_MER2);
 535:../03_Drivers/STM32L4xx_HAL_Driver/Src/stm32l4xx_hal_flash_ex.c ****     }
 536:../03_Drivers/STM32L4xx_HAL_Driver/Src/stm32l4xx_hal_flash_ex.c **** #endif
 537:../03_Drivers/STM32L4xx_HAL_Driver/Src/stm32l4xx_hal_flash_ex.c ****   }
 538:../03_Drivers/STM32L4xx_HAL_Driver/Src/stm32l4xx_hal_flash_ex.c **** #if defined (STM32L4P5xx) || defined (STM32L4Q5xx) || defined (STM32L4R5xx) || defined (STM32L4R7xx
 539:../03_Drivers/STM32L4xx_HAL_Driver/Src/stm32l4xx_hal_flash_ex.c ****   else
 540:../03_Drivers/STM32L4xx_HAL_Driver/Src/stm32l4xx_hal_flash_ex.c ****   {
 541:../03_Drivers/STM32L4xx_HAL_Driver/Src/stm32l4xx_hal_flash_ex.c ****     SET_BIT(FLASH->CR, (FLASH_CR_MER1 | FLASH_CR_MER2));
 542:../03_Drivers/STM32L4xx_HAL_Driver/Src/stm32l4xx_hal_flash_ex.c ****   }
 543:../03_Drivers/STM32L4xx_HAL_Driver/Src/stm32l4xx_hal_flash_ex.c **** #endif
ARM GAS  C:\Users\minde\AppData\Local\Temp\ccYkQJ5V.s 			page 11


 544:../03_Drivers/STM32L4xx_HAL_Driver/Src/stm32l4xx_hal_flash_ex.c **** 
 545:../03_Drivers/STM32L4xx_HAL_Driver/Src/stm32l4xx_hal_flash_ex.c ****   /* Proceed to erase all sectors */
 546:../03_Drivers/STM32L4xx_HAL_Driver/Src/stm32l4xx_hal_flash_ex.c ****   SET_BIT(FLASH->CR, FLASH_CR_STRT);
 547:../03_Drivers/STM32L4xx_HAL_Driver/Src/stm32l4xx_hal_flash_ex.c **** }
 548:../03_Drivers/STM32L4xx_HAL_Driver/Src/stm32l4xx_hal_flash_ex.c **** 
 549:../03_Drivers/STM32L4xx_HAL_Driver/Src/stm32l4xx_hal_flash_ex.c **** /**
 550:../03_Drivers/STM32L4xx_HAL_Driver/Src/stm32l4xx_hal_flash_ex.c ****   * @brief  Erase the specified FLASH memory page.
 551:../03_Drivers/STM32L4xx_HAL_Driver/Src/stm32l4xx_hal_flash_ex.c ****   * @param  Page FLASH page to erase
 552:../03_Drivers/STM32L4xx_HAL_Driver/Src/stm32l4xx_hal_flash_ex.c ****   *         This parameter must be a value between 0 and (max number of pages in the bank - 1)
 553:../03_Drivers/STM32L4xx_HAL_Driver/Src/stm32l4xx_hal_flash_ex.c ****   * @param  Banks Bank(s) where the page will be erased
 554:../03_Drivers/STM32L4xx_HAL_Driver/Src/stm32l4xx_hal_flash_ex.c ****   *          This parameter can be one of the following values:
 555:../03_Drivers/STM32L4xx_HAL_Driver/Src/stm32l4xx_hal_flash_ex.c ****   *            @arg FLASH_BANK_1: Page in bank 1 to be erased
 556:../03_Drivers/STM32L4xx_HAL_Driver/Src/stm32l4xx_hal_flash_ex.c ****   *            @arg FLASH_BANK_2: Page in bank 2 to be erased
 557:../03_Drivers/STM32L4xx_HAL_Driver/Src/stm32l4xx_hal_flash_ex.c ****   * @retval None
 558:../03_Drivers/STM32L4xx_HAL_Driver/Src/stm32l4xx_hal_flash_ex.c ****   */
 559:../03_Drivers/STM32L4xx_HAL_Driver/Src/stm32l4xx_hal_flash_ex.c **** void FLASH_PageErase(uint32_t Page, uint32_t Banks)
 560:../03_Drivers/STM32L4xx_HAL_Driver/Src/stm32l4xx_hal_flash_ex.c **** {
 561:../03_Drivers/STM32L4xx_HAL_Driver/Src/stm32l4xx_hal_flash_ex.c ****   /* Check the parameters */
 562:../03_Drivers/STM32L4xx_HAL_Driver/Src/stm32l4xx_hal_flash_ex.c ****   assert_param(IS_FLASH_PAGE(Page));
 563:../03_Drivers/STM32L4xx_HAL_Driver/Src/stm32l4xx_hal_flash_ex.c **** 
 564:../03_Drivers/STM32L4xx_HAL_Driver/Src/stm32l4xx_hal_flash_ex.c **** #if defined (STM32L471xx) || defined (STM32L475xx) || defined (STM32L476xx) || defined (STM32L485xx
 565:../03_Drivers/STM32L4xx_HAL_Driver/Src/stm32l4xx_hal_flash_ex.c ****     defined (STM32L496xx) || defined (STM32L4A6xx) || \
 566:../03_Drivers/STM32L4xx_HAL_Driver/Src/stm32l4xx_hal_flash_ex.c ****     defined (STM32L4P5xx) || defined (STM32L4Q5xx) || \
 567:../03_Drivers/STM32L4xx_HAL_Driver/Src/stm32l4xx_hal_flash_ex.c ****     defined (STM32L4R5xx) || defined (STM32L4R7xx) || defined (STM32L4R9xx) || defined (STM32L4S5xx
 568:../03_Drivers/STM32L4xx_HAL_Driver/Src/stm32l4xx_hal_flash_ex.c **** #if defined (STM32L4P5xx) || defined (STM32L4Q5xx) || defined (STM32L4R5xx) || defined (STM32L4R7xx
 569:../03_Drivers/STM32L4xx_HAL_Driver/Src/stm32l4xx_hal_flash_ex.c ****   if(READ_BIT(FLASH->OPTR, FLASH_OPTR_DBANK) == 0U)
 570:../03_Drivers/STM32L4xx_HAL_Driver/Src/stm32l4xx_hal_flash_ex.c ****   {
 571:../03_Drivers/STM32L4xx_HAL_Driver/Src/stm32l4xx_hal_flash_ex.c ****     CLEAR_BIT(FLASH->CR, FLASH_CR_BKER);
 572:../03_Drivers/STM32L4xx_HAL_Driver/Src/stm32l4xx_hal_flash_ex.c ****   }
 573:../03_Drivers/STM32L4xx_HAL_Driver/Src/stm32l4xx_hal_flash_ex.c ****   else
 574:../03_Drivers/STM32L4xx_HAL_Driver/Src/stm32l4xx_hal_flash_ex.c **** #endif
 575:../03_Drivers/STM32L4xx_HAL_Driver/Src/stm32l4xx_hal_flash_ex.c ****   {
 576:../03_Drivers/STM32L4xx_HAL_Driver/Src/stm32l4xx_hal_flash_ex.c ****     assert_param(IS_FLASH_BANK_EXCLUSIVE(Banks));
 577:../03_Drivers/STM32L4xx_HAL_Driver/Src/stm32l4xx_hal_flash_ex.c **** 
 578:../03_Drivers/STM32L4xx_HAL_Driver/Src/stm32l4xx_hal_flash_ex.c ****     if((Banks & FLASH_BANK_1) != 0U)
 579:../03_Drivers/STM32L4xx_HAL_Driver/Src/stm32l4xx_hal_flash_ex.c ****     {
 580:../03_Drivers/STM32L4xx_HAL_Driver/Src/stm32l4xx_hal_flash_ex.c ****       CLEAR_BIT(FLASH->CR, FLASH_CR_BKER);
 581:../03_Drivers/STM32L4xx_HAL_Driver/Src/stm32l4xx_hal_flash_ex.c ****     }
 582:../03_Drivers/STM32L4xx_HAL_Driver/Src/stm32l4xx_hal_flash_ex.c ****     else
 583:../03_Drivers/STM32L4xx_HAL_Driver/Src/stm32l4xx_hal_flash_ex.c ****     {
 584:../03_Drivers/STM32L4xx_HAL_Driver/Src/stm32l4xx_hal_flash_ex.c ****       SET_BIT(FLASH->CR, FLASH_CR_BKER);
 585:../03_Drivers/STM32L4xx_HAL_Driver/Src/stm32l4xx_hal_flash_ex.c ****     }
 586:../03_Drivers/STM32L4xx_HAL_Driver/Src/stm32l4xx_hal_flash_ex.c ****   }
 587:../03_Drivers/STM32L4xx_HAL_Driver/Src/stm32l4xx_hal_flash_ex.c **** #else
 588:../03_Drivers/STM32L4xx_HAL_Driver/Src/stm32l4xx_hal_flash_ex.c ****   /* Prevent unused argument(s) compilation warning */
 589:../03_Drivers/STM32L4xx_HAL_Driver/Src/stm32l4xx_hal_flash_ex.c ****   UNUSED(Banks);
 590:../03_Drivers/STM32L4xx_HAL_Driver/Src/stm32l4xx_hal_flash_ex.c **** #endif
 591:../03_Drivers/STM32L4xx_HAL_Driver/Src/stm32l4xx_hal_flash_ex.c **** 
 592:../03_Drivers/STM32L4xx_HAL_Driver/Src/stm32l4xx_hal_flash_ex.c ****   /* Proceed to erase the page */
 593:../03_Drivers/STM32L4xx_HAL_Driver/Src/stm32l4xx_hal_flash_ex.c ****   MODIFY_REG(FLASH->CR, FLASH_CR_PNB, ((Page & 0xFFU) << FLASH_CR_PNB_Pos));
 594:../03_Drivers/STM32L4xx_HAL_Driver/Src/stm32l4xx_hal_flash_ex.c ****   SET_BIT(FLASH->CR, FLASH_CR_PER);
 595:../03_Drivers/STM32L4xx_HAL_Driver/Src/stm32l4xx_hal_flash_ex.c ****   SET_BIT(FLASH->CR, FLASH_CR_STRT);
 596:../03_Drivers/STM32L4xx_HAL_Driver/Src/stm32l4xx_hal_flash_ex.c **** }
 597:../03_Drivers/STM32L4xx_HAL_Driver/Src/stm32l4xx_hal_flash_ex.c **** 
 598:../03_Drivers/STM32L4xx_HAL_Driver/Src/stm32l4xx_hal_flash_ex.c **** /**
 599:../03_Drivers/STM32L4xx_HAL_Driver/Src/stm32l4xx_hal_flash_ex.c ****   * @brief  Flush the instruction and data caches.
 600:../03_Drivers/STM32L4xx_HAL_Driver/Src/stm32l4xx_hal_flash_ex.c ****   * @retval None
ARM GAS  C:\Users\minde\AppData\Local\Temp\ccYkQJ5V.s 			page 12


 601:../03_Drivers/STM32L4xx_HAL_Driver/Src/stm32l4xx_hal_flash_ex.c ****   */
 602:../03_Drivers/STM32L4xx_HAL_Driver/Src/stm32l4xx_hal_flash_ex.c **** void FLASH_FlushCaches(void)
 603:../03_Drivers/STM32L4xx_HAL_Driver/Src/stm32l4xx_hal_flash_ex.c **** {
 604:../03_Drivers/STM32L4xx_HAL_Driver/Src/stm32l4xx_hal_flash_ex.c ****   FLASH_CacheTypeDef cache = pFlash.CacheToReactivate;
 605:../03_Drivers/STM32L4xx_HAL_Driver/Src/stm32l4xx_hal_flash_ex.c **** 
 606:../03_Drivers/STM32L4xx_HAL_Driver/Src/stm32l4xx_hal_flash_ex.c ****   /* Flush instruction cache  */
 607:../03_Drivers/STM32L4xx_HAL_Driver/Src/stm32l4xx_hal_flash_ex.c ****   if((cache == FLASH_CACHE_ICACHE_ENABLED) ||
 608:../03_Drivers/STM32L4xx_HAL_Driver/Src/stm32l4xx_hal_flash_ex.c ****      (cache == FLASH_CACHE_ICACHE_DCACHE_ENABLED))
 609:../03_Drivers/STM32L4xx_HAL_Driver/Src/stm32l4xx_hal_flash_ex.c ****   {
 610:../03_Drivers/STM32L4xx_HAL_Driver/Src/stm32l4xx_hal_flash_ex.c ****     /* Reset instruction cache */
 611:../03_Drivers/STM32L4xx_HAL_Driver/Src/stm32l4xx_hal_flash_ex.c ****     __HAL_FLASH_INSTRUCTION_CACHE_RESET();
 612:../03_Drivers/STM32L4xx_HAL_Driver/Src/stm32l4xx_hal_flash_ex.c ****     /* Enable instruction cache */
 613:../03_Drivers/STM32L4xx_HAL_Driver/Src/stm32l4xx_hal_flash_ex.c ****     __HAL_FLASH_INSTRUCTION_CACHE_ENABLE();
 614:../03_Drivers/STM32L4xx_HAL_Driver/Src/stm32l4xx_hal_flash_ex.c ****   }
 615:../03_Drivers/STM32L4xx_HAL_Driver/Src/stm32l4xx_hal_flash_ex.c **** 
 616:../03_Drivers/STM32L4xx_HAL_Driver/Src/stm32l4xx_hal_flash_ex.c ****   /* Flush data cache */
 617:../03_Drivers/STM32L4xx_HAL_Driver/Src/stm32l4xx_hal_flash_ex.c ****   if((cache == FLASH_CACHE_DCACHE_ENABLED) ||
 618:../03_Drivers/STM32L4xx_HAL_Driver/Src/stm32l4xx_hal_flash_ex.c ****      (cache == FLASH_CACHE_ICACHE_DCACHE_ENABLED))
 619:../03_Drivers/STM32L4xx_HAL_Driver/Src/stm32l4xx_hal_flash_ex.c ****   {
 620:../03_Drivers/STM32L4xx_HAL_Driver/Src/stm32l4xx_hal_flash_ex.c ****     /* Reset data cache */
 621:../03_Drivers/STM32L4xx_HAL_Driver/Src/stm32l4xx_hal_flash_ex.c ****     __HAL_FLASH_DATA_CACHE_RESET();
 622:../03_Drivers/STM32L4xx_HAL_Driver/Src/stm32l4xx_hal_flash_ex.c ****     /* Enable data cache */
 623:../03_Drivers/STM32L4xx_HAL_Driver/Src/stm32l4xx_hal_flash_ex.c ****     __HAL_FLASH_DATA_CACHE_ENABLE();
 624:../03_Drivers/STM32L4xx_HAL_Driver/Src/stm32l4xx_hal_flash_ex.c ****   }
 625:../03_Drivers/STM32L4xx_HAL_Driver/Src/stm32l4xx_hal_flash_ex.c **** 
 626:../03_Drivers/STM32L4xx_HAL_Driver/Src/stm32l4xx_hal_flash_ex.c ****   /* Reset internal variable */
 627:../03_Drivers/STM32L4xx_HAL_Driver/Src/stm32l4xx_hal_flash_ex.c ****   pFlash.CacheToReactivate = FLASH_CACHE_DISABLED;
 628:../03_Drivers/STM32L4xx_HAL_Driver/Src/stm32l4xx_hal_flash_ex.c **** }
 629:../03_Drivers/STM32L4xx_HAL_Driver/Src/stm32l4xx_hal_flash_ex.c **** 
 630:../03_Drivers/STM32L4xx_HAL_Driver/Src/stm32l4xx_hal_flash_ex.c **** /**
 631:../03_Drivers/STM32L4xx_HAL_Driver/Src/stm32l4xx_hal_flash_ex.c ****   * @brief  Configure the write protection of the desired pages.
 632:../03_Drivers/STM32L4xx_HAL_Driver/Src/stm32l4xx_hal_flash_ex.c ****   *
 633:../03_Drivers/STM32L4xx_HAL_Driver/Src/stm32l4xx_hal_flash_ex.c ****   * @note   When the memory read protection level is selected (RDP level = 1),
 634:../03_Drivers/STM32L4xx_HAL_Driver/Src/stm32l4xx_hal_flash_ex.c ****   *         it is not possible to program or erase Flash memory if the CPU debug
 635:../03_Drivers/STM32L4xx_HAL_Driver/Src/stm32l4xx_hal_flash_ex.c ****   *         features are connected (JTAG or single wire) or boot code is being
 636:../03_Drivers/STM32L4xx_HAL_Driver/Src/stm32l4xx_hal_flash_ex.c ****   *         executed from RAM or System flash, even if WRP is not activated.
 637:../03_Drivers/STM32L4xx_HAL_Driver/Src/stm32l4xx_hal_flash_ex.c ****   * @note   To configure the WRP options, the option lock bit OPTLOCK must be
 638:../03_Drivers/STM32L4xx_HAL_Driver/Src/stm32l4xx_hal_flash_ex.c ****   *         cleared with the call of the HAL_FLASH_OB_Unlock() function.
 639:../03_Drivers/STM32L4xx_HAL_Driver/Src/stm32l4xx_hal_flash_ex.c ****   * @note   To validate the WRP options, the option bytes must be reloaded
 640:../03_Drivers/STM32L4xx_HAL_Driver/Src/stm32l4xx_hal_flash_ex.c ****   *         through the call of the HAL_FLASH_OB_Launch() function.
 641:../03_Drivers/STM32L4xx_HAL_Driver/Src/stm32l4xx_hal_flash_ex.c ****   *
 642:../03_Drivers/STM32L4xx_HAL_Driver/Src/stm32l4xx_hal_flash_ex.c ****   * @param  WRPArea specifies the area to be configured.
 643:../03_Drivers/STM32L4xx_HAL_Driver/Src/stm32l4xx_hal_flash_ex.c ****   *          This parameter can be one of the following values:
 644:../03_Drivers/STM32L4xx_HAL_Driver/Src/stm32l4xx_hal_flash_ex.c ****   *            @arg OB_WRPAREA_BANK1_AREAA: Flash Bank 1 Area A
 645:../03_Drivers/STM32L4xx_HAL_Driver/Src/stm32l4xx_hal_flash_ex.c ****   *            @arg OB_WRPAREA_BANK1_AREAB: Flash Bank 1 Area B
 646:../03_Drivers/STM32L4xx_HAL_Driver/Src/stm32l4xx_hal_flash_ex.c ****   *            @arg OB_WRPAREA_BANK2_AREAA: Flash Bank 2 Area A  (don't apply for STM32L43x/STM32L4
 647:../03_Drivers/STM32L4xx_HAL_Driver/Src/stm32l4xx_hal_flash_ex.c ****   *            @arg OB_WRPAREA_BANK2_AREAB: Flash Bank 2 Area B  (don't apply for STM32L43x/STM32L4
 648:../03_Drivers/STM32L4xx_HAL_Driver/Src/stm32l4xx_hal_flash_ex.c ****   *
 649:../03_Drivers/STM32L4xx_HAL_Driver/Src/stm32l4xx_hal_flash_ex.c ****   * @param  WRPStartOffset specifies the start page of the write protected area
 650:../03_Drivers/STM32L4xx_HAL_Driver/Src/stm32l4xx_hal_flash_ex.c ****   *          This parameter can be page number between 0 and (max number of pages in the bank - 1)
 651:../03_Drivers/STM32L4xx_HAL_Driver/Src/stm32l4xx_hal_flash_ex.c ****   *
 652:../03_Drivers/STM32L4xx_HAL_Driver/Src/stm32l4xx_hal_flash_ex.c ****   * @param  WRDPEndOffset specifies the end page of the write protected area
 653:../03_Drivers/STM32L4xx_HAL_Driver/Src/stm32l4xx_hal_flash_ex.c ****   *          This parameter can be page number between WRPStartOffset and (max number of pages in t
 654:../03_Drivers/STM32L4xx_HAL_Driver/Src/stm32l4xx_hal_flash_ex.c ****   *
 655:../03_Drivers/STM32L4xx_HAL_Driver/Src/stm32l4xx_hal_flash_ex.c ****   * @retval HAL Status
 656:../03_Drivers/STM32L4xx_HAL_Driver/Src/stm32l4xx_hal_flash_ex.c ****   */
 657:../03_Drivers/STM32L4xx_HAL_Driver/Src/stm32l4xx_hal_flash_ex.c **** static HAL_StatusTypeDef FLASH_OB_WRPConfig(uint32_t WRPArea, uint32_t WRPStartOffset, uint32_t WRD
ARM GAS  C:\Users\minde\AppData\Local\Temp\ccYkQJ5V.s 			page 13


 658:../03_Drivers/STM32L4xx_HAL_Driver/Src/stm32l4xx_hal_flash_ex.c **** {
 659:../03_Drivers/STM32L4xx_HAL_Driver/Src/stm32l4xx_hal_flash_ex.c ****   HAL_StatusTypeDef status;
 660:../03_Drivers/STM32L4xx_HAL_Driver/Src/stm32l4xx_hal_flash_ex.c **** 
 661:../03_Drivers/STM32L4xx_HAL_Driver/Src/stm32l4xx_hal_flash_ex.c ****   /* Check the parameters */
 662:../03_Drivers/STM32L4xx_HAL_Driver/Src/stm32l4xx_hal_flash_ex.c ****   assert_param(IS_OB_WRPAREA(WRPArea));
 663:../03_Drivers/STM32L4xx_HAL_Driver/Src/stm32l4xx_hal_flash_ex.c ****   assert_param(IS_FLASH_PAGE(WRPStartOffset));
 664:../03_Drivers/STM32L4xx_HAL_Driver/Src/stm32l4xx_hal_flash_ex.c ****   assert_param(IS_FLASH_PAGE(WRDPEndOffset));
 665:../03_Drivers/STM32L4xx_HAL_Driver/Src/stm32l4xx_hal_flash_ex.c **** 
 666:../03_Drivers/STM32L4xx_HAL_Driver/Src/stm32l4xx_hal_flash_ex.c ****   /* Wait for last operation to be completed */
 667:../03_Drivers/STM32L4xx_HAL_Driver/Src/stm32l4xx_hal_flash_ex.c ****   status = FLASH_WaitForLastOperation((uint32_t)FLASH_TIMEOUT_VALUE);
 668:../03_Drivers/STM32L4xx_HAL_Driver/Src/stm32l4xx_hal_flash_ex.c **** 
 669:../03_Drivers/STM32L4xx_HAL_Driver/Src/stm32l4xx_hal_flash_ex.c ****   if(status == HAL_OK)
 670:../03_Drivers/STM32L4xx_HAL_Driver/Src/stm32l4xx_hal_flash_ex.c ****   {
 671:../03_Drivers/STM32L4xx_HAL_Driver/Src/stm32l4xx_hal_flash_ex.c ****     /* Configure the write protected area */
 672:../03_Drivers/STM32L4xx_HAL_Driver/Src/stm32l4xx_hal_flash_ex.c ****     if(WRPArea == OB_WRPAREA_BANK1_AREAA)
 673:../03_Drivers/STM32L4xx_HAL_Driver/Src/stm32l4xx_hal_flash_ex.c ****     {
 674:../03_Drivers/STM32L4xx_HAL_Driver/Src/stm32l4xx_hal_flash_ex.c ****       MODIFY_REG(FLASH->WRP1AR, (FLASH_WRP1AR_WRP1A_STRT | FLASH_WRP1AR_WRP1A_END),
 675:../03_Drivers/STM32L4xx_HAL_Driver/Src/stm32l4xx_hal_flash_ex.c ****                  (WRPStartOffset | (WRDPEndOffset << 16)));
 676:../03_Drivers/STM32L4xx_HAL_Driver/Src/stm32l4xx_hal_flash_ex.c ****     }
 677:../03_Drivers/STM32L4xx_HAL_Driver/Src/stm32l4xx_hal_flash_ex.c ****     else if(WRPArea == OB_WRPAREA_BANK1_AREAB)
 678:../03_Drivers/STM32L4xx_HAL_Driver/Src/stm32l4xx_hal_flash_ex.c ****     {
 679:../03_Drivers/STM32L4xx_HAL_Driver/Src/stm32l4xx_hal_flash_ex.c ****       MODIFY_REG(FLASH->WRP1BR, (FLASH_WRP1BR_WRP1B_STRT | FLASH_WRP1BR_WRP1B_END),
 680:../03_Drivers/STM32L4xx_HAL_Driver/Src/stm32l4xx_hal_flash_ex.c ****                  (WRPStartOffset | (WRDPEndOffset << 16)));
 681:../03_Drivers/STM32L4xx_HAL_Driver/Src/stm32l4xx_hal_flash_ex.c ****     }
 682:../03_Drivers/STM32L4xx_HAL_Driver/Src/stm32l4xx_hal_flash_ex.c **** #if defined (STM32L471xx) || defined (STM32L475xx) || defined (STM32L476xx) || defined (STM32L485xx
 683:../03_Drivers/STM32L4xx_HAL_Driver/Src/stm32l4xx_hal_flash_ex.c ****     defined (STM32L496xx) || defined (STM32L4A6xx) || \
 684:../03_Drivers/STM32L4xx_HAL_Driver/Src/stm32l4xx_hal_flash_ex.c ****     defined (STM32L4P5xx) || defined (STM32L4Q5xx) || \
 685:../03_Drivers/STM32L4xx_HAL_Driver/Src/stm32l4xx_hal_flash_ex.c ****     defined (STM32L4R5xx) || defined (STM32L4R7xx) || defined (STM32L4R9xx) || defined (STM32L4S5xx
 686:../03_Drivers/STM32L4xx_HAL_Driver/Src/stm32l4xx_hal_flash_ex.c ****     else if(WRPArea == OB_WRPAREA_BANK2_AREAA)
 687:../03_Drivers/STM32L4xx_HAL_Driver/Src/stm32l4xx_hal_flash_ex.c ****     {
 688:../03_Drivers/STM32L4xx_HAL_Driver/Src/stm32l4xx_hal_flash_ex.c ****       MODIFY_REG(FLASH->WRP2AR, (FLASH_WRP2AR_WRP2A_STRT | FLASH_WRP2AR_WRP2A_END),
 689:../03_Drivers/STM32L4xx_HAL_Driver/Src/stm32l4xx_hal_flash_ex.c ****                  (WRPStartOffset | (WRDPEndOffset << 16)));
 690:../03_Drivers/STM32L4xx_HAL_Driver/Src/stm32l4xx_hal_flash_ex.c ****     }
 691:../03_Drivers/STM32L4xx_HAL_Driver/Src/stm32l4xx_hal_flash_ex.c ****     else if(WRPArea == OB_WRPAREA_BANK2_AREAB)
 692:../03_Drivers/STM32L4xx_HAL_Driver/Src/stm32l4xx_hal_flash_ex.c ****     {
 693:../03_Drivers/STM32L4xx_HAL_Driver/Src/stm32l4xx_hal_flash_ex.c ****       MODIFY_REG(FLASH->WRP2BR, (FLASH_WRP2BR_WRP2B_STRT | FLASH_WRP2BR_WRP2B_END),
 694:../03_Drivers/STM32L4xx_HAL_Driver/Src/stm32l4xx_hal_flash_ex.c ****                  (WRPStartOffset | (WRDPEndOffset << 16)));
 695:../03_Drivers/STM32L4xx_HAL_Driver/Src/stm32l4xx_hal_flash_ex.c ****     }
 696:../03_Drivers/STM32L4xx_HAL_Driver/Src/stm32l4xx_hal_flash_ex.c **** #endif
 697:../03_Drivers/STM32L4xx_HAL_Driver/Src/stm32l4xx_hal_flash_ex.c ****     else
 698:../03_Drivers/STM32L4xx_HAL_Driver/Src/stm32l4xx_hal_flash_ex.c ****     {
 699:../03_Drivers/STM32L4xx_HAL_Driver/Src/stm32l4xx_hal_flash_ex.c ****       /* Nothing to do */
 700:../03_Drivers/STM32L4xx_HAL_Driver/Src/stm32l4xx_hal_flash_ex.c ****     }
 701:../03_Drivers/STM32L4xx_HAL_Driver/Src/stm32l4xx_hal_flash_ex.c **** 
 702:../03_Drivers/STM32L4xx_HAL_Driver/Src/stm32l4xx_hal_flash_ex.c ****     /* Set OPTSTRT Bit */
 703:../03_Drivers/STM32L4xx_HAL_Driver/Src/stm32l4xx_hal_flash_ex.c ****     SET_BIT(FLASH->CR, FLASH_CR_OPTSTRT);
 704:../03_Drivers/STM32L4xx_HAL_Driver/Src/stm32l4xx_hal_flash_ex.c **** 
 705:../03_Drivers/STM32L4xx_HAL_Driver/Src/stm32l4xx_hal_flash_ex.c ****     /* Wait for last operation to be completed */
 706:../03_Drivers/STM32L4xx_HAL_Driver/Src/stm32l4xx_hal_flash_ex.c ****     status = FLASH_WaitForLastOperation((uint32_t)FLASH_TIMEOUT_VALUE);
 707:../03_Drivers/STM32L4xx_HAL_Driver/Src/stm32l4xx_hal_flash_ex.c **** 
 708:../03_Drivers/STM32L4xx_HAL_Driver/Src/stm32l4xx_hal_flash_ex.c ****     /* If the option byte program operation is completed, disable the OPTSTRT Bit */
 709:../03_Drivers/STM32L4xx_HAL_Driver/Src/stm32l4xx_hal_flash_ex.c ****     CLEAR_BIT(FLASH->CR, FLASH_CR_OPTSTRT);
 710:../03_Drivers/STM32L4xx_HAL_Driver/Src/stm32l4xx_hal_flash_ex.c ****   }
 711:../03_Drivers/STM32L4xx_HAL_Driver/Src/stm32l4xx_hal_flash_ex.c **** 
 712:../03_Drivers/STM32L4xx_HAL_Driver/Src/stm32l4xx_hal_flash_ex.c ****   return status;
 713:../03_Drivers/STM32L4xx_HAL_Driver/Src/stm32l4xx_hal_flash_ex.c **** }
 714:../03_Drivers/STM32L4xx_HAL_Driver/Src/stm32l4xx_hal_flash_ex.c **** 
ARM GAS  C:\Users\minde\AppData\Local\Temp\ccYkQJ5V.s 			page 14


 715:../03_Drivers/STM32L4xx_HAL_Driver/Src/stm32l4xx_hal_flash_ex.c **** /**
 716:../03_Drivers/STM32L4xx_HAL_Driver/Src/stm32l4xx_hal_flash_ex.c ****   * @brief  Set the read protection level.
 717:../03_Drivers/STM32L4xx_HAL_Driver/Src/stm32l4xx_hal_flash_ex.c ****   *
 718:../03_Drivers/STM32L4xx_HAL_Driver/Src/stm32l4xx_hal_flash_ex.c ****   * @note   To configure the RDP level, the option lock bit OPTLOCK must be
 719:../03_Drivers/STM32L4xx_HAL_Driver/Src/stm32l4xx_hal_flash_ex.c ****   *         cleared with the call of the HAL_FLASH_OB_Unlock() function.
 720:../03_Drivers/STM32L4xx_HAL_Driver/Src/stm32l4xx_hal_flash_ex.c ****   * @note   To validate the RDP level, the option bytes must be reloaded
 721:../03_Drivers/STM32L4xx_HAL_Driver/Src/stm32l4xx_hal_flash_ex.c ****   *         through the call of the HAL_FLASH_OB_Launch() function.
 722:../03_Drivers/STM32L4xx_HAL_Driver/Src/stm32l4xx_hal_flash_ex.c ****   * @note   !!! Warning : When enabling OB_RDP level 2 it's no more possible
 723:../03_Drivers/STM32L4xx_HAL_Driver/Src/stm32l4xx_hal_flash_ex.c ****   *         to go back to level 1 or 0 !!!
 724:../03_Drivers/STM32L4xx_HAL_Driver/Src/stm32l4xx_hal_flash_ex.c ****   *
 725:../03_Drivers/STM32L4xx_HAL_Driver/Src/stm32l4xx_hal_flash_ex.c ****   * @param  RDPLevel specifies the read protection level.
 726:../03_Drivers/STM32L4xx_HAL_Driver/Src/stm32l4xx_hal_flash_ex.c ****   *         This parameter can be one of the following values:
 727:../03_Drivers/STM32L4xx_HAL_Driver/Src/stm32l4xx_hal_flash_ex.c ****   *            @arg OB_RDP_LEVEL_0: No protection
 728:../03_Drivers/STM32L4xx_HAL_Driver/Src/stm32l4xx_hal_flash_ex.c ****   *            @arg OB_RDP_LEVEL_1: Read protection of the memory
 729:../03_Drivers/STM32L4xx_HAL_Driver/Src/stm32l4xx_hal_flash_ex.c ****   *            @arg OB_RDP_LEVEL_2: Full chip protection
 730:../03_Drivers/STM32L4xx_HAL_Driver/Src/stm32l4xx_hal_flash_ex.c ****   *
 731:../03_Drivers/STM32L4xx_HAL_Driver/Src/stm32l4xx_hal_flash_ex.c ****   * @retval HAL status
 732:../03_Drivers/STM32L4xx_HAL_Driver/Src/stm32l4xx_hal_flash_ex.c ****   */
 733:../03_Drivers/STM32L4xx_HAL_Driver/Src/stm32l4xx_hal_flash_ex.c **** static HAL_StatusTypeDef FLASH_OB_RDPConfig(uint32_t RDPLevel)
 734:../03_Drivers/STM32L4xx_HAL_Driver/Src/stm32l4xx_hal_flash_ex.c **** {
 735:../03_Drivers/STM32L4xx_HAL_Driver/Src/stm32l4xx_hal_flash_ex.c ****   HAL_StatusTypeDef status;
 736:../03_Drivers/STM32L4xx_HAL_Driver/Src/stm32l4xx_hal_flash_ex.c **** 
 737:../03_Drivers/STM32L4xx_HAL_Driver/Src/stm32l4xx_hal_flash_ex.c ****   /* Check the parameters */
 738:../03_Drivers/STM32L4xx_HAL_Driver/Src/stm32l4xx_hal_flash_ex.c ****   assert_param(IS_OB_RDP_LEVEL(RDPLevel));
 739:../03_Drivers/STM32L4xx_HAL_Driver/Src/stm32l4xx_hal_flash_ex.c **** 
 740:../03_Drivers/STM32L4xx_HAL_Driver/Src/stm32l4xx_hal_flash_ex.c ****   /* Wait for last operation to be completed */
 741:../03_Drivers/STM32L4xx_HAL_Driver/Src/stm32l4xx_hal_flash_ex.c ****   status = FLASH_WaitForLastOperation((uint32_t)FLASH_TIMEOUT_VALUE);
 742:../03_Drivers/STM32L4xx_HAL_Driver/Src/stm32l4xx_hal_flash_ex.c **** 
 743:../03_Drivers/STM32L4xx_HAL_Driver/Src/stm32l4xx_hal_flash_ex.c ****   if(status == HAL_OK)
 744:../03_Drivers/STM32L4xx_HAL_Driver/Src/stm32l4xx_hal_flash_ex.c ****   {
 745:../03_Drivers/STM32L4xx_HAL_Driver/Src/stm32l4xx_hal_flash_ex.c ****     /* Configure the RDP level in the option bytes register */
 746:../03_Drivers/STM32L4xx_HAL_Driver/Src/stm32l4xx_hal_flash_ex.c ****     MODIFY_REG(FLASH->OPTR, FLASH_OPTR_RDP, RDPLevel);
 747:../03_Drivers/STM32L4xx_HAL_Driver/Src/stm32l4xx_hal_flash_ex.c **** 
 748:../03_Drivers/STM32L4xx_HAL_Driver/Src/stm32l4xx_hal_flash_ex.c ****     /* Set OPTSTRT Bit */
 749:../03_Drivers/STM32L4xx_HAL_Driver/Src/stm32l4xx_hal_flash_ex.c ****     SET_BIT(FLASH->CR, FLASH_CR_OPTSTRT);
 750:../03_Drivers/STM32L4xx_HAL_Driver/Src/stm32l4xx_hal_flash_ex.c **** 
 751:../03_Drivers/STM32L4xx_HAL_Driver/Src/stm32l4xx_hal_flash_ex.c ****     /* Wait for last operation to be completed */
 752:../03_Drivers/STM32L4xx_HAL_Driver/Src/stm32l4xx_hal_flash_ex.c ****     status = FLASH_WaitForLastOperation((uint32_t)FLASH_TIMEOUT_VALUE);
 753:../03_Drivers/STM32L4xx_HAL_Driver/Src/stm32l4xx_hal_flash_ex.c **** 
 754:../03_Drivers/STM32L4xx_HAL_Driver/Src/stm32l4xx_hal_flash_ex.c ****     /* If the option byte program operation is completed, disable the OPTSTRT Bit */
 755:../03_Drivers/STM32L4xx_HAL_Driver/Src/stm32l4xx_hal_flash_ex.c ****     CLEAR_BIT(FLASH->CR, FLASH_CR_OPTSTRT);
 756:../03_Drivers/STM32L4xx_HAL_Driver/Src/stm32l4xx_hal_flash_ex.c ****   }
 757:../03_Drivers/STM32L4xx_HAL_Driver/Src/stm32l4xx_hal_flash_ex.c **** 
 758:../03_Drivers/STM32L4xx_HAL_Driver/Src/stm32l4xx_hal_flash_ex.c ****   return status;
 759:../03_Drivers/STM32L4xx_HAL_Driver/Src/stm32l4xx_hal_flash_ex.c **** }
 760:../03_Drivers/STM32L4xx_HAL_Driver/Src/stm32l4xx_hal_flash_ex.c **** 
 761:../03_Drivers/STM32L4xx_HAL_Driver/Src/stm32l4xx_hal_flash_ex.c **** /**
 762:../03_Drivers/STM32L4xx_HAL_Driver/Src/stm32l4xx_hal_flash_ex.c ****   * @brief  Program the FLASH User Option Byte.
 763:../03_Drivers/STM32L4xx_HAL_Driver/Src/stm32l4xx_hal_flash_ex.c ****   *
 764:../03_Drivers/STM32L4xx_HAL_Driver/Src/stm32l4xx_hal_flash_ex.c ****   * @note   To configure the user option bytes, the option lock bit OPTLOCK must
 765:../03_Drivers/STM32L4xx_HAL_Driver/Src/stm32l4xx_hal_flash_ex.c ****   *         be cleared with the call of the HAL_FLASH_OB_Unlock() function.
 766:../03_Drivers/STM32L4xx_HAL_Driver/Src/stm32l4xx_hal_flash_ex.c ****   * @note   To validate the user option bytes, the option bytes must be reloaded
 767:../03_Drivers/STM32L4xx_HAL_Driver/Src/stm32l4xx_hal_flash_ex.c ****   *         through the call of the HAL_FLASH_OB_Launch() function.
 768:../03_Drivers/STM32L4xx_HAL_Driver/Src/stm32l4xx_hal_flash_ex.c ****   *
 769:../03_Drivers/STM32L4xx_HAL_Driver/Src/stm32l4xx_hal_flash_ex.c ****   * @param  UserType The FLASH User Option Bytes to be modified
 770:../03_Drivers/STM32L4xx_HAL_Driver/Src/stm32l4xx_hal_flash_ex.c ****   * @param  UserConfig The FLASH User Option Bytes values:
 771:../03_Drivers/STM32L4xx_HAL_Driver/Src/stm32l4xx_hal_flash_ex.c ****   *         BOR_LEV(Bit8-10), nRST_STOP(Bit12), nRST_STDBY(Bit13), IWDG_SW(Bit16),
ARM GAS  C:\Users\minde\AppData\Local\Temp\ccYkQJ5V.s 			page 15


 772:../03_Drivers/STM32L4xx_HAL_Driver/Src/stm32l4xx_hal_flash_ex.c ****   *         IWDG_STOP(Bit17), IWDG_STDBY(Bit18), WWDG_SW(Bit19), BFB2(Bit20),
 773:../03_Drivers/STM32L4xx_HAL_Driver/Src/stm32l4xx_hal_flash_ex.c ****   *         DUALBANK(Bit21), nBOOT1(Bit23), SRAM2_PE(Bit24) and SRAM2_RST(Bit25).
 774:../03_Drivers/STM32L4xx_HAL_Driver/Src/stm32l4xx_hal_flash_ex.c ****   *
 775:../03_Drivers/STM32L4xx_HAL_Driver/Src/stm32l4xx_hal_flash_ex.c ****   * @retval HAL status
 776:../03_Drivers/STM32L4xx_HAL_Driver/Src/stm32l4xx_hal_flash_ex.c ****   */
 777:../03_Drivers/STM32L4xx_HAL_Driver/Src/stm32l4xx_hal_flash_ex.c **** static HAL_StatusTypeDef FLASH_OB_UserConfig(uint32_t UserType, uint32_t UserConfig)
 778:../03_Drivers/STM32L4xx_HAL_Driver/Src/stm32l4xx_hal_flash_ex.c **** {
 779:../03_Drivers/STM32L4xx_HAL_Driver/Src/stm32l4xx_hal_flash_ex.c ****   uint32_t optr_reg_val = 0;
 780:../03_Drivers/STM32L4xx_HAL_Driver/Src/stm32l4xx_hal_flash_ex.c ****   uint32_t optr_reg_mask = 0;
 781:../03_Drivers/STM32L4xx_HAL_Driver/Src/stm32l4xx_hal_flash_ex.c ****   HAL_StatusTypeDef status;
 782:../03_Drivers/STM32L4xx_HAL_Driver/Src/stm32l4xx_hal_flash_ex.c **** 
 783:../03_Drivers/STM32L4xx_HAL_Driver/Src/stm32l4xx_hal_flash_ex.c ****   /* Check the parameters */
 784:../03_Drivers/STM32L4xx_HAL_Driver/Src/stm32l4xx_hal_flash_ex.c ****   assert_param(IS_OB_USER_TYPE(UserType));
 785:../03_Drivers/STM32L4xx_HAL_Driver/Src/stm32l4xx_hal_flash_ex.c **** 
 786:../03_Drivers/STM32L4xx_HAL_Driver/Src/stm32l4xx_hal_flash_ex.c ****   /* Wait for last operation to be completed */
 787:../03_Drivers/STM32L4xx_HAL_Driver/Src/stm32l4xx_hal_flash_ex.c ****   status = FLASH_WaitForLastOperation((uint32_t)FLASH_TIMEOUT_VALUE);
 788:../03_Drivers/STM32L4xx_HAL_Driver/Src/stm32l4xx_hal_flash_ex.c **** 
 789:../03_Drivers/STM32L4xx_HAL_Driver/Src/stm32l4xx_hal_flash_ex.c ****   if(status == HAL_OK)
 790:../03_Drivers/STM32L4xx_HAL_Driver/Src/stm32l4xx_hal_flash_ex.c ****   {
 791:../03_Drivers/STM32L4xx_HAL_Driver/Src/stm32l4xx_hal_flash_ex.c ****     if((UserType & OB_USER_BOR_LEV) != 0U)
 792:../03_Drivers/STM32L4xx_HAL_Driver/Src/stm32l4xx_hal_flash_ex.c ****     {
 793:../03_Drivers/STM32L4xx_HAL_Driver/Src/stm32l4xx_hal_flash_ex.c ****       /* BOR level option byte should be modified */
 794:../03_Drivers/STM32L4xx_HAL_Driver/Src/stm32l4xx_hal_flash_ex.c ****       assert_param(IS_OB_USER_BOR_LEVEL(UserConfig & FLASH_OPTR_BOR_LEV));
 795:../03_Drivers/STM32L4xx_HAL_Driver/Src/stm32l4xx_hal_flash_ex.c **** 
 796:../03_Drivers/STM32L4xx_HAL_Driver/Src/stm32l4xx_hal_flash_ex.c ****       /* Set value and mask for BOR level option byte */
 797:../03_Drivers/STM32L4xx_HAL_Driver/Src/stm32l4xx_hal_flash_ex.c ****       optr_reg_val |= (UserConfig & FLASH_OPTR_BOR_LEV);
 798:../03_Drivers/STM32L4xx_HAL_Driver/Src/stm32l4xx_hal_flash_ex.c ****       optr_reg_mask |= FLASH_OPTR_BOR_LEV;
 799:../03_Drivers/STM32L4xx_HAL_Driver/Src/stm32l4xx_hal_flash_ex.c ****     }
 800:../03_Drivers/STM32L4xx_HAL_Driver/Src/stm32l4xx_hal_flash_ex.c **** 
 801:../03_Drivers/STM32L4xx_HAL_Driver/Src/stm32l4xx_hal_flash_ex.c ****     if((UserType & OB_USER_nRST_STOP) != 0U)
 802:../03_Drivers/STM32L4xx_HAL_Driver/Src/stm32l4xx_hal_flash_ex.c ****     {
 803:../03_Drivers/STM32L4xx_HAL_Driver/Src/stm32l4xx_hal_flash_ex.c ****       /* nRST_STOP option byte should be modified */
 804:../03_Drivers/STM32L4xx_HAL_Driver/Src/stm32l4xx_hal_flash_ex.c ****       assert_param(IS_OB_USER_STOP(UserConfig & FLASH_OPTR_nRST_STOP));
 805:../03_Drivers/STM32L4xx_HAL_Driver/Src/stm32l4xx_hal_flash_ex.c **** 
 806:../03_Drivers/STM32L4xx_HAL_Driver/Src/stm32l4xx_hal_flash_ex.c ****       /* Set value and mask for nRST_STOP option byte */
 807:../03_Drivers/STM32L4xx_HAL_Driver/Src/stm32l4xx_hal_flash_ex.c ****       optr_reg_val |= (UserConfig & FLASH_OPTR_nRST_STOP);
 808:../03_Drivers/STM32L4xx_HAL_Driver/Src/stm32l4xx_hal_flash_ex.c ****       optr_reg_mask |= FLASH_OPTR_nRST_STOP;
 809:../03_Drivers/STM32L4xx_HAL_Driver/Src/stm32l4xx_hal_flash_ex.c ****     }
 810:../03_Drivers/STM32L4xx_HAL_Driver/Src/stm32l4xx_hal_flash_ex.c **** 
 811:../03_Drivers/STM32L4xx_HAL_Driver/Src/stm32l4xx_hal_flash_ex.c ****     if((UserType & OB_USER_nRST_STDBY) != 0U)
 812:../03_Drivers/STM32L4xx_HAL_Driver/Src/stm32l4xx_hal_flash_ex.c ****     {
 813:../03_Drivers/STM32L4xx_HAL_Driver/Src/stm32l4xx_hal_flash_ex.c ****       /* nRST_STDBY option byte should be modified */
 814:../03_Drivers/STM32L4xx_HAL_Driver/Src/stm32l4xx_hal_flash_ex.c ****       assert_param(IS_OB_USER_STANDBY(UserConfig & FLASH_OPTR_nRST_STDBY));
 815:../03_Drivers/STM32L4xx_HAL_Driver/Src/stm32l4xx_hal_flash_ex.c **** 
 816:../03_Drivers/STM32L4xx_HAL_Driver/Src/stm32l4xx_hal_flash_ex.c ****       /* Set value and mask for nRST_STDBY option byte */
 817:../03_Drivers/STM32L4xx_HAL_Driver/Src/stm32l4xx_hal_flash_ex.c ****       optr_reg_val |= (UserConfig & FLASH_OPTR_nRST_STDBY);
 818:../03_Drivers/STM32L4xx_HAL_Driver/Src/stm32l4xx_hal_flash_ex.c ****       optr_reg_mask |= FLASH_OPTR_nRST_STDBY;
 819:../03_Drivers/STM32L4xx_HAL_Driver/Src/stm32l4xx_hal_flash_ex.c ****     }
 820:../03_Drivers/STM32L4xx_HAL_Driver/Src/stm32l4xx_hal_flash_ex.c **** 
 821:../03_Drivers/STM32L4xx_HAL_Driver/Src/stm32l4xx_hal_flash_ex.c ****     if((UserType & OB_USER_nRST_SHDW) != 0U)
 822:../03_Drivers/STM32L4xx_HAL_Driver/Src/stm32l4xx_hal_flash_ex.c ****     {
 823:../03_Drivers/STM32L4xx_HAL_Driver/Src/stm32l4xx_hal_flash_ex.c ****       /* nRST_SHDW option byte should be modified */
 824:../03_Drivers/STM32L4xx_HAL_Driver/Src/stm32l4xx_hal_flash_ex.c ****       assert_param(IS_OB_USER_SHUTDOWN(UserConfig & FLASH_OPTR_nRST_SHDW));
 825:../03_Drivers/STM32L4xx_HAL_Driver/Src/stm32l4xx_hal_flash_ex.c **** 
 826:../03_Drivers/STM32L4xx_HAL_Driver/Src/stm32l4xx_hal_flash_ex.c ****       /* Set value and mask for nRST_SHDW option byte */
 827:../03_Drivers/STM32L4xx_HAL_Driver/Src/stm32l4xx_hal_flash_ex.c ****       optr_reg_val |= (UserConfig & FLASH_OPTR_nRST_SHDW);
 828:../03_Drivers/STM32L4xx_HAL_Driver/Src/stm32l4xx_hal_flash_ex.c ****       optr_reg_mask |= FLASH_OPTR_nRST_SHDW;
ARM GAS  C:\Users\minde\AppData\Local\Temp\ccYkQJ5V.s 			page 16


 829:../03_Drivers/STM32L4xx_HAL_Driver/Src/stm32l4xx_hal_flash_ex.c ****     }
 830:../03_Drivers/STM32L4xx_HAL_Driver/Src/stm32l4xx_hal_flash_ex.c **** 
 831:../03_Drivers/STM32L4xx_HAL_Driver/Src/stm32l4xx_hal_flash_ex.c ****     if((UserType & OB_USER_IWDG_SW) != 0U)
 832:../03_Drivers/STM32L4xx_HAL_Driver/Src/stm32l4xx_hal_flash_ex.c ****     {
 833:../03_Drivers/STM32L4xx_HAL_Driver/Src/stm32l4xx_hal_flash_ex.c ****       /* IWDG_SW option byte should be modified */
 834:../03_Drivers/STM32L4xx_HAL_Driver/Src/stm32l4xx_hal_flash_ex.c ****       assert_param(IS_OB_USER_IWDG(UserConfig & FLASH_OPTR_IWDG_SW));
 835:../03_Drivers/STM32L4xx_HAL_Driver/Src/stm32l4xx_hal_flash_ex.c **** 
 836:../03_Drivers/STM32L4xx_HAL_Driver/Src/stm32l4xx_hal_flash_ex.c ****       /* Set value and mask for IWDG_SW option byte */
 837:../03_Drivers/STM32L4xx_HAL_Driver/Src/stm32l4xx_hal_flash_ex.c ****       optr_reg_val |= (UserConfig & FLASH_OPTR_IWDG_SW);
 838:../03_Drivers/STM32L4xx_HAL_Driver/Src/stm32l4xx_hal_flash_ex.c ****       optr_reg_mask |= FLASH_OPTR_IWDG_SW;
 839:../03_Drivers/STM32L4xx_HAL_Driver/Src/stm32l4xx_hal_flash_ex.c ****     }
 840:../03_Drivers/STM32L4xx_HAL_Driver/Src/stm32l4xx_hal_flash_ex.c **** 
 841:../03_Drivers/STM32L4xx_HAL_Driver/Src/stm32l4xx_hal_flash_ex.c ****     if((UserType & OB_USER_IWDG_STOP) != 0U)
 842:../03_Drivers/STM32L4xx_HAL_Driver/Src/stm32l4xx_hal_flash_ex.c ****     {
 843:../03_Drivers/STM32L4xx_HAL_Driver/Src/stm32l4xx_hal_flash_ex.c ****       /* IWDG_STOP option byte should be modified */
 844:../03_Drivers/STM32L4xx_HAL_Driver/Src/stm32l4xx_hal_flash_ex.c ****       assert_param(IS_OB_USER_IWDG_STOP(UserConfig & FLASH_OPTR_IWDG_STOP));
 845:../03_Drivers/STM32L4xx_HAL_Driver/Src/stm32l4xx_hal_flash_ex.c **** 
 846:../03_Drivers/STM32L4xx_HAL_Driver/Src/stm32l4xx_hal_flash_ex.c ****       /* Set value and mask for IWDG_STOP option byte */
 847:../03_Drivers/STM32L4xx_HAL_Driver/Src/stm32l4xx_hal_flash_ex.c ****       optr_reg_val |= (UserConfig & FLASH_OPTR_IWDG_STOP);
 848:../03_Drivers/STM32L4xx_HAL_Driver/Src/stm32l4xx_hal_flash_ex.c ****       optr_reg_mask |= FLASH_OPTR_IWDG_STOP;
 849:../03_Drivers/STM32L4xx_HAL_Driver/Src/stm32l4xx_hal_flash_ex.c ****     }
 850:../03_Drivers/STM32L4xx_HAL_Driver/Src/stm32l4xx_hal_flash_ex.c **** 
 851:../03_Drivers/STM32L4xx_HAL_Driver/Src/stm32l4xx_hal_flash_ex.c ****     if((UserType & OB_USER_IWDG_STDBY) != 0U)
 852:../03_Drivers/STM32L4xx_HAL_Driver/Src/stm32l4xx_hal_flash_ex.c ****     {
 853:../03_Drivers/STM32L4xx_HAL_Driver/Src/stm32l4xx_hal_flash_ex.c ****       /* IWDG_STDBY option byte should be modified */
 854:../03_Drivers/STM32L4xx_HAL_Driver/Src/stm32l4xx_hal_flash_ex.c ****       assert_param(IS_OB_USER_IWDG_STDBY(UserConfig & FLASH_OPTR_IWDG_STDBY));
 855:../03_Drivers/STM32L4xx_HAL_Driver/Src/stm32l4xx_hal_flash_ex.c **** 
 856:../03_Drivers/STM32L4xx_HAL_Driver/Src/stm32l4xx_hal_flash_ex.c ****       /* Set value and mask for IWDG_STDBY option byte */
 857:../03_Drivers/STM32L4xx_HAL_Driver/Src/stm32l4xx_hal_flash_ex.c ****       optr_reg_val |= (UserConfig & FLASH_OPTR_IWDG_STDBY);
 858:../03_Drivers/STM32L4xx_HAL_Driver/Src/stm32l4xx_hal_flash_ex.c ****       optr_reg_mask |= FLASH_OPTR_IWDG_STDBY;
 859:../03_Drivers/STM32L4xx_HAL_Driver/Src/stm32l4xx_hal_flash_ex.c ****     }
 860:../03_Drivers/STM32L4xx_HAL_Driver/Src/stm32l4xx_hal_flash_ex.c **** 
 861:../03_Drivers/STM32L4xx_HAL_Driver/Src/stm32l4xx_hal_flash_ex.c ****     if((UserType & OB_USER_WWDG_SW) != 0U)
 862:../03_Drivers/STM32L4xx_HAL_Driver/Src/stm32l4xx_hal_flash_ex.c ****     {
 863:../03_Drivers/STM32L4xx_HAL_Driver/Src/stm32l4xx_hal_flash_ex.c ****       /* WWDG_SW option byte should be modified */
 864:../03_Drivers/STM32L4xx_HAL_Driver/Src/stm32l4xx_hal_flash_ex.c ****       assert_param(IS_OB_USER_WWDG(UserConfig & FLASH_OPTR_WWDG_SW));
 865:../03_Drivers/STM32L4xx_HAL_Driver/Src/stm32l4xx_hal_flash_ex.c **** 
 866:../03_Drivers/STM32L4xx_HAL_Driver/Src/stm32l4xx_hal_flash_ex.c ****       /* Set value and mask for WWDG_SW option byte */
 867:../03_Drivers/STM32L4xx_HAL_Driver/Src/stm32l4xx_hal_flash_ex.c ****       optr_reg_val |= (UserConfig & FLASH_OPTR_WWDG_SW);
 868:../03_Drivers/STM32L4xx_HAL_Driver/Src/stm32l4xx_hal_flash_ex.c ****       optr_reg_mask |= FLASH_OPTR_WWDG_SW;
 869:../03_Drivers/STM32L4xx_HAL_Driver/Src/stm32l4xx_hal_flash_ex.c ****     }
 870:../03_Drivers/STM32L4xx_HAL_Driver/Src/stm32l4xx_hal_flash_ex.c **** 
 871:../03_Drivers/STM32L4xx_HAL_Driver/Src/stm32l4xx_hal_flash_ex.c **** #if defined (STM32L471xx) || defined (STM32L475xx) || defined (STM32L476xx) || defined (STM32L485xx
 872:../03_Drivers/STM32L4xx_HAL_Driver/Src/stm32l4xx_hal_flash_ex.c ****     defined (STM32L496xx) || defined (STM32L4A6xx) || \
 873:../03_Drivers/STM32L4xx_HAL_Driver/Src/stm32l4xx_hal_flash_ex.c ****     defined (STM32L4P5xx) || defined (STM32L4Q5xx) || \
 874:../03_Drivers/STM32L4xx_HAL_Driver/Src/stm32l4xx_hal_flash_ex.c ****     defined (STM32L4R5xx) || defined (STM32L4R7xx) || defined (STM32L4R9xx) || defined (STM32L4S5xx
 875:../03_Drivers/STM32L4xx_HAL_Driver/Src/stm32l4xx_hal_flash_ex.c ****     if((UserType & OB_USER_BFB2) != 0U)
 876:../03_Drivers/STM32L4xx_HAL_Driver/Src/stm32l4xx_hal_flash_ex.c ****     {
 877:../03_Drivers/STM32L4xx_HAL_Driver/Src/stm32l4xx_hal_flash_ex.c ****       /* BFB2 option byte should be modified */
 878:../03_Drivers/STM32L4xx_HAL_Driver/Src/stm32l4xx_hal_flash_ex.c ****       assert_param(IS_OB_USER_BFB2(UserConfig & FLASH_OPTR_BFB2));
 879:../03_Drivers/STM32L4xx_HAL_Driver/Src/stm32l4xx_hal_flash_ex.c **** 
 880:../03_Drivers/STM32L4xx_HAL_Driver/Src/stm32l4xx_hal_flash_ex.c ****       /* Set value and mask for BFB2 option byte */
 881:../03_Drivers/STM32L4xx_HAL_Driver/Src/stm32l4xx_hal_flash_ex.c ****       optr_reg_val |= (UserConfig & FLASH_OPTR_BFB2);
 882:../03_Drivers/STM32L4xx_HAL_Driver/Src/stm32l4xx_hal_flash_ex.c ****       optr_reg_mask |= FLASH_OPTR_BFB2;
 883:../03_Drivers/STM32L4xx_HAL_Driver/Src/stm32l4xx_hal_flash_ex.c ****     }
 884:../03_Drivers/STM32L4xx_HAL_Driver/Src/stm32l4xx_hal_flash_ex.c **** 
 885:../03_Drivers/STM32L4xx_HAL_Driver/Src/stm32l4xx_hal_flash_ex.c ****     if((UserType & OB_USER_DUALBANK) != 0U)
ARM GAS  C:\Users\minde\AppData\Local\Temp\ccYkQJ5V.s 			page 17


 886:../03_Drivers/STM32L4xx_HAL_Driver/Src/stm32l4xx_hal_flash_ex.c ****     {
 887:../03_Drivers/STM32L4xx_HAL_Driver/Src/stm32l4xx_hal_flash_ex.c **** #if defined (STM32L4P5xx) || defined (STM32L4Q5xx) || defined (STM32L4R5xx) || defined (STM32L4R7xx
 888:../03_Drivers/STM32L4xx_HAL_Driver/Src/stm32l4xx_hal_flash_ex.c ****       /* DUALBANK option byte should be modified */
 889:../03_Drivers/STM32L4xx_HAL_Driver/Src/stm32l4xx_hal_flash_ex.c ****       assert_param(IS_OB_USER_DUALBANK(UserConfig & FLASH_OPTR_DB1M));
 890:../03_Drivers/STM32L4xx_HAL_Driver/Src/stm32l4xx_hal_flash_ex.c **** 
 891:../03_Drivers/STM32L4xx_HAL_Driver/Src/stm32l4xx_hal_flash_ex.c ****       /* Set value and mask for DUALBANK option byte */
 892:../03_Drivers/STM32L4xx_HAL_Driver/Src/stm32l4xx_hal_flash_ex.c ****       optr_reg_val |= (UserConfig & FLASH_OPTR_DB1M);
 893:../03_Drivers/STM32L4xx_HAL_Driver/Src/stm32l4xx_hal_flash_ex.c ****       optr_reg_mask |= FLASH_OPTR_DB1M;
 894:../03_Drivers/STM32L4xx_HAL_Driver/Src/stm32l4xx_hal_flash_ex.c **** #else
 895:../03_Drivers/STM32L4xx_HAL_Driver/Src/stm32l4xx_hal_flash_ex.c ****       /* DUALBANK option byte should be modified */
 896:../03_Drivers/STM32L4xx_HAL_Driver/Src/stm32l4xx_hal_flash_ex.c ****       assert_param(IS_OB_USER_DUALBANK(UserConfig & FLASH_OPTR_DUALBANK));
 897:../03_Drivers/STM32L4xx_HAL_Driver/Src/stm32l4xx_hal_flash_ex.c **** 
 898:../03_Drivers/STM32L4xx_HAL_Driver/Src/stm32l4xx_hal_flash_ex.c ****       /* Set value and mask for DUALBANK option byte */
 899:../03_Drivers/STM32L4xx_HAL_Driver/Src/stm32l4xx_hal_flash_ex.c ****       optr_reg_val |= (UserConfig & FLASH_OPTR_DUALBANK);
 900:../03_Drivers/STM32L4xx_HAL_Driver/Src/stm32l4xx_hal_flash_ex.c ****       optr_reg_mask |= FLASH_OPTR_DUALBANK;
 901:../03_Drivers/STM32L4xx_HAL_Driver/Src/stm32l4xx_hal_flash_ex.c **** #endif
 902:../03_Drivers/STM32L4xx_HAL_Driver/Src/stm32l4xx_hal_flash_ex.c ****     }
 903:../03_Drivers/STM32L4xx_HAL_Driver/Src/stm32l4xx_hal_flash_ex.c **** #endif
 904:../03_Drivers/STM32L4xx_HAL_Driver/Src/stm32l4xx_hal_flash_ex.c **** 
 905:../03_Drivers/STM32L4xx_HAL_Driver/Src/stm32l4xx_hal_flash_ex.c ****     if((UserType & OB_USER_nBOOT1) != 0U)
 906:../03_Drivers/STM32L4xx_HAL_Driver/Src/stm32l4xx_hal_flash_ex.c ****     {
 907:../03_Drivers/STM32L4xx_HAL_Driver/Src/stm32l4xx_hal_flash_ex.c ****       /* nBOOT1 option byte should be modified */
 908:../03_Drivers/STM32L4xx_HAL_Driver/Src/stm32l4xx_hal_flash_ex.c ****       assert_param(IS_OB_USER_BOOT1(UserConfig & FLASH_OPTR_nBOOT1));
 909:../03_Drivers/STM32L4xx_HAL_Driver/Src/stm32l4xx_hal_flash_ex.c **** 
 910:../03_Drivers/STM32L4xx_HAL_Driver/Src/stm32l4xx_hal_flash_ex.c ****       /* Set value and mask for nBOOT1 option byte */
 911:../03_Drivers/STM32L4xx_HAL_Driver/Src/stm32l4xx_hal_flash_ex.c ****       optr_reg_val |= (UserConfig & FLASH_OPTR_nBOOT1);
 912:../03_Drivers/STM32L4xx_HAL_Driver/Src/stm32l4xx_hal_flash_ex.c ****       optr_reg_mask |= FLASH_OPTR_nBOOT1;
 913:../03_Drivers/STM32L4xx_HAL_Driver/Src/stm32l4xx_hal_flash_ex.c ****     }
 914:../03_Drivers/STM32L4xx_HAL_Driver/Src/stm32l4xx_hal_flash_ex.c **** 
 915:../03_Drivers/STM32L4xx_HAL_Driver/Src/stm32l4xx_hal_flash_ex.c ****     if((UserType & OB_USER_SRAM2_PE) != 0U)
 916:../03_Drivers/STM32L4xx_HAL_Driver/Src/stm32l4xx_hal_flash_ex.c ****     {
 917:../03_Drivers/STM32L4xx_HAL_Driver/Src/stm32l4xx_hal_flash_ex.c ****       /* SRAM2_PE option byte should be modified */
 918:../03_Drivers/STM32L4xx_HAL_Driver/Src/stm32l4xx_hal_flash_ex.c ****       assert_param(IS_OB_USER_SRAM2_PARITY(UserConfig & FLASH_OPTR_SRAM2_PE));
 919:../03_Drivers/STM32L4xx_HAL_Driver/Src/stm32l4xx_hal_flash_ex.c **** 
 920:../03_Drivers/STM32L4xx_HAL_Driver/Src/stm32l4xx_hal_flash_ex.c ****       /* Set value and mask for SRAM2_PE option byte */
 921:../03_Drivers/STM32L4xx_HAL_Driver/Src/stm32l4xx_hal_flash_ex.c ****       optr_reg_val |= (UserConfig & FLASH_OPTR_SRAM2_PE);
 922:../03_Drivers/STM32L4xx_HAL_Driver/Src/stm32l4xx_hal_flash_ex.c ****       optr_reg_mask |= FLASH_OPTR_SRAM2_PE;
 923:../03_Drivers/STM32L4xx_HAL_Driver/Src/stm32l4xx_hal_flash_ex.c ****     }
 924:../03_Drivers/STM32L4xx_HAL_Driver/Src/stm32l4xx_hal_flash_ex.c **** 
 925:../03_Drivers/STM32L4xx_HAL_Driver/Src/stm32l4xx_hal_flash_ex.c ****     if((UserType & OB_USER_SRAM2_RST) != 0U)
 926:../03_Drivers/STM32L4xx_HAL_Driver/Src/stm32l4xx_hal_flash_ex.c ****     {
 927:../03_Drivers/STM32L4xx_HAL_Driver/Src/stm32l4xx_hal_flash_ex.c ****       /* SRAM2_RST option byte should be modified */
 928:../03_Drivers/STM32L4xx_HAL_Driver/Src/stm32l4xx_hal_flash_ex.c ****       assert_param(IS_OB_USER_SRAM2_RST(UserConfig & FLASH_OPTR_SRAM2_RST));
 929:../03_Drivers/STM32L4xx_HAL_Driver/Src/stm32l4xx_hal_flash_ex.c **** 
 930:../03_Drivers/STM32L4xx_HAL_Driver/Src/stm32l4xx_hal_flash_ex.c ****       /* Set value and mask for SRAM2_RST option byte */
 931:../03_Drivers/STM32L4xx_HAL_Driver/Src/stm32l4xx_hal_flash_ex.c ****       optr_reg_val |= (UserConfig & FLASH_OPTR_SRAM2_RST);
 932:../03_Drivers/STM32L4xx_HAL_Driver/Src/stm32l4xx_hal_flash_ex.c ****       optr_reg_mask |= FLASH_OPTR_SRAM2_RST;
 933:../03_Drivers/STM32L4xx_HAL_Driver/Src/stm32l4xx_hal_flash_ex.c ****     }
 934:../03_Drivers/STM32L4xx_HAL_Driver/Src/stm32l4xx_hal_flash_ex.c **** 
 935:../03_Drivers/STM32L4xx_HAL_Driver/Src/stm32l4xx_hal_flash_ex.c **** #if defined (STM32L412xx) || defined (STM32L422xx) || defined (STM32L431xx) || defined (STM32L432xx
 936:../03_Drivers/STM32L4xx_HAL_Driver/Src/stm32l4xx_hal_flash_ex.c ****     defined (STM32L442xx) || defined (STM32L443xx) || defined (STM32L451xx) || defined (STM32L452xx
 937:../03_Drivers/STM32L4xx_HAL_Driver/Src/stm32l4xx_hal_flash_ex.c ****     defined (STM32L496xx) || defined (STM32L4A6xx) || \
 938:../03_Drivers/STM32L4xx_HAL_Driver/Src/stm32l4xx_hal_flash_ex.c ****     defined (STM32L4P5xx) || defined (STM32L4Q5xx) || \
 939:../03_Drivers/STM32L4xx_HAL_Driver/Src/stm32l4xx_hal_flash_ex.c ****     defined (STM32L4R5xx) || defined (STM32L4R7xx) || defined (STM32L4R9xx) || defined (STM32L4S5xx
 940:../03_Drivers/STM32L4xx_HAL_Driver/Src/stm32l4xx_hal_flash_ex.c ****     if((UserType & OB_USER_nSWBOOT0) != 0U)
 941:../03_Drivers/STM32L4xx_HAL_Driver/Src/stm32l4xx_hal_flash_ex.c ****     {
 942:../03_Drivers/STM32L4xx_HAL_Driver/Src/stm32l4xx_hal_flash_ex.c ****       /* nSWBOOT0 option byte should be modified */
ARM GAS  C:\Users\minde\AppData\Local\Temp\ccYkQJ5V.s 			page 18


 943:../03_Drivers/STM32L4xx_HAL_Driver/Src/stm32l4xx_hal_flash_ex.c ****       assert_param(IS_OB_USER_SWBOOT0(UserConfig & FLASH_OPTR_nSWBOOT0));
 944:../03_Drivers/STM32L4xx_HAL_Driver/Src/stm32l4xx_hal_flash_ex.c **** 
 945:../03_Drivers/STM32L4xx_HAL_Driver/Src/stm32l4xx_hal_flash_ex.c ****       /* Set value and mask for nSWBOOT0 option byte */
 946:../03_Drivers/STM32L4xx_HAL_Driver/Src/stm32l4xx_hal_flash_ex.c ****       optr_reg_val |= (UserConfig & FLASH_OPTR_nSWBOOT0);
 947:../03_Drivers/STM32L4xx_HAL_Driver/Src/stm32l4xx_hal_flash_ex.c ****       optr_reg_mask |= FLASH_OPTR_nSWBOOT0;
 948:../03_Drivers/STM32L4xx_HAL_Driver/Src/stm32l4xx_hal_flash_ex.c ****     }
 949:../03_Drivers/STM32L4xx_HAL_Driver/Src/stm32l4xx_hal_flash_ex.c **** 
 950:../03_Drivers/STM32L4xx_HAL_Driver/Src/stm32l4xx_hal_flash_ex.c ****     if((UserType & OB_USER_nBOOT0) != 0U)
 951:../03_Drivers/STM32L4xx_HAL_Driver/Src/stm32l4xx_hal_flash_ex.c ****     {
 952:../03_Drivers/STM32L4xx_HAL_Driver/Src/stm32l4xx_hal_flash_ex.c ****       /* nBOOT0 option byte should be modified */
 953:../03_Drivers/STM32L4xx_HAL_Driver/Src/stm32l4xx_hal_flash_ex.c ****       assert_param(IS_OB_USER_BOOT0(UserConfig & FLASH_OPTR_nBOOT0));
 954:../03_Drivers/STM32L4xx_HAL_Driver/Src/stm32l4xx_hal_flash_ex.c **** 
 955:../03_Drivers/STM32L4xx_HAL_Driver/Src/stm32l4xx_hal_flash_ex.c ****       /* Set value and mask for nBOOT0 option byte */
 956:../03_Drivers/STM32L4xx_HAL_Driver/Src/stm32l4xx_hal_flash_ex.c ****       optr_reg_val |= (UserConfig & FLASH_OPTR_nBOOT0);
 957:../03_Drivers/STM32L4xx_HAL_Driver/Src/stm32l4xx_hal_flash_ex.c ****       optr_reg_mask |= FLASH_OPTR_nBOOT0;
 958:../03_Drivers/STM32L4xx_HAL_Driver/Src/stm32l4xx_hal_flash_ex.c ****     }
 959:../03_Drivers/STM32L4xx_HAL_Driver/Src/stm32l4xx_hal_flash_ex.c **** #endif
 960:../03_Drivers/STM32L4xx_HAL_Driver/Src/stm32l4xx_hal_flash_ex.c **** 
 961:../03_Drivers/STM32L4xx_HAL_Driver/Src/stm32l4xx_hal_flash_ex.c ****     /* Configure the option bytes register */
 962:../03_Drivers/STM32L4xx_HAL_Driver/Src/stm32l4xx_hal_flash_ex.c ****     MODIFY_REG(FLASH->OPTR, optr_reg_mask, optr_reg_val);
 963:../03_Drivers/STM32L4xx_HAL_Driver/Src/stm32l4xx_hal_flash_ex.c **** 
 964:../03_Drivers/STM32L4xx_HAL_Driver/Src/stm32l4xx_hal_flash_ex.c ****     /* Set OPTSTRT Bit */
 965:../03_Drivers/STM32L4xx_HAL_Driver/Src/stm32l4xx_hal_flash_ex.c ****     SET_BIT(FLASH->CR, FLASH_CR_OPTSTRT);
 966:../03_Drivers/STM32L4xx_HAL_Driver/Src/stm32l4xx_hal_flash_ex.c **** 
 967:../03_Drivers/STM32L4xx_HAL_Driver/Src/stm32l4xx_hal_flash_ex.c ****     /* Wait for last operation to be completed */
 968:../03_Drivers/STM32L4xx_HAL_Driver/Src/stm32l4xx_hal_flash_ex.c ****     status = FLASH_WaitForLastOperation((uint32_t)FLASH_TIMEOUT_VALUE);
 969:../03_Drivers/STM32L4xx_HAL_Driver/Src/stm32l4xx_hal_flash_ex.c **** 
 970:../03_Drivers/STM32L4xx_HAL_Driver/Src/stm32l4xx_hal_flash_ex.c ****     /* If the option byte program operation is completed, disable the OPTSTRT Bit */
 971:../03_Drivers/STM32L4xx_HAL_Driver/Src/stm32l4xx_hal_flash_ex.c ****     CLEAR_BIT(FLASH->CR, FLASH_CR_OPTSTRT);
 972:../03_Drivers/STM32L4xx_HAL_Driver/Src/stm32l4xx_hal_flash_ex.c ****   }
 973:../03_Drivers/STM32L4xx_HAL_Driver/Src/stm32l4xx_hal_flash_ex.c **** 
 974:../03_Drivers/STM32L4xx_HAL_Driver/Src/stm32l4xx_hal_flash_ex.c ****   return status;
 975:../03_Drivers/STM32L4xx_HAL_Driver/Src/stm32l4xx_hal_flash_ex.c **** }
 976:../03_Drivers/STM32L4xx_HAL_Driver/Src/stm32l4xx_hal_flash_ex.c **** 
 977:../03_Drivers/STM32L4xx_HAL_Driver/Src/stm32l4xx_hal_flash_ex.c **** /**
 978:../03_Drivers/STM32L4xx_HAL_Driver/Src/stm32l4xx_hal_flash_ex.c ****   * @brief  Configure the Proprietary code readout protection of the desired addresses.
 979:../03_Drivers/STM32L4xx_HAL_Driver/Src/stm32l4xx_hal_flash_ex.c ****   *
 980:../03_Drivers/STM32L4xx_HAL_Driver/Src/stm32l4xx_hal_flash_ex.c ****   * @note   To configure the PCROP options, the option lock bit OPTLOCK must be
 981:../03_Drivers/STM32L4xx_HAL_Driver/Src/stm32l4xx_hal_flash_ex.c ****   *         cleared with the call of the HAL_FLASH_OB_Unlock() function.
 982:../03_Drivers/STM32L4xx_HAL_Driver/Src/stm32l4xx_hal_flash_ex.c ****   * @note   To validate the PCROP options, the option bytes must be reloaded
 983:../03_Drivers/STM32L4xx_HAL_Driver/Src/stm32l4xx_hal_flash_ex.c ****   *         through the call of the HAL_FLASH_OB_Launch() function.
 984:../03_Drivers/STM32L4xx_HAL_Driver/Src/stm32l4xx_hal_flash_ex.c ****   *
 985:../03_Drivers/STM32L4xx_HAL_Driver/Src/stm32l4xx_hal_flash_ex.c ****   * @param  PCROPConfig specifies the configuration (Bank to be configured and PCROP_RDP option).
 986:../03_Drivers/STM32L4xx_HAL_Driver/Src/stm32l4xx_hal_flash_ex.c ****   *          This parameter must be a combination of FLASH_BANK_1 or FLASH_BANK_2
 987:../03_Drivers/STM32L4xx_HAL_Driver/Src/stm32l4xx_hal_flash_ex.c ****   *          with OB_PCROP_RDP_NOT_ERASE or OB_PCROP_RDP_ERASE
 988:../03_Drivers/STM32L4xx_HAL_Driver/Src/stm32l4xx_hal_flash_ex.c ****   *
 989:../03_Drivers/STM32L4xx_HAL_Driver/Src/stm32l4xx_hal_flash_ex.c ****   * @param  PCROPStartAddr specifies the start address of the Proprietary code readout protection
 990:../03_Drivers/STM32L4xx_HAL_Driver/Src/stm32l4xx_hal_flash_ex.c ****   *          This parameter can be an address between begin and end of the bank
 991:../03_Drivers/STM32L4xx_HAL_Driver/Src/stm32l4xx_hal_flash_ex.c ****   *
 992:../03_Drivers/STM32L4xx_HAL_Driver/Src/stm32l4xx_hal_flash_ex.c ****   * @param  PCROPEndAddr specifies the end address of the Proprietary code readout protection
 993:../03_Drivers/STM32L4xx_HAL_Driver/Src/stm32l4xx_hal_flash_ex.c ****   *          This parameter can be an address between PCROPStartAddr and end of the bank
 994:../03_Drivers/STM32L4xx_HAL_Driver/Src/stm32l4xx_hal_flash_ex.c ****   *
 995:../03_Drivers/STM32L4xx_HAL_Driver/Src/stm32l4xx_hal_flash_ex.c ****   * @retval HAL Status
 996:../03_Drivers/STM32L4xx_HAL_Driver/Src/stm32l4xx_hal_flash_ex.c ****   */
 997:../03_Drivers/STM32L4xx_HAL_Driver/Src/stm32l4xx_hal_flash_ex.c **** static HAL_StatusTypeDef FLASH_OB_PCROPConfig(uint32_t PCROPConfig, uint32_t PCROPStartAddr, uint32
 998:../03_Drivers/STM32L4xx_HAL_Driver/Src/stm32l4xx_hal_flash_ex.c **** {
 999:../03_Drivers/STM32L4xx_HAL_Driver/Src/stm32l4xx_hal_flash_ex.c ****   HAL_StatusTypeDef status;
ARM GAS  C:\Users\minde\AppData\Local\Temp\ccYkQJ5V.s 			page 19


1000:../03_Drivers/STM32L4xx_HAL_Driver/Src/stm32l4xx_hal_flash_ex.c ****   uint32_t reg_value;
1001:../03_Drivers/STM32L4xx_HAL_Driver/Src/stm32l4xx_hal_flash_ex.c ****   uint32_t bank1_addr;
1002:../03_Drivers/STM32L4xx_HAL_Driver/Src/stm32l4xx_hal_flash_ex.c **** #if defined (STM32L471xx) || defined (STM32L475xx) || defined (STM32L476xx) || defined (STM32L485xx
1003:../03_Drivers/STM32L4xx_HAL_Driver/Src/stm32l4xx_hal_flash_ex.c ****     defined (STM32L496xx) || defined (STM32L4A6xx) || \
1004:../03_Drivers/STM32L4xx_HAL_Driver/Src/stm32l4xx_hal_flash_ex.c ****     defined (STM32L4P5xx) || defined (STM32L4Q5xx) || \
1005:../03_Drivers/STM32L4xx_HAL_Driver/Src/stm32l4xx_hal_flash_ex.c ****     defined (STM32L4R5xx) || defined (STM32L4R7xx) || defined (STM32L4R9xx) || defined (STM32L4S5xx
1006:../03_Drivers/STM32L4xx_HAL_Driver/Src/stm32l4xx_hal_flash_ex.c ****   uint32_t bank2_addr;
1007:../03_Drivers/STM32L4xx_HAL_Driver/Src/stm32l4xx_hal_flash_ex.c **** #endif
1008:../03_Drivers/STM32L4xx_HAL_Driver/Src/stm32l4xx_hal_flash_ex.c **** 
1009:../03_Drivers/STM32L4xx_HAL_Driver/Src/stm32l4xx_hal_flash_ex.c ****   /* Check the parameters */
1010:../03_Drivers/STM32L4xx_HAL_Driver/Src/stm32l4xx_hal_flash_ex.c ****   assert_param(IS_FLASH_BANK_EXCLUSIVE(PCROPConfig & FLASH_BANK_BOTH));
1011:../03_Drivers/STM32L4xx_HAL_Driver/Src/stm32l4xx_hal_flash_ex.c ****   assert_param(IS_OB_PCROP_RDP(PCROPConfig & FLASH_PCROP1ER_PCROP_RDP));
1012:../03_Drivers/STM32L4xx_HAL_Driver/Src/stm32l4xx_hal_flash_ex.c ****   assert_param(IS_FLASH_MAIN_MEM_ADDRESS(PCROPStartAddr));
1013:../03_Drivers/STM32L4xx_HAL_Driver/Src/stm32l4xx_hal_flash_ex.c ****   assert_param(IS_FLASH_MAIN_MEM_ADDRESS(PCROPEndAddr));
1014:../03_Drivers/STM32L4xx_HAL_Driver/Src/stm32l4xx_hal_flash_ex.c **** 
1015:../03_Drivers/STM32L4xx_HAL_Driver/Src/stm32l4xx_hal_flash_ex.c ****   /* Wait for last operation to be completed */
1016:../03_Drivers/STM32L4xx_HAL_Driver/Src/stm32l4xx_hal_flash_ex.c ****   status = FLASH_WaitForLastOperation((uint32_t)FLASH_TIMEOUT_VALUE);
1017:../03_Drivers/STM32L4xx_HAL_Driver/Src/stm32l4xx_hal_flash_ex.c **** 
1018:../03_Drivers/STM32L4xx_HAL_Driver/Src/stm32l4xx_hal_flash_ex.c ****   if(status == HAL_OK)
1019:../03_Drivers/STM32L4xx_HAL_Driver/Src/stm32l4xx_hal_flash_ex.c ****   {
1020:../03_Drivers/STM32L4xx_HAL_Driver/Src/stm32l4xx_hal_flash_ex.c **** #if defined (STM32L471xx) || defined (STM32L475xx) || defined (STM32L476xx) || defined (STM32L485xx
1021:../03_Drivers/STM32L4xx_HAL_Driver/Src/stm32l4xx_hal_flash_ex.c ****     defined (STM32L496xx) || defined (STM32L4A6xx) || \
1022:../03_Drivers/STM32L4xx_HAL_Driver/Src/stm32l4xx_hal_flash_ex.c ****     defined (STM32L4P5xx) || defined (STM32L4Q5xx) || \
1023:../03_Drivers/STM32L4xx_HAL_Driver/Src/stm32l4xx_hal_flash_ex.c ****     defined (STM32L4R5xx) || defined (STM32L4R7xx) || defined (STM32L4R9xx) || defined (STM32L4S5xx
1024:../03_Drivers/STM32L4xx_HAL_Driver/Src/stm32l4xx_hal_flash_ex.c ****     /* Get the information about the bank swapping */
1025:../03_Drivers/STM32L4xx_HAL_Driver/Src/stm32l4xx_hal_flash_ex.c ****     if (READ_BIT(SYSCFG->MEMRMP, SYSCFG_MEMRMP_FB_MODE) == 0U)
1026:../03_Drivers/STM32L4xx_HAL_Driver/Src/stm32l4xx_hal_flash_ex.c ****     {
1027:../03_Drivers/STM32L4xx_HAL_Driver/Src/stm32l4xx_hal_flash_ex.c ****       bank1_addr = FLASH_BASE;
1028:../03_Drivers/STM32L4xx_HAL_Driver/Src/stm32l4xx_hal_flash_ex.c ****       bank2_addr = FLASH_BASE + FLASH_BANK_SIZE;
1029:../03_Drivers/STM32L4xx_HAL_Driver/Src/stm32l4xx_hal_flash_ex.c ****     }
1030:../03_Drivers/STM32L4xx_HAL_Driver/Src/stm32l4xx_hal_flash_ex.c ****     else
1031:../03_Drivers/STM32L4xx_HAL_Driver/Src/stm32l4xx_hal_flash_ex.c ****     {
1032:../03_Drivers/STM32L4xx_HAL_Driver/Src/stm32l4xx_hal_flash_ex.c ****       bank1_addr = FLASH_BASE + FLASH_BANK_SIZE;
1033:../03_Drivers/STM32L4xx_HAL_Driver/Src/stm32l4xx_hal_flash_ex.c ****       bank2_addr = FLASH_BASE;
1034:../03_Drivers/STM32L4xx_HAL_Driver/Src/stm32l4xx_hal_flash_ex.c ****     }
1035:../03_Drivers/STM32L4xx_HAL_Driver/Src/stm32l4xx_hal_flash_ex.c **** #else
1036:../03_Drivers/STM32L4xx_HAL_Driver/Src/stm32l4xx_hal_flash_ex.c ****     bank1_addr = FLASH_BASE;
1037:../03_Drivers/STM32L4xx_HAL_Driver/Src/stm32l4xx_hal_flash_ex.c **** #endif
1038:../03_Drivers/STM32L4xx_HAL_Driver/Src/stm32l4xx_hal_flash_ex.c **** 
1039:../03_Drivers/STM32L4xx_HAL_Driver/Src/stm32l4xx_hal_flash_ex.c **** #if defined (STM32L4P5xx) || defined (STM32L4Q5xx) || defined (STM32L4R5xx) || defined (STM32L4R7xx
1040:../03_Drivers/STM32L4xx_HAL_Driver/Src/stm32l4xx_hal_flash_ex.c ****     if (READ_BIT(FLASH->OPTR, FLASH_OPTR_DBANK) == 0U)
1041:../03_Drivers/STM32L4xx_HAL_Driver/Src/stm32l4xx_hal_flash_ex.c ****     {
1042:../03_Drivers/STM32L4xx_HAL_Driver/Src/stm32l4xx_hal_flash_ex.c ****       /* Configure the Proprietary code readout protection */
1043:../03_Drivers/STM32L4xx_HAL_Driver/Src/stm32l4xx_hal_flash_ex.c ****       if((PCROPConfig & FLASH_BANK_BOTH) == FLASH_BANK_1)
1044:../03_Drivers/STM32L4xx_HAL_Driver/Src/stm32l4xx_hal_flash_ex.c ****       {
1045:../03_Drivers/STM32L4xx_HAL_Driver/Src/stm32l4xx_hal_flash_ex.c ****         reg_value = ((PCROPStartAddr - FLASH_BASE) >> 4);
1046:../03_Drivers/STM32L4xx_HAL_Driver/Src/stm32l4xx_hal_flash_ex.c ****         MODIFY_REG(FLASH->PCROP1SR, FLASH_PCROP1SR_PCROP1_STRT, reg_value);
1047:../03_Drivers/STM32L4xx_HAL_Driver/Src/stm32l4xx_hal_flash_ex.c **** 
1048:../03_Drivers/STM32L4xx_HAL_Driver/Src/stm32l4xx_hal_flash_ex.c ****         reg_value = ((PCROPEndAddr - FLASH_BASE) >> 4);
1049:../03_Drivers/STM32L4xx_HAL_Driver/Src/stm32l4xx_hal_flash_ex.c ****         MODIFY_REG(FLASH->PCROP1ER, FLASH_PCROP1ER_PCROP1_END, reg_value);
1050:../03_Drivers/STM32L4xx_HAL_Driver/Src/stm32l4xx_hal_flash_ex.c ****       }
1051:../03_Drivers/STM32L4xx_HAL_Driver/Src/stm32l4xx_hal_flash_ex.c ****       else if((PCROPConfig & FLASH_BANK_BOTH) == FLASH_BANK_2)
1052:../03_Drivers/STM32L4xx_HAL_Driver/Src/stm32l4xx_hal_flash_ex.c ****       {
1053:../03_Drivers/STM32L4xx_HAL_Driver/Src/stm32l4xx_hal_flash_ex.c ****         reg_value = ((PCROPStartAddr - FLASH_BASE) >> 4);
1054:../03_Drivers/STM32L4xx_HAL_Driver/Src/stm32l4xx_hal_flash_ex.c ****         MODIFY_REG(FLASH->PCROP2SR, FLASH_PCROP2SR_PCROP2_STRT, reg_value);
1055:../03_Drivers/STM32L4xx_HAL_Driver/Src/stm32l4xx_hal_flash_ex.c **** 
1056:../03_Drivers/STM32L4xx_HAL_Driver/Src/stm32l4xx_hal_flash_ex.c ****         reg_value = ((PCROPEndAddr - FLASH_BASE) >> 4);
ARM GAS  C:\Users\minde\AppData\Local\Temp\ccYkQJ5V.s 			page 20


1057:../03_Drivers/STM32L4xx_HAL_Driver/Src/stm32l4xx_hal_flash_ex.c ****         MODIFY_REG(FLASH->PCROP2ER, FLASH_PCROP2ER_PCROP2_END, reg_value);
1058:../03_Drivers/STM32L4xx_HAL_Driver/Src/stm32l4xx_hal_flash_ex.c ****       }
1059:../03_Drivers/STM32L4xx_HAL_Driver/Src/stm32l4xx_hal_flash_ex.c ****       else
1060:../03_Drivers/STM32L4xx_HAL_Driver/Src/stm32l4xx_hal_flash_ex.c ****       {
1061:../03_Drivers/STM32L4xx_HAL_Driver/Src/stm32l4xx_hal_flash_ex.c ****         /* Nothing to do */
1062:../03_Drivers/STM32L4xx_HAL_Driver/Src/stm32l4xx_hal_flash_ex.c ****       }
1063:../03_Drivers/STM32L4xx_HAL_Driver/Src/stm32l4xx_hal_flash_ex.c ****     }
1064:../03_Drivers/STM32L4xx_HAL_Driver/Src/stm32l4xx_hal_flash_ex.c ****     else
1065:../03_Drivers/STM32L4xx_HAL_Driver/Src/stm32l4xx_hal_flash_ex.c **** #endif
1066:../03_Drivers/STM32L4xx_HAL_Driver/Src/stm32l4xx_hal_flash_ex.c ****     {
1067:../03_Drivers/STM32L4xx_HAL_Driver/Src/stm32l4xx_hal_flash_ex.c ****       /* Configure the Proprietary code readout protection */
1068:../03_Drivers/STM32L4xx_HAL_Driver/Src/stm32l4xx_hal_flash_ex.c ****       if((PCROPConfig & FLASH_BANK_BOTH) == FLASH_BANK_1)
1069:../03_Drivers/STM32L4xx_HAL_Driver/Src/stm32l4xx_hal_flash_ex.c ****       {
1070:../03_Drivers/STM32L4xx_HAL_Driver/Src/stm32l4xx_hal_flash_ex.c ****         reg_value = ((PCROPStartAddr - bank1_addr) >> 3);
1071:../03_Drivers/STM32L4xx_HAL_Driver/Src/stm32l4xx_hal_flash_ex.c ****         MODIFY_REG(FLASH->PCROP1SR, FLASH_PCROP1SR_PCROP1_STRT, reg_value);
1072:../03_Drivers/STM32L4xx_HAL_Driver/Src/stm32l4xx_hal_flash_ex.c **** 
1073:../03_Drivers/STM32L4xx_HAL_Driver/Src/stm32l4xx_hal_flash_ex.c ****         reg_value = ((PCROPEndAddr - bank1_addr) >> 3);
1074:../03_Drivers/STM32L4xx_HAL_Driver/Src/stm32l4xx_hal_flash_ex.c ****         MODIFY_REG(FLASH->PCROP1ER, FLASH_PCROP1ER_PCROP1_END, reg_value);
1075:../03_Drivers/STM32L4xx_HAL_Driver/Src/stm32l4xx_hal_flash_ex.c ****       }
1076:../03_Drivers/STM32L4xx_HAL_Driver/Src/stm32l4xx_hal_flash_ex.c **** #if defined (STM32L471xx) || defined (STM32L475xx) || defined (STM32L476xx) || defined (STM32L485xx
1077:../03_Drivers/STM32L4xx_HAL_Driver/Src/stm32l4xx_hal_flash_ex.c ****     defined (STM32L496xx) || defined (STM32L4A6xx) || \
1078:../03_Drivers/STM32L4xx_HAL_Driver/Src/stm32l4xx_hal_flash_ex.c ****     defined (STM32L4P5xx) || defined (STM32L4Q5xx) || \
1079:../03_Drivers/STM32L4xx_HAL_Driver/Src/stm32l4xx_hal_flash_ex.c ****     defined (STM32L4R5xx) || defined (STM32L4R7xx) || defined (STM32L4R9xx) || defined (STM32L4S5xx
1080:../03_Drivers/STM32L4xx_HAL_Driver/Src/stm32l4xx_hal_flash_ex.c ****       else if((PCROPConfig & FLASH_BANK_BOTH) == FLASH_BANK_2)
1081:../03_Drivers/STM32L4xx_HAL_Driver/Src/stm32l4xx_hal_flash_ex.c ****       {
1082:../03_Drivers/STM32L4xx_HAL_Driver/Src/stm32l4xx_hal_flash_ex.c ****         reg_value = ((PCROPStartAddr - bank2_addr) >> 3);
1083:../03_Drivers/STM32L4xx_HAL_Driver/Src/stm32l4xx_hal_flash_ex.c ****         MODIFY_REG(FLASH->PCROP2SR, FLASH_PCROP2SR_PCROP2_STRT, reg_value);
1084:../03_Drivers/STM32L4xx_HAL_Driver/Src/stm32l4xx_hal_flash_ex.c **** 
1085:../03_Drivers/STM32L4xx_HAL_Driver/Src/stm32l4xx_hal_flash_ex.c ****         reg_value = ((PCROPEndAddr - bank2_addr) >> 3);
1086:../03_Drivers/STM32L4xx_HAL_Driver/Src/stm32l4xx_hal_flash_ex.c ****         MODIFY_REG(FLASH->PCROP2ER, FLASH_PCROP2ER_PCROP2_END, reg_value);
1087:../03_Drivers/STM32L4xx_HAL_Driver/Src/stm32l4xx_hal_flash_ex.c ****       }
1088:../03_Drivers/STM32L4xx_HAL_Driver/Src/stm32l4xx_hal_flash_ex.c **** #endif
1089:../03_Drivers/STM32L4xx_HAL_Driver/Src/stm32l4xx_hal_flash_ex.c ****       else
1090:../03_Drivers/STM32L4xx_HAL_Driver/Src/stm32l4xx_hal_flash_ex.c ****       {
1091:../03_Drivers/STM32L4xx_HAL_Driver/Src/stm32l4xx_hal_flash_ex.c ****         /* Nothing to do */
1092:../03_Drivers/STM32L4xx_HAL_Driver/Src/stm32l4xx_hal_flash_ex.c ****       }
1093:../03_Drivers/STM32L4xx_HAL_Driver/Src/stm32l4xx_hal_flash_ex.c ****     }
1094:../03_Drivers/STM32L4xx_HAL_Driver/Src/stm32l4xx_hal_flash_ex.c **** 
1095:../03_Drivers/STM32L4xx_HAL_Driver/Src/stm32l4xx_hal_flash_ex.c ****     MODIFY_REG(FLASH->PCROP1ER, FLASH_PCROP1ER_PCROP_RDP, (PCROPConfig & FLASH_PCROP1ER_PCROP_RDP))
1096:../03_Drivers/STM32L4xx_HAL_Driver/Src/stm32l4xx_hal_flash_ex.c **** 
1097:../03_Drivers/STM32L4xx_HAL_Driver/Src/stm32l4xx_hal_flash_ex.c ****     /* Set OPTSTRT Bit */
1098:../03_Drivers/STM32L4xx_HAL_Driver/Src/stm32l4xx_hal_flash_ex.c ****     SET_BIT(FLASH->CR, FLASH_CR_OPTSTRT);
1099:../03_Drivers/STM32L4xx_HAL_Driver/Src/stm32l4xx_hal_flash_ex.c **** 
1100:../03_Drivers/STM32L4xx_HAL_Driver/Src/stm32l4xx_hal_flash_ex.c ****     /* Wait for last operation to be completed */
1101:../03_Drivers/STM32L4xx_HAL_Driver/Src/stm32l4xx_hal_flash_ex.c ****     status = FLASH_WaitForLastOperation((uint32_t)FLASH_TIMEOUT_VALUE);
1102:../03_Drivers/STM32L4xx_HAL_Driver/Src/stm32l4xx_hal_flash_ex.c **** 
1103:../03_Drivers/STM32L4xx_HAL_Driver/Src/stm32l4xx_hal_flash_ex.c ****     /* If the option byte program operation is completed, disable the OPTSTRT Bit */
1104:../03_Drivers/STM32L4xx_HAL_Driver/Src/stm32l4xx_hal_flash_ex.c ****     CLEAR_BIT(FLASH->CR, FLASH_CR_OPTSTRT);
1105:../03_Drivers/STM32L4xx_HAL_Driver/Src/stm32l4xx_hal_flash_ex.c ****   }
1106:../03_Drivers/STM32L4xx_HAL_Driver/Src/stm32l4xx_hal_flash_ex.c **** 
1107:../03_Drivers/STM32L4xx_HAL_Driver/Src/stm32l4xx_hal_flash_ex.c ****   return status;
1108:../03_Drivers/STM32L4xx_HAL_Driver/Src/stm32l4xx_hal_flash_ex.c **** }
1109:../03_Drivers/STM32L4xx_HAL_Driver/Src/stm32l4xx_hal_flash_ex.c **** 
1110:../03_Drivers/STM32L4xx_HAL_Driver/Src/stm32l4xx_hal_flash_ex.c **** /**
1111:../03_Drivers/STM32L4xx_HAL_Driver/Src/stm32l4xx_hal_flash_ex.c ****   * @brief  Return the FLASH Write Protection Option Bytes value.
1112:../03_Drivers/STM32L4xx_HAL_Driver/Src/stm32l4xx_hal_flash_ex.c ****   *
1113:../03_Drivers/STM32L4xx_HAL_Driver/Src/stm32l4xx_hal_flash_ex.c ****   * @param[in]  WRPArea: specifies the area to be returned.
ARM GAS  C:\Users\minde\AppData\Local\Temp\ccYkQJ5V.s 			page 21


1114:../03_Drivers/STM32L4xx_HAL_Driver/Src/stm32l4xx_hal_flash_ex.c ****   *          This parameter can be one of the following values:
1115:../03_Drivers/STM32L4xx_HAL_Driver/Src/stm32l4xx_hal_flash_ex.c ****   *            @arg OB_WRPAREA_BANK1_AREAA: Flash Bank 1 Area A
1116:../03_Drivers/STM32L4xx_HAL_Driver/Src/stm32l4xx_hal_flash_ex.c ****   *            @arg OB_WRPAREA_BANK1_AREAB: Flash Bank 1 Area B
1117:../03_Drivers/STM32L4xx_HAL_Driver/Src/stm32l4xx_hal_flash_ex.c ****   *            @arg OB_WRPAREA_BANK2_AREAA: Flash Bank 2 Area A (don't apply to STM32L43x/STM32L44x
1118:../03_Drivers/STM32L4xx_HAL_Driver/Src/stm32l4xx_hal_flash_ex.c ****   *            @arg OB_WRPAREA_BANK2_AREAB: Flash Bank 2 Area B (don't apply to STM32L43x/STM32L44x
1119:../03_Drivers/STM32L4xx_HAL_Driver/Src/stm32l4xx_hal_flash_ex.c ****   *
1120:../03_Drivers/STM32L4xx_HAL_Driver/Src/stm32l4xx_hal_flash_ex.c ****   * @param[out]  WRPStartOffset: specifies the address where to copied the start page
1121:../03_Drivers/STM32L4xx_HAL_Driver/Src/stm32l4xx_hal_flash_ex.c ****   *                         of the write protected area
1122:../03_Drivers/STM32L4xx_HAL_Driver/Src/stm32l4xx_hal_flash_ex.c ****   *
1123:../03_Drivers/STM32L4xx_HAL_Driver/Src/stm32l4xx_hal_flash_ex.c ****   * @param[out]  WRDPEndOffset: specifies the address where to copied the end page of
1124:../03_Drivers/STM32L4xx_HAL_Driver/Src/stm32l4xx_hal_flash_ex.c ****   *                        the write protected area
1125:../03_Drivers/STM32L4xx_HAL_Driver/Src/stm32l4xx_hal_flash_ex.c ****   *
1126:../03_Drivers/STM32L4xx_HAL_Driver/Src/stm32l4xx_hal_flash_ex.c ****   * @retval None
1127:../03_Drivers/STM32L4xx_HAL_Driver/Src/stm32l4xx_hal_flash_ex.c ****   */
1128:../03_Drivers/STM32L4xx_HAL_Driver/Src/stm32l4xx_hal_flash_ex.c **** static void FLASH_OB_GetWRP(uint32_t WRPArea, uint32_t * WRPStartOffset, uint32_t * WRDPEndOffset)
1129:../03_Drivers/STM32L4xx_HAL_Driver/Src/stm32l4xx_hal_flash_ex.c **** {
  29              		.loc 1 1129 1 view -0
  30              		.cfi_startproc
  31              		@ args = 0, pretend = 0, frame = 0
  32              		@ frame_needed = 0, uses_anonymous_args = 0
  33              		@ link register save eliminated.
1130:../03_Drivers/STM32L4xx_HAL_Driver/Src/stm32l4xx_hal_flash_ex.c ****   /* Get the configuration of the write protected area */
1131:../03_Drivers/STM32L4xx_HAL_Driver/Src/stm32l4xx_hal_flash_ex.c ****   if(WRPArea == OB_WRPAREA_BANK1_AREAA)
  34              		.loc 1 1131 3 view .LVU1
  35              		.loc 1 1131 5 is_stmt 0 view .LVU2
  36 0000 48B9     		cbnz	r0, .L2
1132:../03_Drivers/STM32L4xx_HAL_Driver/Src/stm32l4xx_hal_flash_ex.c ****   {
1133:../03_Drivers/STM32L4xx_HAL_Driver/Src/stm32l4xx_hal_flash_ex.c ****     *WRPStartOffset = READ_BIT(FLASH->WRP1AR, FLASH_WRP1AR_WRP1A_STRT);
  37              		.loc 1 1133 5 is_stmt 1 view .LVU3
  38              		.loc 1 1133 23 is_stmt 0 view .LVU4
  39 0002 0B48     		ldr	r0, .L5
  40              	.LVL1:
  41              		.loc 1 1133 23 view .LVU5
  42 0004 C36A     		ldr	r3, [r0, #44]
  43 0006 03F07F03 		and	r3, r3, #127
  44              		.loc 1 1133 21 view .LVU6
  45 000a 0B60     		str	r3, [r1]
1134:../03_Drivers/STM32L4xx_HAL_Driver/Src/stm32l4xx_hal_flash_ex.c ****     *WRDPEndOffset = (READ_BIT(FLASH->WRP1AR, FLASH_WRP1AR_WRP1A_END) >> 16);
  46              		.loc 1 1134 5 is_stmt 1 view .LVU7
  47              		.loc 1 1134 23 is_stmt 0 view .LVU8
  48 000c C36A     		ldr	r3, [r0, #44]
  49              		.loc 1 1134 71 view .LVU9
  50 000e C3F30643 		ubfx	r3, r3, #16, #7
  51              		.loc 1 1134 20 view .LVU10
  52 0012 1360     		str	r3, [r2]
  53 0014 7047     		bx	lr
  54              	.LVL2:
  55              	.L2:
1135:../03_Drivers/STM32L4xx_HAL_Driver/Src/stm32l4xx_hal_flash_ex.c ****   }
1136:../03_Drivers/STM32L4xx_HAL_Driver/Src/stm32l4xx_hal_flash_ex.c ****   else if(WRPArea == OB_WRPAREA_BANK1_AREAB)
  56              		.loc 1 1136 8 is_stmt 1 view .LVU11
  57              		.loc 1 1136 10 is_stmt 0 view .LVU12
  58 0016 0128     		cmp	r0, #1
  59 0018 00D0     		beq	.L4
  60              	.LVL3:
  61              	.L1:
1137:../03_Drivers/STM32L4xx_HAL_Driver/Src/stm32l4xx_hal_flash_ex.c ****   {
ARM GAS  C:\Users\minde\AppData\Local\Temp\ccYkQJ5V.s 			page 22


1138:../03_Drivers/STM32L4xx_HAL_Driver/Src/stm32l4xx_hal_flash_ex.c ****     *WRPStartOffset = READ_BIT(FLASH->WRP1BR, FLASH_WRP1BR_WRP1B_STRT);
1139:../03_Drivers/STM32L4xx_HAL_Driver/Src/stm32l4xx_hal_flash_ex.c ****     *WRDPEndOffset = (READ_BIT(FLASH->WRP1BR, FLASH_WRP1BR_WRP1B_END) >> 16);
1140:../03_Drivers/STM32L4xx_HAL_Driver/Src/stm32l4xx_hal_flash_ex.c ****   }
1141:../03_Drivers/STM32L4xx_HAL_Driver/Src/stm32l4xx_hal_flash_ex.c **** #if defined (STM32L471xx) || defined (STM32L475xx) || defined (STM32L476xx) || defined (STM32L485xx
1142:../03_Drivers/STM32L4xx_HAL_Driver/Src/stm32l4xx_hal_flash_ex.c ****     defined (STM32L496xx) || defined (STM32L4A6xx) || \
1143:../03_Drivers/STM32L4xx_HAL_Driver/Src/stm32l4xx_hal_flash_ex.c ****     defined (STM32L4P5xx) || defined (STM32L4Q5xx) || \
1144:../03_Drivers/STM32L4xx_HAL_Driver/Src/stm32l4xx_hal_flash_ex.c ****     defined (STM32L4R5xx) || defined (STM32L4R7xx) || defined (STM32L4R9xx) || defined (STM32L4S5xx
1145:../03_Drivers/STM32L4xx_HAL_Driver/Src/stm32l4xx_hal_flash_ex.c ****   else if(WRPArea == OB_WRPAREA_BANK2_AREAA)
1146:../03_Drivers/STM32L4xx_HAL_Driver/Src/stm32l4xx_hal_flash_ex.c ****   {
1147:../03_Drivers/STM32L4xx_HAL_Driver/Src/stm32l4xx_hal_flash_ex.c ****     *WRPStartOffset = READ_BIT(FLASH->WRP2AR, FLASH_WRP2AR_WRP2A_STRT);
1148:../03_Drivers/STM32L4xx_HAL_Driver/Src/stm32l4xx_hal_flash_ex.c ****     *WRDPEndOffset = (READ_BIT(FLASH->WRP2AR, FLASH_WRP2AR_WRP2A_END) >> 16);
1149:../03_Drivers/STM32L4xx_HAL_Driver/Src/stm32l4xx_hal_flash_ex.c ****   }
1150:../03_Drivers/STM32L4xx_HAL_Driver/Src/stm32l4xx_hal_flash_ex.c ****   else if(WRPArea == OB_WRPAREA_BANK2_AREAB)
1151:../03_Drivers/STM32L4xx_HAL_Driver/Src/stm32l4xx_hal_flash_ex.c ****   {
1152:../03_Drivers/STM32L4xx_HAL_Driver/Src/stm32l4xx_hal_flash_ex.c ****     *WRPStartOffset = READ_BIT(FLASH->WRP2BR, FLASH_WRP2BR_WRP2B_STRT);
1153:../03_Drivers/STM32L4xx_HAL_Driver/Src/stm32l4xx_hal_flash_ex.c ****     *WRDPEndOffset = (READ_BIT(FLASH->WRP2BR, FLASH_WRP2BR_WRP2B_END) >> 16);
1154:../03_Drivers/STM32L4xx_HAL_Driver/Src/stm32l4xx_hal_flash_ex.c ****   }
1155:../03_Drivers/STM32L4xx_HAL_Driver/Src/stm32l4xx_hal_flash_ex.c **** #endif
1156:../03_Drivers/STM32L4xx_HAL_Driver/Src/stm32l4xx_hal_flash_ex.c ****   else
1157:../03_Drivers/STM32L4xx_HAL_Driver/Src/stm32l4xx_hal_flash_ex.c ****   {
1158:../03_Drivers/STM32L4xx_HAL_Driver/Src/stm32l4xx_hal_flash_ex.c ****     /* Nothing to do */
1159:../03_Drivers/STM32L4xx_HAL_Driver/Src/stm32l4xx_hal_flash_ex.c ****   }
1160:../03_Drivers/STM32L4xx_HAL_Driver/Src/stm32l4xx_hal_flash_ex.c **** }
  62              		.loc 1 1160 1 view .LVU13
  63 001a 7047     		bx	lr
  64              	.LVL4:
  65              	.L4:
1138:../03_Drivers/STM32L4xx_HAL_Driver/Src/stm32l4xx_hal_flash_ex.c ****     *WRDPEndOffset = (READ_BIT(FLASH->WRP1BR, FLASH_WRP1BR_WRP1B_END) >> 16);
  66              		.loc 1 1138 5 is_stmt 1 view .LVU14
1138:../03_Drivers/STM32L4xx_HAL_Driver/Src/stm32l4xx_hal_flash_ex.c ****     *WRDPEndOffset = (READ_BIT(FLASH->WRP1BR, FLASH_WRP1BR_WRP1B_END) >> 16);
  67              		.loc 1 1138 23 is_stmt 0 view .LVU15
  68 001c 0448     		ldr	r0, .L5
  69              	.LVL5:
1138:../03_Drivers/STM32L4xx_HAL_Driver/Src/stm32l4xx_hal_flash_ex.c ****     *WRDPEndOffset = (READ_BIT(FLASH->WRP1BR, FLASH_WRP1BR_WRP1B_END) >> 16);
  70              		.loc 1 1138 23 view .LVU16
  71 001e 036B     		ldr	r3, [r0, #48]
  72 0020 03F07F03 		and	r3, r3, #127
1138:../03_Drivers/STM32L4xx_HAL_Driver/Src/stm32l4xx_hal_flash_ex.c ****     *WRDPEndOffset = (READ_BIT(FLASH->WRP1BR, FLASH_WRP1BR_WRP1B_END) >> 16);
  73              		.loc 1 1138 21 view .LVU17
  74 0024 0B60     		str	r3, [r1]
1139:../03_Drivers/STM32L4xx_HAL_Driver/Src/stm32l4xx_hal_flash_ex.c ****   }
  75              		.loc 1 1139 5 is_stmt 1 view .LVU18
1139:../03_Drivers/STM32L4xx_HAL_Driver/Src/stm32l4xx_hal_flash_ex.c ****   }
  76              		.loc 1 1139 23 is_stmt 0 view .LVU19
  77 0026 036B     		ldr	r3, [r0, #48]
1139:../03_Drivers/STM32L4xx_HAL_Driver/Src/stm32l4xx_hal_flash_ex.c ****   }
  78              		.loc 1 1139 71 view .LVU20
  79 0028 C3F30643 		ubfx	r3, r3, #16, #7
1139:../03_Drivers/STM32L4xx_HAL_Driver/Src/stm32l4xx_hal_flash_ex.c ****   }
  80              		.loc 1 1139 20 view .LVU21
  81 002c 1360     		str	r3, [r2]
1159:../03_Drivers/STM32L4xx_HAL_Driver/Src/stm32l4xx_hal_flash_ex.c **** }
  82              		.loc 1 1159 3 is_stmt 1 view .LVU22
  83              		.loc 1 1160 1 is_stmt 0 view .LVU23
  84 002e F4E7     		b	.L1
  85              	.L6:
  86              		.align	2
ARM GAS  C:\Users\minde\AppData\Local\Temp\ccYkQJ5V.s 			page 23


  87              	.L5:
  88 0030 00200240 		.word	1073881088
  89              		.cfi_endproc
  90              	.LFE299:
  92              		.section	.text.FLASH_OB_GetRDP,"ax",%progbits
  93              		.align	1
  94              		.syntax unified
  95              		.thumb
  96              		.thumb_func
  97              		.fpu fpv4-sp-d16
  99              	FLASH_OB_GetRDP:
 100              	.LFB300:
1161:../03_Drivers/STM32L4xx_HAL_Driver/Src/stm32l4xx_hal_flash_ex.c **** 
1162:../03_Drivers/STM32L4xx_HAL_Driver/Src/stm32l4xx_hal_flash_ex.c **** /**
1163:../03_Drivers/STM32L4xx_HAL_Driver/Src/stm32l4xx_hal_flash_ex.c ****   * @brief  Return the FLASH Read Protection level.
1164:../03_Drivers/STM32L4xx_HAL_Driver/Src/stm32l4xx_hal_flash_ex.c ****   * @retval FLASH ReadOut Protection Status:
1165:../03_Drivers/STM32L4xx_HAL_Driver/Src/stm32l4xx_hal_flash_ex.c ****   *         This return value can be one of the following values:
1166:../03_Drivers/STM32L4xx_HAL_Driver/Src/stm32l4xx_hal_flash_ex.c ****   *            @arg OB_RDP_LEVEL_0: No protection
1167:../03_Drivers/STM32L4xx_HAL_Driver/Src/stm32l4xx_hal_flash_ex.c ****   *            @arg OB_RDP_LEVEL_1: Read protection of the memory
1168:../03_Drivers/STM32L4xx_HAL_Driver/Src/stm32l4xx_hal_flash_ex.c ****   *            @arg OB_RDP_LEVEL_2: Full chip protection
1169:../03_Drivers/STM32L4xx_HAL_Driver/Src/stm32l4xx_hal_flash_ex.c ****   */
1170:../03_Drivers/STM32L4xx_HAL_Driver/Src/stm32l4xx_hal_flash_ex.c **** static uint32_t FLASH_OB_GetRDP(void)
1171:../03_Drivers/STM32L4xx_HAL_Driver/Src/stm32l4xx_hal_flash_ex.c **** {
 101              		.loc 1 1171 1 is_stmt 1 view -0
 102              		.cfi_startproc
 103              		@ args = 0, pretend = 0, frame = 0
 104              		@ frame_needed = 0, uses_anonymous_args = 0
 105              		@ link register save eliminated.
1172:../03_Drivers/STM32L4xx_HAL_Driver/Src/stm32l4xx_hal_flash_ex.c ****   uint32_t rdp_level = READ_BIT(FLASH->OPTR, FLASH_OPTR_RDP);
 106              		.loc 1 1172 3 view .LVU25
 107              		.loc 1 1172 24 is_stmt 0 view .LVU26
 108 0000 064B     		ldr	r3, .L11
 109 0002 1B6A     		ldr	r3, [r3, #32]
 110              		.loc 1 1172 12 view .LVU27
 111 0004 DBB2     		uxtb	r3, r3
 112              	.LVL6:
1173:../03_Drivers/STM32L4xx_HAL_Driver/Src/stm32l4xx_hal_flash_ex.c **** 
1174:../03_Drivers/STM32L4xx_HAL_Driver/Src/stm32l4xx_hal_flash_ex.c ****   if ((rdp_level != OB_RDP_LEVEL_0) && (rdp_level != OB_RDP_LEVEL_2))
 113              		.loc 1 1174 3 is_stmt 1 view .LVU28
 114              		.loc 1 1174 6 is_stmt 0 view .LVU29
 115 0006 AA2B     		cmp	r3, #170
 116 0008 03D0     		beq	.L8
 117              		.loc 1 1174 37 discriminator 1 view .LVU30
 118 000a CC2B     		cmp	r3, #204
 119 000c 01D0     		beq	.L8
1175:../03_Drivers/STM32L4xx_HAL_Driver/Src/stm32l4xx_hal_flash_ex.c ****   {
1176:../03_Drivers/STM32L4xx_HAL_Driver/Src/stm32l4xx_hal_flash_ex.c ****     return (OB_RDP_LEVEL_1);
 120              		.loc 1 1176 12 view .LVU31
 121 000e BB20     		movs	r0, #187
1177:../03_Drivers/STM32L4xx_HAL_Driver/Src/stm32l4xx_hal_flash_ex.c ****   }
1178:../03_Drivers/STM32L4xx_HAL_Driver/Src/stm32l4xx_hal_flash_ex.c ****   else
1179:../03_Drivers/STM32L4xx_HAL_Driver/Src/stm32l4xx_hal_flash_ex.c ****   {
1180:../03_Drivers/STM32L4xx_HAL_Driver/Src/stm32l4xx_hal_flash_ex.c ****     return (READ_BIT(FLASH->OPTR, FLASH_OPTR_RDP));
1181:../03_Drivers/STM32L4xx_HAL_Driver/Src/stm32l4xx_hal_flash_ex.c ****   }
1182:../03_Drivers/STM32L4xx_HAL_Driver/Src/stm32l4xx_hal_flash_ex.c **** }
 122              		.loc 1 1182 1 view .LVU32
 123 0010 7047     		bx	lr
ARM GAS  C:\Users\minde\AppData\Local\Temp\ccYkQJ5V.s 			page 24


 124              	.L8:
1180:../03_Drivers/STM32L4xx_HAL_Driver/Src/stm32l4xx_hal_flash_ex.c ****   }
 125              		.loc 1 1180 5 is_stmt 1 view .LVU33
1180:../03_Drivers/STM32L4xx_HAL_Driver/Src/stm32l4xx_hal_flash_ex.c ****   }
 126              		.loc 1 1180 13 is_stmt 0 view .LVU34
 127 0012 024B     		ldr	r3, .L11
 128              	.LVL7:
1180:../03_Drivers/STM32L4xx_HAL_Driver/Src/stm32l4xx_hal_flash_ex.c ****   }
 129              		.loc 1 1180 13 view .LVU35
 130 0014 186A     		ldr	r0, [r3, #32]
 131 0016 C0B2     		uxtb	r0, r0
 132 0018 7047     		bx	lr
 133              	.L12:
 134 001a 00BF     		.align	2
 135              	.L11:
 136 001c 00200240 		.word	1073881088
 137              		.cfi_endproc
 138              	.LFE300:
 140              		.section	.text.FLASH_OB_GetUser,"ax",%progbits
 141              		.align	1
 142              		.syntax unified
 143              		.thumb
 144              		.thumb_func
 145              		.fpu fpv4-sp-d16
 147              	FLASH_OB_GetUser:
 148              	.LFB301:
1183:../03_Drivers/STM32L4xx_HAL_Driver/Src/stm32l4xx_hal_flash_ex.c **** 
1184:../03_Drivers/STM32L4xx_HAL_Driver/Src/stm32l4xx_hal_flash_ex.c **** /**
1185:../03_Drivers/STM32L4xx_HAL_Driver/Src/stm32l4xx_hal_flash_ex.c ****   * @brief  Return the FLASH User Option Byte value.
1186:../03_Drivers/STM32L4xx_HAL_Driver/Src/stm32l4xx_hal_flash_ex.c ****   * @retval The FLASH User Option Bytes values:
1187:../03_Drivers/STM32L4xx_HAL_Driver/Src/stm32l4xx_hal_flash_ex.c ****   *      For STM32L47x/STM32L48x devices :
1188:../03_Drivers/STM32L4xx_HAL_Driver/Src/stm32l4xx_hal_flash_ex.c ****   *         BOR_LEV(Bit8-10), nRST_STOP(Bit12), nRST_STDBY(Bit13), nRST_SHDW(Bit14),
1189:../03_Drivers/STM32L4xx_HAL_Driver/Src/stm32l4xx_hal_flash_ex.c ****   *         IWDG_SW(Bit16), IWDG_STOP(Bit17), IWDG_STDBY(Bit18), WWDG_SW(Bit19),
1190:../03_Drivers/STM32L4xx_HAL_Driver/Src/stm32l4xx_hal_flash_ex.c ****   *         BFB2(Bit20), DUALBANK(Bit21), nBOOT1(Bit23), SRAM2_PE(Bit24) and SRAM2_RST(Bit25).
1191:../03_Drivers/STM32L4xx_HAL_Driver/Src/stm32l4xx_hal_flash_ex.c ****   *      For STM32L43x/STM32L44x devices :
1192:../03_Drivers/STM32L4xx_HAL_Driver/Src/stm32l4xx_hal_flash_ex.c ****   *         BOR_LEV(Bit8-10), nRST_STOP(Bit12), nRST_STDBY(Bit13), nRST_SHDW(Bit14),
1193:../03_Drivers/STM32L4xx_HAL_Driver/Src/stm32l4xx_hal_flash_ex.c ****   *         IWDG_SW(Bit16), IWDG_STOP(Bit17), IWDG_STDBY(Bit18), WWDG_SW(Bit19),
1194:../03_Drivers/STM32L4xx_HAL_Driver/Src/stm32l4xx_hal_flash_ex.c ****   *         nBOOT1(Bit23), SRAM2_PE(Bit24), SRAM2_RST(Bit25), nSWBOOT0(Bit26) and nBOOT0(Bit27).
1195:../03_Drivers/STM32L4xx_HAL_Driver/Src/stm32l4xx_hal_flash_ex.c ****   */
1196:../03_Drivers/STM32L4xx_HAL_Driver/Src/stm32l4xx_hal_flash_ex.c **** static uint32_t FLASH_OB_GetUser(void)
1197:../03_Drivers/STM32L4xx_HAL_Driver/Src/stm32l4xx_hal_flash_ex.c **** {
 149              		.loc 1 1197 1 is_stmt 1 view -0
 150              		.cfi_startproc
 151              		@ args = 0, pretend = 0, frame = 0
 152              		@ frame_needed = 0, uses_anonymous_args = 0
 153              		@ link register save eliminated.
1198:../03_Drivers/STM32L4xx_HAL_Driver/Src/stm32l4xx_hal_flash_ex.c ****   uint32_t user_config = READ_REG(FLASH->OPTR);
 154              		.loc 1 1198 3 view .LVU37
 155              		.loc 1 1198 12 is_stmt 0 view .LVU38
 156 0000 024B     		ldr	r3, .L14
 157 0002 186A     		ldr	r0, [r3, #32]
 158              	.LVL8:
1199:../03_Drivers/STM32L4xx_HAL_Driver/Src/stm32l4xx_hal_flash_ex.c ****   CLEAR_BIT(user_config, FLASH_OPTR_RDP);
 159              		.loc 1 1199 3 is_stmt 1 view .LVU39
1200:../03_Drivers/STM32L4xx_HAL_Driver/Src/stm32l4xx_hal_flash_ex.c **** 
1201:../03_Drivers/STM32L4xx_HAL_Driver/Src/stm32l4xx_hal_flash_ex.c ****   return user_config;
 160              		.loc 1 1201 3 view .LVU40
ARM GAS  C:\Users\minde\AppData\Local\Temp\ccYkQJ5V.s 			page 25


1202:../03_Drivers/STM32L4xx_HAL_Driver/Src/stm32l4xx_hal_flash_ex.c **** }
 161              		.loc 1 1202 1 is_stmt 0 view .LVU41
 162 0004 20F0FF00 		bic	r0, r0, #255
 163              	.LVL9:
 164              		.loc 1 1202 1 view .LVU42
 165 0008 7047     		bx	lr
 166              	.L15:
 167 000a 00BF     		.align	2
 168              	.L14:
 169 000c 00200240 		.word	1073881088
 170              		.cfi_endproc
 171              	.LFE301:
 173              		.section	.text.FLASH_OB_GetPCROP,"ax",%progbits
 174              		.align	1
 175              		.syntax unified
 176              		.thumb
 177              		.thumb_func
 178              		.fpu fpv4-sp-d16
 180              	FLASH_OB_GetPCROP:
 181              	.LVL10:
 182              	.LFB302:
1203:../03_Drivers/STM32L4xx_HAL_Driver/Src/stm32l4xx_hal_flash_ex.c **** 
1204:../03_Drivers/STM32L4xx_HAL_Driver/Src/stm32l4xx_hal_flash_ex.c **** /**
1205:../03_Drivers/STM32L4xx_HAL_Driver/Src/stm32l4xx_hal_flash_ex.c ****   * @brief  Return the FLASH Write Protection Option Bytes value.
1206:../03_Drivers/STM32L4xx_HAL_Driver/Src/stm32l4xx_hal_flash_ex.c ****   *
1207:../03_Drivers/STM32L4xx_HAL_Driver/Src/stm32l4xx_hal_flash_ex.c ****   * @param PCROPConfig [inout]: specifies the configuration (Bank to be configured and PCROP_RDP op
1208:../03_Drivers/STM32L4xx_HAL_Driver/Src/stm32l4xx_hal_flash_ex.c ****   *          This parameter must be a combination of FLASH_BANK_1 or FLASH_BANK_2
1209:../03_Drivers/STM32L4xx_HAL_Driver/Src/stm32l4xx_hal_flash_ex.c ****   *          with OB_PCROP_RDP_NOT_ERASE or OB_PCROP_RDP_ERASE
1210:../03_Drivers/STM32L4xx_HAL_Driver/Src/stm32l4xx_hal_flash_ex.c ****   *
1211:../03_Drivers/STM32L4xx_HAL_Driver/Src/stm32l4xx_hal_flash_ex.c ****   * @param PCROPStartAddr [out]: specifies the address where to copied the start address
1212:../03_Drivers/STM32L4xx_HAL_Driver/Src/stm32l4xx_hal_flash_ex.c ****   *                         of the Proprietary code readout protection
1213:../03_Drivers/STM32L4xx_HAL_Driver/Src/stm32l4xx_hal_flash_ex.c ****   *
1214:../03_Drivers/STM32L4xx_HAL_Driver/Src/stm32l4xx_hal_flash_ex.c ****   * @param PCROPEndAddr [out]: specifies the address where to copied the end address of
1215:../03_Drivers/STM32L4xx_HAL_Driver/Src/stm32l4xx_hal_flash_ex.c ****   *                       the Proprietary code readout protection
1216:../03_Drivers/STM32L4xx_HAL_Driver/Src/stm32l4xx_hal_flash_ex.c ****   *
1217:../03_Drivers/STM32L4xx_HAL_Driver/Src/stm32l4xx_hal_flash_ex.c ****   * @retval None
1218:../03_Drivers/STM32L4xx_HAL_Driver/Src/stm32l4xx_hal_flash_ex.c ****   */
1219:../03_Drivers/STM32L4xx_HAL_Driver/Src/stm32l4xx_hal_flash_ex.c **** static void FLASH_OB_GetPCROP(uint32_t * PCROPConfig, uint32_t * PCROPStartAddr, uint32_t * PCROPEn
1220:../03_Drivers/STM32L4xx_HAL_Driver/Src/stm32l4xx_hal_flash_ex.c **** {
 183              		.loc 1 1220 1 is_stmt 1 view -0
 184              		.cfi_startproc
 185              		@ args = 0, pretend = 0, frame = 0
 186              		@ frame_needed = 0, uses_anonymous_args = 0
 187              		@ link register save eliminated.
 188              		.loc 1 1220 1 is_stmt 0 view .LVU44
 189 0000 30B4     		push	{r4, r5}
 190              	.LCFI0:
 191              		.cfi_def_cfa_offset 8
 192              		.cfi_offset 4, -8
 193              		.cfi_offset 5, -4
1221:../03_Drivers/STM32L4xx_HAL_Driver/Src/stm32l4xx_hal_flash_ex.c ****   uint32_t reg_value;
 194              		.loc 1 1221 3 is_stmt 1 view .LVU45
1222:../03_Drivers/STM32L4xx_HAL_Driver/Src/stm32l4xx_hal_flash_ex.c ****   uint32_t bank1_addr;
 195              		.loc 1 1222 3 view .LVU46
1223:../03_Drivers/STM32L4xx_HAL_Driver/Src/stm32l4xx_hal_flash_ex.c **** #if defined (STM32L471xx) || defined (STM32L475xx) || defined (STM32L476xx) || defined (STM32L485xx
1224:../03_Drivers/STM32L4xx_HAL_Driver/Src/stm32l4xx_hal_flash_ex.c ****     defined (STM32L496xx) || defined (STM32L4A6xx) || \
1225:../03_Drivers/STM32L4xx_HAL_Driver/Src/stm32l4xx_hal_flash_ex.c ****     defined (STM32L4P5xx) || defined (STM32L4Q5xx) || \
ARM GAS  C:\Users\minde\AppData\Local\Temp\ccYkQJ5V.s 			page 26


1226:../03_Drivers/STM32L4xx_HAL_Driver/Src/stm32l4xx_hal_flash_ex.c ****     defined (STM32L4R5xx) || defined (STM32L4R7xx) || defined (STM32L4R9xx) || defined (STM32L4S5xx
1227:../03_Drivers/STM32L4xx_HAL_Driver/Src/stm32l4xx_hal_flash_ex.c ****   uint32_t bank2_addr;
1228:../03_Drivers/STM32L4xx_HAL_Driver/Src/stm32l4xx_hal_flash_ex.c **** #endif
1229:../03_Drivers/STM32L4xx_HAL_Driver/Src/stm32l4xx_hal_flash_ex.c **** 
1230:../03_Drivers/STM32L4xx_HAL_Driver/Src/stm32l4xx_hal_flash_ex.c **** #if defined (STM32L471xx) || defined (STM32L475xx) || defined (STM32L476xx) || defined (STM32L485xx
1231:../03_Drivers/STM32L4xx_HAL_Driver/Src/stm32l4xx_hal_flash_ex.c ****     defined (STM32L496xx) || defined (STM32L4A6xx) || \
1232:../03_Drivers/STM32L4xx_HAL_Driver/Src/stm32l4xx_hal_flash_ex.c ****     defined (STM32L4P5xx) || defined (STM32L4Q5xx) || \
1233:../03_Drivers/STM32L4xx_HAL_Driver/Src/stm32l4xx_hal_flash_ex.c ****     defined (STM32L4R5xx) || defined (STM32L4R7xx) || defined (STM32L4R9xx) || defined (STM32L4S5xx
1234:../03_Drivers/STM32L4xx_HAL_Driver/Src/stm32l4xx_hal_flash_ex.c ****   /* Get the information about the bank swapping */
1235:../03_Drivers/STM32L4xx_HAL_Driver/Src/stm32l4xx_hal_flash_ex.c ****   if (READ_BIT(SYSCFG->MEMRMP, SYSCFG_MEMRMP_FB_MODE) == 0U)
1236:../03_Drivers/STM32L4xx_HAL_Driver/Src/stm32l4xx_hal_flash_ex.c ****   {
1237:../03_Drivers/STM32L4xx_HAL_Driver/Src/stm32l4xx_hal_flash_ex.c ****     bank1_addr = FLASH_BASE;
1238:../03_Drivers/STM32L4xx_HAL_Driver/Src/stm32l4xx_hal_flash_ex.c ****     bank2_addr = FLASH_BASE + FLASH_BANK_SIZE;
1239:../03_Drivers/STM32L4xx_HAL_Driver/Src/stm32l4xx_hal_flash_ex.c ****   }
1240:../03_Drivers/STM32L4xx_HAL_Driver/Src/stm32l4xx_hal_flash_ex.c ****   else
1241:../03_Drivers/STM32L4xx_HAL_Driver/Src/stm32l4xx_hal_flash_ex.c ****   {
1242:../03_Drivers/STM32L4xx_HAL_Driver/Src/stm32l4xx_hal_flash_ex.c ****     bank1_addr = FLASH_BASE + FLASH_BANK_SIZE;
1243:../03_Drivers/STM32L4xx_HAL_Driver/Src/stm32l4xx_hal_flash_ex.c ****     bank2_addr = FLASH_BASE;
1244:../03_Drivers/STM32L4xx_HAL_Driver/Src/stm32l4xx_hal_flash_ex.c ****   }
1245:../03_Drivers/STM32L4xx_HAL_Driver/Src/stm32l4xx_hal_flash_ex.c **** #else
1246:../03_Drivers/STM32L4xx_HAL_Driver/Src/stm32l4xx_hal_flash_ex.c ****   bank1_addr = FLASH_BASE;
 196              		.loc 1 1246 3 view .LVU47
 197              	.LVL11:
1247:../03_Drivers/STM32L4xx_HAL_Driver/Src/stm32l4xx_hal_flash_ex.c **** #endif
1248:../03_Drivers/STM32L4xx_HAL_Driver/Src/stm32l4xx_hal_flash_ex.c **** 
1249:../03_Drivers/STM32L4xx_HAL_Driver/Src/stm32l4xx_hal_flash_ex.c **** #if defined (STM32L4P5xx) || defined (STM32L4Q5xx) || defined (STM32L4R5xx) || defined (STM32L4R7xx
1250:../03_Drivers/STM32L4xx_HAL_Driver/Src/stm32l4xx_hal_flash_ex.c ****   if (READ_BIT(FLASH->OPTR, FLASH_OPTR_DBANK) == 0U)
1251:../03_Drivers/STM32L4xx_HAL_Driver/Src/stm32l4xx_hal_flash_ex.c ****   {
1252:../03_Drivers/STM32L4xx_HAL_Driver/Src/stm32l4xx_hal_flash_ex.c ****     if(((*PCROPConfig) & FLASH_BANK_BOTH) == FLASH_BANK_1)
1253:../03_Drivers/STM32L4xx_HAL_Driver/Src/stm32l4xx_hal_flash_ex.c ****     {
1254:../03_Drivers/STM32L4xx_HAL_Driver/Src/stm32l4xx_hal_flash_ex.c ****       reg_value       = (READ_REG(FLASH->PCROP1SR) & FLASH_PCROP1SR_PCROP1_STRT);
1255:../03_Drivers/STM32L4xx_HAL_Driver/Src/stm32l4xx_hal_flash_ex.c ****       *PCROPStartAddr = (reg_value << 4) + FLASH_BASE;
1256:../03_Drivers/STM32L4xx_HAL_Driver/Src/stm32l4xx_hal_flash_ex.c **** 
1257:../03_Drivers/STM32L4xx_HAL_Driver/Src/stm32l4xx_hal_flash_ex.c ****       reg_value     = (READ_REG(FLASH->PCROP1ER) & FLASH_PCROP1ER_PCROP1_END);
1258:../03_Drivers/STM32L4xx_HAL_Driver/Src/stm32l4xx_hal_flash_ex.c ****       *PCROPEndAddr = (reg_value << 4) + FLASH_BASE + 0xFU;
1259:../03_Drivers/STM32L4xx_HAL_Driver/Src/stm32l4xx_hal_flash_ex.c ****     }
1260:../03_Drivers/STM32L4xx_HAL_Driver/Src/stm32l4xx_hal_flash_ex.c ****     else if(((*PCROPConfig) & FLASH_BANK_BOTH) == FLASH_BANK_2)
1261:../03_Drivers/STM32L4xx_HAL_Driver/Src/stm32l4xx_hal_flash_ex.c ****     {
1262:../03_Drivers/STM32L4xx_HAL_Driver/Src/stm32l4xx_hal_flash_ex.c ****       reg_value       = (READ_REG(FLASH->PCROP2SR) & FLASH_PCROP2SR_PCROP2_STRT);
1263:../03_Drivers/STM32L4xx_HAL_Driver/Src/stm32l4xx_hal_flash_ex.c ****       *PCROPStartAddr = (reg_value << 4) + FLASH_BASE;
1264:../03_Drivers/STM32L4xx_HAL_Driver/Src/stm32l4xx_hal_flash_ex.c **** 
1265:../03_Drivers/STM32L4xx_HAL_Driver/Src/stm32l4xx_hal_flash_ex.c ****       reg_value     = (READ_REG(FLASH->PCROP2ER) & FLASH_PCROP2ER_PCROP2_END);
1266:../03_Drivers/STM32L4xx_HAL_Driver/Src/stm32l4xx_hal_flash_ex.c ****       *PCROPEndAddr = (reg_value << 4) + FLASH_BASE + 0xFU;;
1267:../03_Drivers/STM32L4xx_HAL_Driver/Src/stm32l4xx_hal_flash_ex.c ****     }
1268:../03_Drivers/STM32L4xx_HAL_Driver/Src/stm32l4xx_hal_flash_ex.c ****     else
1269:../03_Drivers/STM32L4xx_HAL_Driver/Src/stm32l4xx_hal_flash_ex.c ****     {
1270:../03_Drivers/STM32L4xx_HAL_Driver/Src/stm32l4xx_hal_flash_ex.c ****       /* Nothing to do */
1271:../03_Drivers/STM32L4xx_HAL_Driver/Src/stm32l4xx_hal_flash_ex.c ****     }
1272:../03_Drivers/STM32L4xx_HAL_Driver/Src/stm32l4xx_hal_flash_ex.c ****   }
1273:../03_Drivers/STM32L4xx_HAL_Driver/Src/stm32l4xx_hal_flash_ex.c ****   else
1274:../03_Drivers/STM32L4xx_HAL_Driver/Src/stm32l4xx_hal_flash_ex.c **** #endif
1275:../03_Drivers/STM32L4xx_HAL_Driver/Src/stm32l4xx_hal_flash_ex.c ****   {
1276:../03_Drivers/STM32L4xx_HAL_Driver/Src/stm32l4xx_hal_flash_ex.c ****     if(((*PCROPConfig) & FLASH_BANK_BOTH) == FLASH_BANK_1)
 198              		.loc 1 1276 5 view .LVU48
 199              		.loc 1 1276 10 is_stmt 0 view .LVU49
 200 0002 0368     		ldr	r3, [r0]
 201              		.loc 1 1276 7 view .LVU50
ARM GAS  C:\Users\minde\AppData\Local\Temp\ccYkQJ5V.s 			page 27


 202 0004 13F0010F 		tst	r3, #1
 203 0008 0ED0     		beq	.L17
1277:../03_Drivers/STM32L4xx_HAL_Driver/Src/stm32l4xx_hal_flash_ex.c ****     {
1278:../03_Drivers/STM32L4xx_HAL_Driver/Src/stm32l4xx_hal_flash_ex.c ****       reg_value       = (READ_REG(FLASH->PCROP1SR) & FLASH_PCROP1SR_PCROP1_STRT);
 204              		.loc 1 1278 7 is_stmt 1 view .LVU51
 205              		.loc 1 1278 26 is_stmt 0 view .LVU52
 206 000a 0C4D     		ldr	r5, .L19
 207 000c 6C6A     		ldr	r4, [r5, #36]
 208              	.LVL12:
1279:../03_Drivers/STM32L4xx_HAL_Driver/Src/stm32l4xx_hal_flash_ex.c ****       *PCROPStartAddr = (reg_value << 3) + bank1_addr;
 209              		.loc 1 1279 7 is_stmt 1 view .LVU53
 210              		.loc 1 1279 36 is_stmt 0 view .LVU54
 211 000e 0C4B     		ldr	r3, .L19+4
 212 0010 03EAC404 		and	r4, r3, r4, lsl #3
 213              	.LVL13:
 214              		.loc 1 1279 42 view .LVU55
 215 0014 04F10064 		add	r4, r4, #134217728
 216              		.loc 1 1279 23 view .LVU56
 217 0018 0C60     		str	r4, [r1]
1280:../03_Drivers/STM32L4xx_HAL_Driver/Src/stm32l4xx_hal_flash_ex.c **** 
1281:../03_Drivers/STM32L4xx_HAL_Driver/Src/stm32l4xx_hal_flash_ex.c ****       reg_value     = (READ_REG(FLASH->PCROP1ER) & FLASH_PCROP1ER_PCROP1_END);
 218              		.loc 1 1281 7 is_stmt 1 view .LVU57
 219              		.loc 1 1281 24 is_stmt 0 view .LVU58
 220 001a A96A     		ldr	r1, [r5, #40]
 221              	.LVL14:
1282:../03_Drivers/STM32L4xx_HAL_Driver/Src/stm32l4xx_hal_flash_ex.c ****       *PCROPEndAddr = (reg_value << 3) + bank1_addr + 0x7U;
 222              		.loc 1 1282 7 is_stmt 1 view .LVU59
 223              		.loc 1 1282 34 is_stmt 0 view .LVU60
 224 001c 03EAC103 		and	r3, r3, r1, lsl #3
 225              		.loc 1 1282 53 view .LVU61
 226 0020 03F10063 		add	r3, r3, #134217728
 227 0024 0733     		adds	r3, r3, #7
 228              		.loc 1 1282 21 view .LVU62
 229 0026 1360     		str	r3, [r2]
 230              	.LVL15:
 231              	.L17:
1283:../03_Drivers/STM32L4xx_HAL_Driver/Src/stm32l4xx_hal_flash_ex.c ****     }
1284:../03_Drivers/STM32L4xx_HAL_Driver/Src/stm32l4xx_hal_flash_ex.c **** #if defined (STM32L471xx) || defined (STM32L475xx) || defined (STM32L476xx) || defined (STM32L485xx
1285:../03_Drivers/STM32L4xx_HAL_Driver/Src/stm32l4xx_hal_flash_ex.c ****     defined (STM32L496xx) || defined (STM32L4A6xx) || \
1286:../03_Drivers/STM32L4xx_HAL_Driver/Src/stm32l4xx_hal_flash_ex.c ****     defined (STM32L4P5xx) || defined (STM32L4Q5xx) || \
1287:../03_Drivers/STM32L4xx_HAL_Driver/Src/stm32l4xx_hal_flash_ex.c ****     defined (STM32L4R5xx) || defined (STM32L4R7xx) || defined (STM32L4R9xx) || defined (STM32L4S5xx
1288:../03_Drivers/STM32L4xx_HAL_Driver/Src/stm32l4xx_hal_flash_ex.c ****     else if(((*PCROPConfig) & FLASH_BANK_BOTH) == FLASH_BANK_2)
1289:../03_Drivers/STM32L4xx_HAL_Driver/Src/stm32l4xx_hal_flash_ex.c ****     {
1290:../03_Drivers/STM32L4xx_HAL_Driver/Src/stm32l4xx_hal_flash_ex.c ****       reg_value       = (READ_REG(FLASH->PCROP2SR) & FLASH_PCROP2SR_PCROP2_STRT);
1291:../03_Drivers/STM32L4xx_HAL_Driver/Src/stm32l4xx_hal_flash_ex.c ****       *PCROPStartAddr = (reg_value << 3) + bank2_addr;
1292:../03_Drivers/STM32L4xx_HAL_Driver/Src/stm32l4xx_hal_flash_ex.c **** 
1293:../03_Drivers/STM32L4xx_HAL_Driver/Src/stm32l4xx_hal_flash_ex.c ****       reg_value     = (READ_REG(FLASH->PCROP2ER) & FLASH_PCROP2ER_PCROP2_END);
1294:../03_Drivers/STM32L4xx_HAL_Driver/Src/stm32l4xx_hal_flash_ex.c ****       *PCROPEndAddr = (reg_value << 3) + bank2_addr + 0x7U;
1295:../03_Drivers/STM32L4xx_HAL_Driver/Src/stm32l4xx_hal_flash_ex.c ****     }
1296:../03_Drivers/STM32L4xx_HAL_Driver/Src/stm32l4xx_hal_flash_ex.c **** #endif
1297:../03_Drivers/STM32L4xx_HAL_Driver/Src/stm32l4xx_hal_flash_ex.c ****     else
1298:../03_Drivers/STM32L4xx_HAL_Driver/Src/stm32l4xx_hal_flash_ex.c ****     {
1299:../03_Drivers/STM32L4xx_HAL_Driver/Src/stm32l4xx_hal_flash_ex.c ****       /* Nothing to do */
1300:../03_Drivers/STM32L4xx_HAL_Driver/Src/stm32l4xx_hal_flash_ex.c ****     }
 232              		.loc 1 1300 5 is_stmt 1 view .LVU63
1301:../03_Drivers/STM32L4xx_HAL_Driver/Src/stm32l4xx_hal_flash_ex.c ****   }
1302:../03_Drivers/STM32L4xx_HAL_Driver/Src/stm32l4xx_hal_flash_ex.c **** 
ARM GAS  C:\Users\minde\AppData\Local\Temp\ccYkQJ5V.s 			page 28


1303:../03_Drivers/STM32L4xx_HAL_Driver/Src/stm32l4xx_hal_flash_ex.c ****   *PCROPConfig |= (READ_REG(FLASH->PCROP1ER) & FLASH_PCROP1ER_PCROP_RDP);
 233              		.loc 1 1303 3 view .LVU64
 234              		.loc 1 1303 20 is_stmt 0 view .LVU65
 235 0028 044B     		ldr	r3, .L19
 236 002a 9A6A     		ldr	r2, [r3, #40]
 237              	.LVL16:
 238              		.loc 1 1303 46 view .LVU66
 239 002c 02F00042 		and	r2, r2, #-2147483648
 240              		.loc 1 1303 16 view .LVU67
 241 0030 0368     		ldr	r3, [r0]
 242 0032 1343     		orrs	r3, r3, r2
 243 0034 0360     		str	r3, [r0]
1304:../03_Drivers/STM32L4xx_HAL_Driver/Src/stm32l4xx_hal_flash_ex.c **** }
 244              		.loc 1 1304 1 view .LVU68
 245 0036 30BC     		pop	{r4, r5}
 246              	.LCFI1:
 247              		.cfi_restore 5
 248              		.cfi_restore 4
 249              		.cfi_def_cfa_offset 0
 250 0038 7047     		bx	lr
 251              	.L20:
 252 003a 00BF     		.align	2
 253              	.L19:
 254 003c 00200240 		.word	1073881088
 255 0040 F8FF0300 		.word	262136
 256              		.cfi_endproc
 257              	.LFE302:
 259              		.section	.rodata.FLASH_MassErase.str1.4,"aMS",%progbits,1
 260              		.align	2
 261              	.LC0:
 262 0000 2E2E2F30 		.ascii	"../03_Drivers/STM32L4xx_HAL_Driver/Src/stm32l4xx_ha"
 262      335F4472 
 262      69766572 
 262      732F5354 
 262      4D33324C 
 263 0033 6C5F666C 		.ascii	"l_flash_ex.c\000"
 263      6173685F 
 263      65782E63 
 263      00
 264              		.section	.text.FLASH_MassErase,"ax",%progbits
 265              		.align	1
 266              		.syntax unified
 267              		.thumb
 268              		.thumb_func
 269              		.fpu fpv4-sp-d16
 271              	FLASH_MassErase:
 272              	.LVL17:
 273              	.LFB292:
 513:../03_Drivers/STM32L4xx_HAL_Driver/Src/stm32l4xx_hal_flash_ex.c **** #if defined (STM32L4P5xx) || defined (STM32L4Q5xx) || defined (STM32L4R5xx) || defined (STM32L4R7xx
 274              		.loc 1 513 1 is_stmt 1 view -0
 275              		.cfi_startproc
 276              		@ args = 0, pretend = 0, frame = 0
 277              		@ frame_needed = 0, uses_anonymous_args = 0
 513:../03_Drivers/STM32L4xx_HAL_Driver/Src/stm32l4xx_hal_flash_ex.c **** #if defined (STM32L4P5xx) || defined (STM32L4Q5xx) || defined (STM32L4R5xx) || defined (STM32L4R7xx
 278              		.loc 1 513 1 is_stmt 0 view .LVU70
 279 0000 10B5     		push	{r4, lr}
 280              	.LCFI2:
ARM GAS  C:\Users\minde\AppData\Local\Temp\ccYkQJ5V.s 			page 29


 281              		.cfi_def_cfa_offset 8
 282              		.cfi_offset 4, -8
 283              		.cfi_offset 14, -4
 284 0002 0446     		mov	r4, r0
 519:../03_Drivers/STM32L4xx_HAL_Driver/Src/stm32l4xx_hal_flash_ex.c **** 
 285              		.loc 1 519 5 is_stmt 1 view .LVU71
 286 0004 0128     		cmp	r0, #1
 287 0006 0DD1     		bne	.L25
 288              	.LVL18:
 289              	.L22:
 522:../03_Drivers/STM32L4xx_HAL_Driver/Src/stm32l4xx_hal_flash_ex.c ****     {
 290              		.loc 1 522 5 view .LVU72
 522:../03_Drivers/STM32L4xx_HAL_Driver/Src/stm32l4xx_hal_flash_ex.c ****     {
 291              		.loc 1 522 7 is_stmt 0 view .LVU73
 292 0008 14F0010F 		tst	r4, #1
 293 000c 04D0     		beq	.L23
 524:../03_Drivers/STM32L4xx_HAL_Driver/Src/stm32l4xx_hal_flash_ex.c ****     }
 294              		.loc 1 524 7 is_stmt 1 view .LVU74
 295 000e 084A     		ldr	r2, .L26
 296 0010 5369     		ldr	r3, [r2, #20]
 297 0012 43F00403 		orr	r3, r3, #4
 298 0016 5361     		str	r3, [r2, #20]
 299              	.L23:
 546:../03_Drivers/STM32L4xx_HAL_Driver/Src/stm32l4xx_hal_flash_ex.c **** }
 300              		.loc 1 546 3 view .LVU75
 301 0018 054A     		ldr	r2, .L26
 302 001a 5369     		ldr	r3, [r2, #20]
 303 001c 43F48033 		orr	r3, r3, #65536
 304 0020 5361     		str	r3, [r2, #20]
 547:../03_Drivers/STM32L4xx_HAL_Driver/Src/stm32l4xx_hal_flash_ex.c **** 
 305              		.loc 1 547 1 is_stmt 0 view .LVU76
 306 0022 10BD     		pop	{r4, pc}
 307              	.LVL19:
 308              	.L25:
 519:../03_Drivers/STM32L4xx_HAL_Driver/Src/stm32l4xx_hal_flash_ex.c **** 
 309              		.loc 1 519 5 discriminator 1 view .LVU77
 310 0024 40F20721 		movw	r1, #519
 311 0028 0248     		ldr	r0, .L26+4
 312              	.LVL20:
 519:../03_Drivers/STM32L4xx_HAL_Driver/Src/stm32l4xx_hal_flash_ex.c **** 
 313              		.loc 1 519 5 discriminator 1 view .LVU78
 314 002a FFF7FEFF 		bl	assert_failed
 315              	.LVL21:
 316 002e EBE7     		b	.L22
 317              	.L27:
 318              		.align	2
 319              	.L26:
 320 0030 00200240 		.word	1073881088
 321 0034 00000000 		.word	.LC0
 322              		.cfi_endproc
 323              	.LFE292:
 325              		.section	.text.FLASH_OB_WRPConfig,"ax",%progbits
 326              		.align	1
 327              		.syntax unified
 328              		.thumb
 329              		.thumb_func
 330              		.fpu fpv4-sp-d16
ARM GAS  C:\Users\minde\AppData\Local\Temp\ccYkQJ5V.s 			page 30


 332              	FLASH_OB_WRPConfig:
 333              	.LVL22:
 334              	.LFB295:
 658:../03_Drivers/STM32L4xx_HAL_Driver/Src/stm32l4xx_hal_flash_ex.c ****   HAL_StatusTypeDef status;
 335              		.loc 1 658 1 is_stmt 1 view -0
 336              		.cfi_startproc
 337              		@ args = 0, pretend = 0, frame = 0
 338              		@ frame_needed = 0, uses_anonymous_args = 0
 658:../03_Drivers/STM32L4xx_HAL_Driver/Src/stm32l4xx_hal_flash_ex.c ****   HAL_StatusTypeDef status;
 339              		.loc 1 658 1 is_stmt 0 view .LVU80
 340 0000 70B5     		push	{r4, r5, r6, lr}
 341              	.LCFI3:
 342              		.cfi_def_cfa_offset 16
 343              		.cfi_offset 4, -16
 344              		.cfi_offset 5, -12
 345              		.cfi_offset 6, -8
 346              		.cfi_offset 14, -4
 347 0002 0546     		mov	r5, r0
 348 0004 0E46     		mov	r6, r1
 349 0006 1446     		mov	r4, r2
 659:../03_Drivers/STM32L4xx_HAL_Driver/Src/stm32l4xx_hal_flash_ex.c **** 
 350              		.loc 1 659 3 is_stmt 1 view .LVU81
 662:../03_Drivers/STM32L4xx_HAL_Driver/Src/stm32l4xx_hal_flash_ex.c ****   assert_param(IS_FLASH_PAGE(WRPStartOffset));
 351              		.loc 1 662 3 view .LVU82
 352 0008 0128     		cmp	r0, #1
 353 000a 3CD8     		bhi	.L42
 354              	.LVL23:
 355              	.L29:
 663:../03_Drivers/STM32L4xx_HAL_Driver/Src/stm32l4xx_hal_flash_ex.c ****   assert_param(IS_FLASH_PAGE(WRDPEndOffset));
 356              		.loc 1 663 3 view .LVU83
 357 000c 364B     		ldr	r3, .L49
 358 000e B3F8E030 		ldrh	r3, [r3, #224]
 359 0012 C3F30B03 		ubfx	r3, r3, #0, #12
 360 0016 B3F5807F 		cmp	r3, #256
 361 001a 3AD0     		beq	.L43
 663:../03_Drivers/STM32L4xx_HAL_Driver/Src/stm32l4xx_hal_flash_ex.c ****   assert_param(IS_FLASH_PAGE(WRDPEndOffset));
 362              		.loc 1 663 3 is_stmt 0 discriminator 2 view .LVU84
 363 001c 802B     		cmp	r3, #128
 364 001e 3DD0     		beq	.L44
 663:../03_Drivers/STM32L4xx_HAL_Driver/Src/stm32l4xx_hal_flash_ex.c ****   assert_param(IS_FLASH_PAGE(WRDPEndOffset));
 365              		.loc 1 663 3 discriminator 5 view .LVU85
 366 0020 7F2E     		cmp	r6, #127
 367 0022 8CBF     		ite	hi
 368 0024 0023     		movhi	r3, #0
 369 0026 0123     		movls	r3, #1
 370              	.L31:
 663:../03_Drivers/STM32L4xx_HAL_Driver/Src/stm32l4xx_hal_flash_ex.c ****   assert_param(IS_FLASH_PAGE(WRDPEndOffset));
 371              		.loc 1 663 3 discriminator 8 view .LVU86
 372 0028 002B     		cmp	r3, #0
 373 002a 3CD0     		beq	.L45
 374              	.L33:
 664:../03_Drivers/STM32L4xx_HAL_Driver/Src/stm32l4xx_hal_flash_ex.c **** 
 375              		.loc 1 664 3 is_stmt 1 view .LVU87
 376 002c 2E4B     		ldr	r3, .L49
 377 002e B3F8E030 		ldrh	r3, [r3, #224]
 378 0032 C3F30B03 		ubfx	r3, r3, #0, #12
 379 0036 B3F5807F 		cmp	r3, #256
ARM GAS  C:\Users\minde\AppData\Local\Temp\ccYkQJ5V.s 			page 31


 380 003a 3AD0     		beq	.L46
 664:../03_Drivers/STM32L4xx_HAL_Driver/Src/stm32l4xx_hal_flash_ex.c **** 
 381              		.loc 1 664 3 is_stmt 0 discriminator 2 view .LVU88
 382 003c 802B     		cmp	r3, #128
 383 003e 3DD0     		beq	.L47
 664:../03_Drivers/STM32L4xx_HAL_Driver/Src/stm32l4xx_hal_flash_ex.c **** 
 384              		.loc 1 664 3 discriminator 5 view .LVU89
 385 0040 7F2C     		cmp	r4, #127
 386 0042 8CBF     		ite	hi
 387 0044 0023     		movhi	r3, #0
 388 0046 0123     		movls	r3, #1
 389              	.L35:
 664:../03_Drivers/STM32L4xx_HAL_Driver/Src/stm32l4xx_hal_flash_ex.c **** 
 390              		.loc 1 664 3 discriminator 8 view .LVU90
 391 0048 002B     		cmp	r3, #0
 392 004a 3CD0     		beq	.L48
 393              	.L37:
 667:../03_Drivers/STM32L4xx_HAL_Driver/Src/stm32l4xx_hal_flash_ex.c **** 
 394              		.loc 1 667 3 is_stmt 1 view .LVU91
 667:../03_Drivers/STM32L4xx_HAL_Driver/Src/stm32l4xx_hal_flash_ex.c **** 
 395              		.loc 1 667 12 is_stmt 0 view .LVU92
 396 004c 4CF25030 		movw	r0, #50000
 397 0050 FFF7FEFF 		bl	FLASH_WaitForLastOperation
 398              	.LVL24:
 669:../03_Drivers/STM32L4xx_HAL_Driver/Src/stm32l4xx_hal_flash_ex.c ****   {
 399              		.loc 1 669 3 is_stmt 1 view .LVU93
 669:../03_Drivers/STM32L4xx_HAL_Driver/Src/stm32l4xx_hal_flash_ex.c ****   {
 400              		.loc 1 669 5 is_stmt 0 view .LVU94
 401 0054 B0B9     		cbnz	r0, .L38
 672:../03_Drivers/STM32L4xx_HAL_Driver/Src/stm32l4xx_hal_flash_ex.c ****     {
 402              		.loc 1 672 5 is_stmt 1 view .LVU95
 672:../03_Drivers/STM32L4xx_HAL_Driver/Src/stm32l4xx_hal_flash_ex.c ****     {
 403              		.loc 1 672 7 is_stmt 0 view .LVU96
 404 0056 002D     		cmp	r5, #0
 405 0058 3BD1     		bne	.L39
 674:../03_Drivers/STM32L4xx_HAL_Driver/Src/stm32l4xx_hal_flash_ex.c ****                  (WRPStartOffset | (WRDPEndOffset << 16)));
 406              		.loc 1 674 7 is_stmt 1 view .LVU97
 407 005a 2448     		ldr	r0, .L49+4
 408              	.LVL25:
 674:../03_Drivers/STM32L4xx_HAL_Driver/Src/stm32l4xx_hal_flash_ex.c ****                  (WRPStartOffset | (WRDPEndOffset << 16)));
 409              		.loc 1 674 7 is_stmt 0 view .LVU98
 410 005c C36A     		ldr	r3, [r0, #44]
 411 005e 23F07F13 		bic	r3, r3, #8323199
 412 0062 46EA0444 		orr	r4, r6, r4, lsl #16
 413              	.LVL26:
 674:../03_Drivers/STM32L4xx_HAL_Driver/Src/stm32l4xx_hal_flash_ex.c ****                  (WRPStartOffset | (WRDPEndOffset << 16)));
 414              		.loc 1 674 7 view .LVU99
 415 0066 1C43     		orrs	r4, r4, r3
 416 0068 C462     		str	r4, [r0, #44]
 417              	.L40:
 700:../03_Drivers/STM32L4xx_HAL_Driver/Src/stm32l4xx_hal_flash_ex.c **** 
 418              		.loc 1 700 5 is_stmt 1 view .LVU100
 703:../03_Drivers/STM32L4xx_HAL_Driver/Src/stm32l4xx_hal_flash_ex.c **** 
 419              		.loc 1 703 5 view .LVU101
 420 006a 204C     		ldr	r4, .L49+4
 421 006c 6369     		ldr	r3, [r4, #20]
 422 006e 43F40033 		orr	r3, r3, #131072
ARM GAS  C:\Users\minde\AppData\Local\Temp\ccYkQJ5V.s 			page 32


 423 0072 6361     		str	r3, [r4, #20]
 706:../03_Drivers/STM32L4xx_HAL_Driver/Src/stm32l4xx_hal_flash_ex.c **** 
 424              		.loc 1 706 5 view .LVU102
 706:../03_Drivers/STM32L4xx_HAL_Driver/Src/stm32l4xx_hal_flash_ex.c **** 
 425              		.loc 1 706 14 is_stmt 0 view .LVU103
 426 0074 4CF25030 		movw	r0, #50000
 427 0078 FFF7FEFF 		bl	FLASH_WaitForLastOperation
 428              	.LVL27:
 709:../03_Drivers/STM32L4xx_HAL_Driver/Src/stm32l4xx_hal_flash_ex.c ****   }
 429              		.loc 1 709 5 is_stmt 1 view .LVU104
 430 007c 6369     		ldr	r3, [r4, #20]
 431 007e 23F40033 		bic	r3, r3, #131072
 432 0082 6361     		str	r3, [r4, #20]
 433              	.L38:
 712:../03_Drivers/STM32L4xx_HAL_Driver/Src/stm32l4xx_hal_flash_ex.c **** }
 434              		.loc 1 712 3 view .LVU105
 713:../03_Drivers/STM32L4xx_HAL_Driver/Src/stm32l4xx_hal_flash_ex.c **** 
 435              		.loc 1 713 1 is_stmt 0 view .LVU106
 436 0084 70BD     		pop	{r4, r5, r6, pc}
 437              	.LVL28:
 438              	.L42:
 662:../03_Drivers/STM32L4xx_HAL_Driver/Src/stm32l4xx_hal_flash_ex.c ****   assert_param(IS_FLASH_PAGE(WRPStartOffset));
 439              		.loc 1 662 3 discriminator 1 view .LVU107
 440 0086 40F29621 		movw	r1, #662
 441              	.LVL29:
 662:../03_Drivers/STM32L4xx_HAL_Driver/Src/stm32l4xx_hal_flash_ex.c ****   assert_param(IS_FLASH_PAGE(WRPStartOffset));
 442              		.loc 1 662 3 discriminator 1 view .LVU108
 443 008a 1948     		ldr	r0, .L49+8
 444              	.LVL30:
 662:../03_Drivers/STM32L4xx_HAL_Driver/Src/stm32l4xx_hal_flash_ex.c ****   assert_param(IS_FLASH_PAGE(WRPStartOffset));
 445              		.loc 1 662 3 discriminator 1 view .LVU109
 446 008c FFF7FEFF 		bl	assert_failed
 447              	.LVL31:
 662:../03_Drivers/STM32L4xx_HAL_Driver/Src/stm32l4xx_hal_flash_ex.c ****   assert_param(IS_FLASH_PAGE(WRPStartOffset));
 448              		.loc 1 662 3 discriminator 1 view .LVU110
 449 0090 BCE7     		b	.L29
 450              	.L43:
 663:../03_Drivers/STM32L4xx_HAL_Driver/Src/stm32l4xx_hal_flash_ex.c ****   assert_param(IS_FLASH_PAGE(WRDPEndOffset));
 451              		.loc 1 663 3 discriminator 1 view .LVU111
 452 0092 7F2E     		cmp	r6, #127
 453 0094 8CBF     		ite	hi
 454 0096 0023     		movhi	r3, #0
 455 0098 0123     		movls	r3, #1
 456 009a C5E7     		b	.L31
 457              	.L44:
 663:../03_Drivers/STM32L4xx_HAL_Driver/Src/stm32l4xx_hal_flash_ex.c ****   assert_param(IS_FLASH_PAGE(WRDPEndOffset));
 458              		.loc 1 663 3 discriminator 4 view .LVU112
 459 009c 3F2E     		cmp	r6, #63
 460 009e 8CBF     		ite	hi
 461 00a0 0023     		movhi	r3, #0
 462 00a2 0123     		movls	r3, #1
 463 00a4 C0E7     		b	.L31
 464              	.L45:
 663:../03_Drivers/STM32L4xx_HAL_Driver/Src/stm32l4xx_hal_flash_ex.c ****   assert_param(IS_FLASH_PAGE(WRDPEndOffset));
 465              		.loc 1 663 3 discriminator 9 view .LVU113
 466 00a6 40F29721 		movw	r1, #663
 467 00aa 1148     		ldr	r0, .L49+8
ARM GAS  C:\Users\minde\AppData\Local\Temp\ccYkQJ5V.s 			page 33


 468 00ac FFF7FEFF 		bl	assert_failed
 469              	.LVL32:
 470 00b0 BCE7     		b	.L33
 471              	.L46:
 664:../03_Drivers/STM32L4xx_HAL_Driver/Src/stm32l4xx_hal_flash_ex.c **** 
 472              		.loc 1 664 3 discriminator 1 view .LVU114
 473 00b2 7F2C     		cmp	r4, #127
 474 00b4 8CBF     		ite	hi
 475 00b6 0023     		movhi	r3, #0
 476 00b8 0123     		movls	r3, #1
 477 00ba C5E7     		b	.L35
 478              	.L47:
 664:../03_Drivers/STM32L4xx_HAL_Driver/Src/stm32l4xx_hal_flash_ex.c **** 
 479              		.loc 1 664 3 discriminator 4 view .LVU115
 480 00bc 3F2C     		cmp	r4, #63
 481 00be 8CBF     		ite	hi
 482 00c0 0023     		movhi	r3, #0
 483 00c2 0123     		movls	r3, #1
 484 00c4 C0E7     		b	.L35
 485              	.L48:
 664:../03_Drivers/STM32L4xx_HAL_Driver/Src/stm32l4xx_hal_flash_ex.c **** 
 486              		.loc 1 664 3 discriminator 9 view .LVU116
 487 00c6 4FF42671 		mov	r1, #664
 488 00ca 0948     		ldr	r0, .L49+8
 489 00cc FFF7FEFF 		bl	assert_failed
 490              	.LVL33:
 491 00d0 BCE7     		b	.L37
 492              	.LVL34:
 493              	.L39:
 677:../03_Drivers/STM32L4xx_HAL_Driver/Src/stm32l4xx_hal_flash_ex.c ****     {
 494              		.loc 1 677 10 is_stmt 1 view .LVU117
 677:../03_Drivers/STM32L4xx_HAL_Driver/Src/stm32l4xx_hal_flash_ex.c ****     {
 495              		.loc 1 677 12 is_stmt 0 view .LVU118
 496 00d2 012D     		cmp	r5, #1
 497 00d4 C9D1     		bne	.L40
 679:../03_Drivers/STM32L4xx_HAL_Driver/Src/stm32l4xx_hal_flash_ex.c ****                  (WRPStartOffset | (WRDPEndOffset << 16)));
 498              		.loc 1 679 7 is_stmt 1 view .LVU119
 499 00d6 054A     		ldr	r2, .L49+4
 500 00d8 136B     		ldr	r3, [r2, #48]
 501 00da 23F07F13 		bic	r3, r3, #8323199
 502 00de 46EA0444 		orr	r4, r6, r4, lsl #16
 503              	.LVL35:
 679:../03_Drivers/STM32L4xx_HAL_Driver/Src/stm32l4xx_hal_flash_ex.c ****                  (WRPStartOffset | (WRDPEndOffset << 16)));
 504              		.loc 1 679 7 is_stmt 0 view .LVU120
 505 00e2 1C43     		orrs	r4, r4, r3
 506 00e4 1463     		str	r4, [r2, #48]
 507 00e6 C0E7     		b	.L40
 508              	.L50:
 509              		.align	2
 510              	.L49:
 511 00e8 0075FF1F 		.word	536835328
 512 00ec 00200240 		.word	1073881088
 513 00f0 00000000 		.word	.LC0
 514              		.cfi_endproc
 515              	.LFE295:
 517              		.section	.text.FLASH_OB_RDPConfig,"ax",%progbits
 518              		.align	1
ARM GAS  C:\Users\minde\AppData\Local\Temp\ccYkQJ5V.s 			page 34


 519              		.syntax unified
 520              		.thumb
 521              		.thumb_func
 522              		.fpu fpv4-sp-d16
 524              	FLASH_OB_RDPConfig:
 525              	.LVL36:
 526              	.LFB296:
 734:../03_Drivers/STM32L4xx_HAL_Driver/Src/stm32l4xx_hal_flash_ex.c ****   HAL_StatusTypeDef status;
 527              		.loc 1 734 1 is_stmt 1 view -0
 528              		.cfi_startproc
 529              		@ args = 0, pretend = 0, frame = 0
 530              		@ frame_needed = 0, uses_anonymous_args = 0
 734:../03_Drivers/STM32L4xx_HAL_Driver/Src/stm32l4xx_hal_flash_ex.c ****   HAL_StatusTypeDef status;
 531              		.loc 1 734 1 is_stmt 0 view .LVU122
 532 0000 38B5     		push	{r3, r4, r5, lr}
 533              	.LCFI4:
 534              		.cfi_def_cfa_offset 16
 535              		.cfi_offset 3, -16
 536              		.cfi_offset 4, -12
 537              		.cfi_offset 5, -8
 538              		.cfi_offset 14, -4
 539 0002 0446     		mov	r4, r0
 735:../03_Drivers/STM32L4xx_HAL_Driver/Src/stm32l4xx_hal_flash_ex.c **** 
 540              		.loc 1 735 3 is_stmt 1 view .LVU123
 738:../03_Drivers/STM32L4xx_HAL_Driver/Src/stm32l4xx_hal_flash_ex.c **** 
 541              		.loc 1 738 3 view .LVU124
 542 0004 AA28     		cmp	r0, #170
 543 0006 01D0     		beq	.L52
 738:../03_Drivers/STM32L4xx_HAL_Driver/Src/stm32l4xx_hal_flash_ex.c **** 
 544              		.loc 1 738 3 is_stmt 0 discriminator 1 view .LVU125
 545 0008 BB28     		cmp	r0, #187
 546 000a 05D1     		bne	.L55
 547              	.LVL37:
 548              	.L52:
 741:../03_Drivers/STM32L4xx_HAL_Driver/Src/stm32l4xx_hal_flash_ex.c **** 
 549              		.loc 1 741 3 is_stmt 1 view .LVU126
 741:../03_Drivers/STM32L4xx_HAL_Driver/Src/stm32l4xx_hal_flash_ex.c **** 
 550              		.loc 1 741 12 is_stmt 0 view .LVU127
 551 000c 4CF25030 		movw	r0, #50000
 552 0010 FFF7FEFF 		bl	FLASH_WaitForLastOperation
 553              	.LVL38:
 743:../03_Drivers/STM32L4xx_HAL_Driver/Src/stm32l4xx_hal_flash_ex.c ****   {
 554              		.loc 1 743 3 is_stmt 1 view .LVU128
 743:../03_Drivers/STM32L4xx_HAL_Driver/Src/stm32l4xx_hal_flash_ex.c ****   {
 555              		.loc 1 743 5 is_stmt 0 view .LVU129
 556 0014 30B1     		cbz	r0, .L56
 557              	.LVL39:
 558              	.L53:
 758:../03_Drivers/STM32L4xx_HAL_Driver/Src/stm32l4xx_hal_flash_ex.c **** }
 559              		.loc 1 758 3 is_stmt 1 view .LVU130
 759:../03_Drivers/STM32L4xx_HAL_Driver/Src/stm32l4xx_hal_flash_ex.c **** 
 560              		.loc 1 759 1 is_stmt 0 view .LVU131
 561 0016 38BD     		pop	{r3, r4, r5, pc}
 562              	.LVL40:
 563              	.L55:
 738:../03_Drivers/STM32L4xx_HAL_Driver/Src/stm32l4xx_hal_flash_ex.c **** 
 564              		.loc 1 738 3 discriminator 2 view .LVU132
ARM GAS  C:\Users\minde\AppData\Local\Temp\ccYkQJ5V.s 			page 35


 565 0018 40F2E221 		movw	r1, #738
 566 001c 0B48     		ldr	r0, .L57
 567              	.LVL41:
 738:../03_Drivers/STM32L4xx_HAL_Driver/Src/stm32l4xx_hal_flash_ex.c **** 
 568              		.loc 1 738 3 discriminator 2 view .LVU133
 569 001e FFF7FEFF 		bl	assert_failed
 570              	.LVL42:
 571 0022 F3E7     		b	.L52
 572              	.LVL43:
 573              	.L56:
 746:../03_Drivers/STM32L4xx_HAL_Driver/Src/stm32l4xx_hal_flash_ex.c **** 
 574              		.loc 1 746 5 is_stmt 1 view .LVU134
 575 0024 0A4D     		ldr	r5, .L57+4
 576 0026 286A     		ldr	r0, [r5, #32]
 577              	.LVL44:
 746:../03_Drivers/STM32L4xx_HAL_Driver/Src/stm32l4xx_hal_flash_ex.c **** 
 578              		.loc 1 746 5 is_stmt 0 view .LVU135
 579 0028 20F0FF00 		bic	r0, r0, #255
 580 002c 0443     		orrs	r4, r4, r0
 581              	.LVL45:
 746:../03_Drivers/STM32L4xx_HAL_Driver/Src/stm32l4xx_hal_flash_ex.c **** 
 582              		.loc 1 746 5 view .LVU136
 583 002e 2C62     		str	r4, [r5, #32]
 749:../03_Drivers/STM32L4xx_HAL_Driver/Src/stm32l4xx_hal_flash_ex.c **** 
 584              		.loc 1 749 5 is_stmt 1 view .LVU137
 585 0030 6B69     		ldr	r3, [r5, #20]
 586 0032 43F40033 		orr	r3, r3, #131072
 587 0036 6B61     		str	r3, [r5, #20]
 752:../03_Drivers/STM32L4xx_HAL_Driver/Src/stm32l4xx_hal_flash_ex.c **** 
 588              		.loc 1 752 5 view .LVU138
 752:../03_Drivers/STM32L4xx_HAL_Driver/Src/stm32l4xx_hal_flash_ex.c **** 
 589              		.loc 1 752 14 is_stmt 0 view .LVU139
 590 0038 4CF25030 		movw	r0, #50000
 591 003c FFF7FEFF 		bl	FLASH_WaitForLastOperation
 592              	.LVL46:
 755:../03_Drivers/STM32L4xx_HAL_Driver/Src/stm32l4xx_hal_flash_ex.c ****   }
 593              		.loc 1 755 5 is_stmt 1 view .LVU140
 594 0040 6B69     		ldr	r3, [r5, #20]
 595 0042 23F40033 		bic	r3, r3, #131072
 596 0046 6B61     		str	r3, [r5, #20]
 597 0048 E5E7     		b	.L53
 598              	.L58:
 599 004a 00BF     		.align	2
 600              	.L57:
 601 004c 00000000 		.word	.LC0
 602 0050 00200240 		.word	1073881088
 603              		.cfi_endproc
 604              	.LFE296:
 606              		.section	.text.FLASH_OB_UserConfig,"ax",%progbits
 607              		.align	1
 608              		.syntax unified
 609              		.thumb
 610              		.thumb_func
 611              		.fpu fpv4-sp-d16
 613              	FLASH_OB_UserConfig:
 614              	.LVL47:
 615              	.LFB297:
ARM GAS  C:\Users\minde\AppData\Local\Temp\ccYkQJ5V.s 			page 36


 778:../03_Drivers/STM32L4xx_HAL_Driver/Src/stm32l4xx_hal_flash_ex.c ****   uint32_t optr_reg_val = 0;
 616              		.loc 1 778 1 view -0
 617              		.cfi_startproc
 618              		@ args = 0, pretend = 0, frame = 0
 619              		@ frame_needed = 0, uses_anonymous_args = 0
 778:../03_Drivers/STM32L4xx_HAL_Driver/Src/stm32l4xx_hal_flash_ex.c ****   uint32_t optr_reg_val = 0;
 620              		.loc 1 778 1 is_stmt 0 view .LVU142
 621 0000 70B5     		push	{r4, r5, r6, lr}
 622              	.LCFI5:
 623              		.cfi_def_cfa_offset 16
 624              		.cfi_offset 4, -16
 625              		.cfi_offset 5, -12
 626              		.cfi_offset 6, -8
 627              		.cfi_offset 14, -4
 628 0002 0446     		mov	r4, r0
 629 0004 0E46     		mov	r6, r1
 779:../03_Drivers/STM32L4xx_HAL_Driver/Src/stm32l4xx_hal_flash_ex.c ****   uint32_t optr_reg_mask = 0;
 630              		.loc 1 779 3 is_stmt 1 view .LVU143
 631              	.LVL48:
 780:../03_Drivers/STM32L4xx_HAL_Driver/Src/stm32l4xx_hal_flash_ex.c ****   HAL_StatusTypeDef status;
 632              		.loc 1 780 3 view .LVU144
 781:../03_Drivers/STM32L4xx_HAL_Driver/Src/stm32l4xx_hal_flash_ex.c **** 
 633              		.loc 1 781 3 view .LVU145
 784:../03_Drivers/STM32L4xx_HAL_Driver/Src/stm32l4xx_hal_flash_ex.c **** 
 634              		.loc 1 784 3 view .LVU146
 635 0006 421E     		subs	r2, r0, #1
 636 0008 47F67E63 		movw	r3, #32382
 637 000c 9A42     		cmp	r2, r3
 638 000e 02D8     		bhi	.L60
 784:../03_Drivers/STM32L4xx_HAL_Driver/Src/stm32l4xx_hal_flash_ex.c **** 
 639              		.loc 1 784 3 is_stmt 0 discriminator 2 view .LVU147
 640 0010 10F4C07F 		tst	r0, #384
 641 0014 04D0     		beq	.L61
 642              	.L60:
 784:../03_Drivers/STM32L4xx_HAL_Driver/Src/stm32l4xx_hal_flash_ex.c **** 
 643              		.loc 1 784 3 discriminator 3 view .LVU148
 644 0016 4FF44471 		mov	r1, #784
 645              	.LVL49:
 784:../03_Drivers/STM32L4xx_HAL_Driver/Src/stm32l4xx_hal_flash_ex.c **** 
 646              		.loc 1 784 3 discriminator 3 view .LVU149
 647 001a 5548     		ldr	r0, .L84
 648              	.LVL50:
 784:../03_Drivers/STM32L4xx_HAL_Driver/Src/stm32l4xx_hal_flash_ex.c **** 
 649              		.loc 1 784 3 discriminator 3 view .LVU150
 650 001c FFF7FEFF 		bl	assert_failed
 651              	.LVL51:
 652              	.L61:
 787:../03_Drivers/STM32L4xx_HAL_Driver/Src/stm32l4xx_hal_flash_ex.c **** 
 653              		.loc 1 787 3 is_stmt 1 view .LVU151
 787:../03_Drivers/STM32L4xx_HAL_Driver/Src/stm32l4xx_hal_flash_ex.c **** 
 654              		.loc 1 787 12 is_stmt 0 view .LVU152
 655 0020 4CF25030 		movw	r0, #50000
 656 0024 FFF7FEFF 		bl	FLASH_WaitForLastOperation
 657              	.LVL52:
 789:../03_Drivers/STM32L4xx_HAL_Driver/Src/stm32l4xx_hal_flash_ex.c ****   {
 658              		.loc 1 789 3 is_stmt 1 view .LVU153
 789:../03_Drivers/STM32L4xx_HAL_Driver/Src/stm32l4xx_hal_flash_ex.c ****   {
ARM GAS  C:\Users\minde\AppData\Local\Temp\ccYkQJ5V.s 			page 37


 659              		.loc 1 789 5 is_stmt 0 view .LVU154
 660 0028 0028     		cmp	r0, #0
 661 002a 40F09480 		bne	.L62
 791:../03_Drivers/STM32L4xx_HAL_Driver/Src/stm32l4xx_hal_flash_ex.c ****     {
 662              		.loc 1 791 5 is_stmt 1 view .LVU155
 791:../03_Drivers/STM32L4xx_HAL_Driver/Src/stm32l4xx_hal_flash_ex.c ****     {
 663              		.loc 1 791 7 is_stmt 0 view .LVU156
 664 002e 14F00105 		ands	r5, r4, #1
 665 0032 1DD0     		beq	.L76
 794:../03_Drivers/STM32L4xx_HAL_Driver/Src/stm32l4xx_hal_flash_ex.c **** 
 666              		.loc 1 794 7 is_stmt 1 view .LVU157
 667 0034 16F4E065 		ands	r5, r6, #1792
 668 0038 00F08E80 		beq	.L77
 794:../03_Drivers/STM32L4xx_HAL_Driver/Src/stm32l4xx_hal_flash_ex.c **** 
 669              		.loc 1 794 7 is_stmt 0 discriminator 1 view .LVU158
 670 003c B5F5807F 		cmp	r5, #256
 671 0040 00F08D80 		beq	.L78
 794:../03_Drivers/STM32L4xx_HAL_Driver/Src/stm32l4xx_hal_flash_ex.c **** 
 672              		.loc 1 794 7 discriminator 2 view .LVU159
 673 0044 B5F5007F 		cmp	r5, #512
 674 0048 00F08C80 		beq	.L79
 794:../03_Drivers/STM32L4xx_HAL_Driver/Src/stm32l4xx_hal_flash_ex.c **** 
 675              		.loc 1 794 7 discriminator 3 view .LVU160
 676 004c B5F5407F 		cmp	r5, #768
 677 0050 00F08B80 		beq	.L80
 794:../03_Drivers/STM32L4xx_HAL_Driver/Src/stm32l4xx_hal_flash_ex.c **** 
 678              		.loc 1 794 7 discriminator 4 view .LVU161
 679 0054 B5F5806F 		cmp	r5, #1024
 680 0058 02D1     		bne	.L83
 798:../03_Drivers/STM32L4xx_HAL_Driver/Src/stm32l4xx_hal_flash_ex.c ****     }
 681              		.loc 1 798 21 view .LVU162
 682 005a 4FF4E063 		mov	r3, #1792
 683 005e 08E0     		b	.L63
 684              	.L83:
 794:../03_Drivers/STM32L4xx_HAL_Driver/Src/stm32l4xx_hal_flash_ex.c **** 
 685              		.loc 1 794 7 discriminator 5 view .LVU163
 686 0060 40F21A31 		movw	r1, #794
 687 0064 4248     		ldr	r0, .L84
 688              	.LVL53:
 794:../03_Drivers/STM32L4xx_HAL_Driver/Src/stm32l4xx_hal_flash_ex.c **** 
 689              		.loc 1 794 7 discriminator 5 view .LVU164
 690 0066 FFF7FEFF 		bl	assert_failed
 691              	.LVL54:
 798:../03_Drivers/STM32L4xx_HAL_Driver/Src/stm32l4xx_hal_flash_ex.c ****     }
 692              		.loc 1 798 21 discriminator 5 view .LVU165
 693 006a 4FF4E063 		mov	r3, #1792
 694 006e 00E0     		b	.L63
 695              	.LVL55:
 696              	.L76:
 780:../03_Drivers/STM32L4xx_HAL_Driver/Src/stm32l4xx_hal_flash_ex.c ****   HAL_StatusTypeDef status;
 697              		.loc 1 780 12 view .LVU166
 698 0070 2B46     		mov	r3, r5
 699              	.LVL56:
 700              	.L63:
 801:../03_Drivers/STM32L4xx_HAL_Driver/Src/stm32l4xx_hal_flash_ex.c ****     {
 701              		.loc 1 801 5 is_stmt 1 view .LVU167
 801:../03_Drivers/STM32L4xx_HAL_Driver/Src/stm32l4xx_hal_flash_ex.c ****     {
ARM GAS  C:\Users\minde\AppData\Local\Temp\ccYkQJ5V.s 			page 38


 702              		.loc 1 801 7 is_stmt 0 view .LVU168
 703 0072 14F0020F 		tst	r4, #2
 704 0076 04D0     		beq	.L64
 804:../03_Drivers/STM32L4xx_HAL_Driver/Src/stm32l4xx_hal_flash_ex.c **** 
 705              		.loc 1 804 7 is_stmt 1 view .LVU169
 807:../03_Drivers/STM32L4xx_HAL_Driver/Src/stm32l4xx_hal_flash_ex.c ****       optr_reg_mask |= FLASH_OPTR_nRST_STOP;
 706              		.loc 1 807 7 view .LVU170
 807:../03_Drivers/STM32L4xx_HAL_Driver/Src/stm32l4xx_hal_flash_ex.c ****       optr_reg_mask |= FLASH_OPTR_nRST_STOP;
 707              		.loc 1 807 35 is_stmt 0 view .LVU171
 708 0078 06F48052 		and	r2, r6, #4096
 807:../03_Drivers/STM32L4xx_HAL_Driver/Src/stm32l4xx_hal_flash_ex.c ****       optr_reg_mask |= FLASH_OPTR_nRST_STOP;
 709              		.loc 1 807 20 view .LVU172
 710 007c 1543     		orrs	r5, r5, r2
 711              	.LVL57:
 808:../03_Drivers/STM32L4xx_HAL_Driver/Src/stm32l4xx_hal_flash_ex.c ****     }
 712              		.loc 1 808 7 is_stmt 1 view .LVU173
 808:../03_Drivers/STM32L4xx_HAL_Driver/Src/stm32l4xx_hal_flash_ex.c ****     }
 713              		.loc 1 808 21 is_stmt 0 view .LVU174
 714 007e 43F48053 		orr	r3, r3, #4096
 715              	.LVL58:
 716              	.L64:
 811:../03_Drivers/STM32L4xx_HAL_Driver/Src/stm32l4xx_hal_flash_ex.c ****     {
 717              		.loc 1 811 5 is_stmt 1 view .LVU175
 811:../03_Drivers/STM32L4xx_HAL_Driver/Src/stm32l4xx_hal_flash_ex.c ****     {
 718              		.loc 1 811 7 is_stmt 0 view .LVU176
 719 0082 14F0040F 		tst	r4, #4
 720 0086 04D0     		beq	.L65
 814:../03_Drivers/STM32L4xx_HAL_Driver/Src/stm32l4xx_hal_flash_ex.c **** 
 721              		.loc 1 814 7 is_stmt 1 view .LVU177
 817:../03_Drivers/STM32L4xx_HAL_Driver/Src/stm32l4xx_hal_flash_ex.c ****       optr_reg_mask |= FLASH_OPTR_nRST_STDBY;
 722              		.loc 1 817 7 view .LVU178
 817:../03_Drivers/STM32L4xx_HAL_Driver/Src/stm32l4xx_hal_flash_ex.c ****       optr_reg_mask |= FLASH_OPTR_nRST_STDBY;
 723              		.loc 1 817 35 is_stmt 0 view .LVU179
 724 0088 06F40052 		and	r2, r6, #8192
 817:../03_Drivers/STM32L4xx_HAL_Driver/Src/stm32l4xx_hal_flash_ex.c ****       optr_reg_mask |= FLASH_OPTR_nRST_STDBY;
 725              		.loc 1 817 20 view .LVU180
 726 008c 1543     		orrs	r5, r5, r2
 727              	.LVL59:
 818:../03_Drivers/STM32L4xx_HAL_Driver/Src/stm32l4xx_hal_flash_ex.c ****     }
 728              		.loc 1 818 7 is_stmt 1 view .LVU181
 818:../03_Drivers/STM32L4xx_HAL_Driver/Src/stm32l4xx_hal_flash_ex.c ****     }
 729              		.loc 1 818 21 is_stmt 0 view .LVU182
 730 008e 43F40053 		orr	r3, r3, #8192
 731              	.LVL60:
 732              	.L65:
 821:../03_Drivers/STM32L4xx_HAL_Driver/Src/stm32l4xx_hal_flash_ex.c ****     {
 733              		.loc 1 821 5 is_stmt 1 view .LVU183
 821:../03_Drivers/STM32L4xx_HAL_Driver/Src/stm32l4xx_hal_flash_ex.c ****     {
 734              		.loc 1 821 7 is_stmt 0 view .LVU184
 735 0092 14F4805F 		tst	r4, #4096
 736 0096 04D0     		beq	.L66
 824:../03_Drivers/STM32L4xx_HAL_Driver/Src/stm32l4xx_hal_flash_ex.c **** 
 737              		.loc 1 824 7 is_stmt 1 view .LVU185
 827:../03_Drivers/STM32L4xx_HAL_Driver/Src/stm32l4xx_hal_flash_ex.c ****       optr_reg_mask |= FLASH_OPTR_nRST_SHDW;
 738              		.loc 1 827 7 view .LVU186
 827:../03_Drivers/STM32L4xx_HAL_Driver/Src/stm32l4xx_hal_flash_ex.c ****       optr_reg_mask |= FLASH_OPTR_nRST_SHDW;
 739              		.loc 1 827 35 is_stmt 0 view .LVU187
ARM GAS  C:\Users\minde\AppData\Local\Temp\ccYkQJ5V.s 			page 39


 740 0098 06F48042 		and	r2, r6, #16384
 827:../03_Drivers/STM32L4xx_HAL_Driver/Src/stm32l4xx_hal_flash_ex.c ****       optr_reg_mask |= FLASH_OPTR_nRST_SHDW;
 741              		.loc 1 827 20 view .LVU188
 742 009c 1543     		orrs	r5, r5, r2
 743              	.LVL61:
 828:../03_Drivers/STM32L4xx_HAL_Driver/Src/stm32l4xx_hal_flash_ex.c ****     }
 744              		.loc 1 828 7 is_stmt 1 view .LVU189
 828:../03_Drivers/STM32L4xx_HAL_Driver/Src/stm32l4xx_hal_flash_ex.c ****     }
 745              		.loc 1 828 21 is_stmt 0 view .LVU190
 746 009e 43F48043 		orr	r3, r3, #16384
 747              	.LVL62:
 748              	.L66:
 831:../03_Drivers/STM32L4xx_HAL_Driver/Src/stm32l4xx_hal_flash_ex.c ****     {
 749              		.loc 1 831 5 is_stmt 1 view .LVU191
 831:../03_Drivers/STM32L4xx_HAL_Driver/Src/stm32l4xx_hal_flash_ex.c ****     {
 750              		.loc 1 831 7 is_stmt 0 view .LVU192
 751 00a2 14F0080F 		tst	r4, #8
 752 00a6 04D0     		beq	.L67
 834:../03_Drivers/STM32L4xx_HAL_Driver/Src/stm32l4xx_hal_flash_ex.c **** 
 753              		.loc 1 834 7 is_stmt 1 view .LVU193
 837:../03_Drivers/STM32L4xx_HAL_Driver/Src/stm32l4xx_hal_flash_ex.c ****       optr_reg_mask |= FLASH_OPTR_IWDG_SW;
 754              		.loc 1 837 7 view .LVU194
 837:../03_Drivers/STM32L4xx_HAL_Driver/Src/stm32l4xx_hal_flash_ex.c ****       optr_reg_mask |= FLASH_OPTR_IWDG_SW;
 755              		.loc 1 837 35 is_stmt 0 view .LVU195
 756 00a8 06F48032 		and	r2, r6, #65536
 837:../03_Drivers/STM32L4xx_HAL_Driver/Src/stm32l4xx_hal_flash_ex.c ****       optr_reg_mask |= FLASH_OPTR_IWDG_SW;
 757              		.loc 1 837 20 view .LVU196
 758 00ac 1543     		orrs	r5, r5, r2
 759              	.LVL63:
 838:../03_Drivers/STM32L4xx_HAL_Driver/Src/stm32l4xx_hal_flash_ex.c ****     }
 760              		.loc 1 838 7 is_stmt 1 view .LVU197
 838:../03_Drivers/STM32L4xx_HAL_Driver/Src/stm32l4xx_hal_flash_ex.c ****     }
 761              		.loc 1 838 21 is_stmt 0 view .LVU198
 762 00ae 43F48033 		orr	r3, r3, #65536
 763              	.LVL64:
 764              	.L67:
 841:../03_Drivers/STM32L4xx_HAL_Driver/Src/stm32l4xx_hal_flash_ex.c ****     {
 765              		.loc 1 841 5 is_stmt 1 view .LVU199
 841:../03_Drivers/STM32L4xx_HAL_Driver/Src/stm32l4xx_hal_flash_ex.c ****     {
 766              		.loc 1 841 7 is_stmt 0 view .LVU200
 767 00b2 14F0100F 		tst	r4, #16
 768 00b6 04D0     		beq	.L68
 844:../03_Drivers/STM32L4xx_HAL_Driver/Src/stm32l4xx_hal_flash_ex.c **** 
 769              		.loc 1 844 7 is_stmt 1 view .LVU201
 847:../03_Drivers/STM32L4xx_HAL_Driver/Src/stm32l4xx_hal_flash_ex.c ****       optr_reg_mask |= FLASH_OPTR_IWDG_STOP;
 770              		.loc 1 847 7 view .LVU202
 847:../03_Drivers/STM32L4xx_HAL_Driver/Src/stm32l4xx_hal_flash_ex.c ****       optr_reg_mask |= FLASH_OPTR_IWDG_STOP;
 771              		.loc 1 847 35 is_stmt 0 view .LVU203
 772 00b8 06F40032 		and	r2, r6, #131072
 847:../03_Drivers/STM32L4xx_HAL_Driver/Src/stm32l4xx_hal_flash_ex.c ****       optr_reg_mask |= FLASH_OPTR_IWDG_STOP;
 773              		.loc 1 847 20 view .LVU204
 774 00bc 1543     		orrs	r5, r5, r2
 775              	.LVL65:
 848:../03_Drivers/STM32L4xx_HAL_Driver/Src/stm32l4xx_hal_flash_ex.c ****     }
 776              		.loc 1 848 7 is_stmt 1 view .LVU205
 848:../03_Drivers/STM32L4xx_HAL_Driver/Src/stm32l4xx_hal_flash_ex.c ****     }
 777              		.loc 1 848 21 is_stmt 0 view .LVU206
ARM GAS  C:\Users\minde\AppData\Local\Temp\ccYkQJ5V.s 			page 40


 778 00be 43F40033 		orr	r3, r3, #131072
 779              	.LVL66:
 780              	.L68:
 851:../03_Drivers/STM32L4xx_HAL_Driver/Src/stm32l4xx_hal_flash_ex.c ****     {
 781              		.loc 1 851 5 is_stmt 1 view .LVU207
 851:../03_Drivers/STM32L4xx_HAL_Driver/Src/stm32l4xx_hal_flash_ex.c ****     {
 782              		.loc 1 851 7 is_stmt 0 view .LVU208
 783 00c2 14F0200F 		tst	r4, #32
 784 00c6 04D0     		beq	.L69
 854:../03_Drivers/STM32L4xx_HAL_Driver/Src/stm32l4xx_hal_flash_ex.c **** 
 785              		.loc 1 854 7 is_stmt 1 view .LVU209
 857:../03_Drivers/STM32L4xx_HAL_Driver/Src/stm32l4xx_hal_flash_ex.c ****       optr_reg_mask |= FLASH_OPTR_IWDG_STDBY;
 786              		.loc 1 857 7 view .LVU210
 857:../03_Drivers/STM32L4xx_HAL_Driver/Src/stm32l4xx_hal_flash_ex.c ****       optr_reg_mask |= FLASH_OPTR_IWDG_STDBY;
 787              		.loc 1 857 35 is_stmt 0 view .LVU211
 788 00c8 06F48022 		and	r2, r6, #262144
 857:../03_Drivers/STM32L4xx_HAL_Driver/Src/stm32l4xx_hal_flash_ex.c ****       optr_reg_mask |= FLASH_OPTR_IWDG_STDBY;
 789              		.loc 1 857 20 view .LVU212
 790 00cc 1543     		orrs	r5, r5, r2
 791              	.LVL67:
 858:../03_Drivers/STM32L4xx_HAL_Driver/Src/stm32l4xx_hal_flash_ex.c ****     }
 792              		.loc 1 858 7 is_stmt 1 view .LVU213
 858:../03_Drivers/STM32L4xx_HAL_Driver/Src/stm32l4xx_hal_flash_ex.c ****     }
 793              		.loc 1 858 21 is_stmt 0 view .LVU214
 794 00ce 43F48023 		orr	r3, r3, #262144
 795              	.LVL68:
 796              	.L69:
 861:../03_Drivers/STM32L4xx_HAL_Driver/Src/stm32l4xx_hal_flash_ex.c ****     {
 797              		.loc 1 861 5 is_stmt 1 view .LVU215
 861:../03_Drivers/STM32L4xx_HAL_Driver/Src/stm32l4xx_hal_flash_ex.c ****     {
 798              		.loc 1 861 7 is_stmt 0 view .LVU216
 799 00d2 14F0400F 		tst	r4, #64
 800 00d6 04D0     		beq	.L70
 864:../03_Drivers/STM32L4xx_HAL_Driver/Src/stm32l4xx_hal_flash_ex.c **** 
 801              		.loc 1 864 7 is_stmt 1 view .LVU217
 867:../03_Drivers/STM32L4xx_HAL_Driver/Src/stm32l4xx_hal_flash_ex.c ****       optr_reg_mask |= FLASH_OPTR_WWDG_SW;
 802              		.loc 1 867 7 view .LVU218
 867:../03_Drivers/STM32L4xx_HAL_Driver/Src/stm32l4xx_hal_flash_ex.c ****       optr_reg_mask |= FLASH_OPTR_WWDG_SW;
 803              		.loc 1 867 35 is_stmt 0 view .LVU219
 804 00d8 06F40022 		and	r2, r6, #524288
 867:../03_Drivers/STM32L4xx_HAL_Driver/Src/stm32l4xx_hal_flash_ex.c ****       optr_reg_mask |= FLASH_OPTR_WWDG_SW;
 805              		.loc 1 867 20 view .LVU220
 806 00dc 1543     		orrs	r5, r5, r2
 807              	.LVL69:
 868:../03_Drivers/STM32L4xx_HAL_Driver/Src/stm32l4xx_hal_flash_ex.c ****     }
 808              		.loc 1 868 7 is_stmt 1 view .LVU221
 868:../03_Drivers/STM32L4xx_HAL_Driver/Src/stm32l4xx_hal_flash_ex.c ****     }
 809              		.loc 1 868 21 is_stmt 0 view .LVU222
 810 00de 43F40023 		orr	r3, r3, #524288
 811              	.LVL70:
 812              	.L70:
 905:../03_Drivers/STM32L4xx_HAL_Driver/Src/stm32l4xx_hal_flash_ex.c ****     {
 813              		.loc 1 905 5 is_stmt 1 view .LVU223
 905:../03_Drivers/STM32L4xx_HAL_Driver/Src/stm32l4xx_hal_flash_ex.c ****     {
 814              		.loc 1 905 7 is_stmt 0 view .LVU224
 815 00e2 14F4007F 		tst	r4, #512
 816 00e6 04D0     		beq	.L71
ARM GAS  C:\Users\minde\AppData\Local\Temp\ccYkQJ5V.s 			page 41


 908:../03_Drivers/STM32L4xx_HAL_Driver/Src/stm32l4xx_hal_flash_ex.c **** 
 817              		.loc 1 908 7 is_stmt 1 view .LVU225
 911:../03_Drivers/STM32L4xx_HAL_Driver/Src/stm32l4xx_hal_flash_ex.c ****       optr_reg_mask |= FLASH_OPTR_nBOOT1;
 818              		.loc 1 911 7 view .LVU226
 911:../03_Drivers/STM32L4xx_HAL_Driver/Src/stm32l4xx_hal_flash_ex.c ****       optr_reg_mask |= FLASH_OPTR_nBOOT1;
 819              		.loc 1 911 35 is_stmt 0 view .LVU227
 820 00e8 06F40002 		and	r2, r6, #8388608
 911:../03_Drivers/STM32L4xx_HAL_Driver/Src/stm32l4xx_hal_flash_ex.c ****       optr_reg_mask |= FLASH_OPTR_nBOOT1;
 821              		.loc 1 911 20 view .LVU228
 822 00ec 1543     		orrs	r5, r5, r2
 823              	.LVL71:
 912:../03_Drivers/STM32L4xx_HAL_Driver/Src/stm32l4xx_hal_flash_ex.c ****     }
 824              		.loc 1 912 7 is_stmt 1 view .LVU229
 912:../03_Drivers/STM32L4xx_HAL_Driver/Src/stm32l4xx_hal_flash_ex.c ****     }
 825              		.loc 1 912 21 is_stmt 0 view .LVU230
 826 00ee 43F40003 		orr	r3, r3, #8388608
 827              	.LVL72:
 828              	.L71:
 915:../03_Drivers/STM32L4xx_HAL_Driver/Src/stm32l4xx_hal_flash_ex.c ****     {
 829              		.loc 1 915 5 is_stmt 1 view .LVU231
 915:../03_Drivers/STM32L4xx_HAL_Driver/Src/stm32l4xx_hal_flash_ex.c ****     {
 830              		.loc 1 915 7 is_stmt 0 view .LVU232
 831 00f2 14F4806F 		tst	r4, #1024
 832 00f6 04D0     		beq	.L72
 918:../03_Drivers/STM32L4xx_HAL_Driver/Src/stm32l4xx_hal_flash_ex.c **** 
 833              		.loc 1 918 7 is_stmt 1 view .LVU233
 921:../03_Drivers/STM32L4xx_HAL_Driver/Src/stm32l4xx_hal_flash_ex.c ****       optr_reg_mask |= FLASH_OPTR_SRAM2_PE;
 834              		.loc 1 921 7 view .LVU234
 921:../03_Drivers/STM32L4xx_HAL_Driver/Src/stm32l4xx_hal_flash_ex.c ****       optr_reg_mask |= FLASH_OPTR_SRAM2_PE;
 835              		.loc 1 921 35 is_stmt 0 view .LVU235
 836 00f8 06F08072 		and	r2, r6, #16777216
 921:../03_Drivers/STM32L4xx_HAL_Driver/Src/stm32l4xx_hal_flash_ex.c ****       optr_reg_mask |= FLASH_OPTR_SRAM2_PE;
 837              		.loc 1 921 20 view .LVU236
 838 00fc 1543     		orrs	r5, r5, r2
 839              	.LVL73:
 922:../03_Drivers/STM32L4xx_HAL_Driver/Src/stm32l4xx_hal_flash_ex.c ****     }
 840              		.loc 1 922 7 is_stmt 1 view .LVU237
 922:../03_Drivers/STM32L4xx_HAL_Driver/Src/stm32l4xx_hal_flash_ex.c ****     }
 841              		.loc 1 922 21 is_stmt 0 view .LVU238
 842 00fe 43F08073 		orr	r3, r3, #16777216
 843              	.LVL74:
 844              	.L72:
 925:../03_Drivers/STM32L4xx_HAL_Driver/Src/stm32l4xx_hal_flash_ex.c ****     {
 845              		.loc 1 925 5 is_stmt 1 view .LVU239
 925:../03_Drivers/STM32L4xx_HAL_Driver/Src/stm32l4xx_hal_flash_ex.c ****     {
 846              		.loc 1 925 7 is_stmt 0 view .LVU240
 847 0102 14F4006F 		tst	r4, #2048
 848 0106 04D0     		beq	.L73
 928:../03_Drivers/STM32L4xx_HAL_Driver/Src/stm32l4xx_hal_flash_ex.c **** 
 849              		.loc 1 928 7 is_stmt 1 view .LVU241
 931:../03_Drivers/STM32L4xx_HAL_Driver/Src/stm32l4xx_hal_flash_ex.c ****       optr_reg_mask |= FLASH_OPTR_SRAM2_RST;
 850              		.loc 1 931 7 view .LVU242
 931:../03_Drivers/STM32L4xx_HAL_Driver/Src/stm32l4xx_hal_flash_ex.c ****       optr_reg_mask |= FLASH_OPTR_SRAM2_RST;
 851              		.loc 1 931 35 is_stmt 0 view .LVU243
 852 0108 06F00072 		and	r2, r6, #33554432
 931:../03_Drivers/STM32L4xx_HAL_Driver/Src/stm32l4xx_hal_flash_ex.c ****       optr_reg_mask |= FLASH_OPTR_SRAM2_RST;
 853              		.loc 1 931 20 view .LVU244
ARM GAS  C:\Users\minde\AppData\Local\Temp\ccYkQJ5V.s 			page 42


 854 010c 1543     		orrs	r5, r5, r2
 855              	.LVL75:
 932:../03_Drivers/STM32L4xx_HAL_Driver/Src/stm32l4xx_hal_flash_ex.c ****     }
 856              		.loc 1 932 7 is_stmt 1 view .LVU245
 932:../03_Drivers/STM32L4xx_HAL_Driver/Src/stm32l4xx_hal_flash_ex.c ****     }
 857              		.loc 1 932 21 is_stmt 0 view .LVU246
 858 010e 43F00073 		orr	r3, r3, #33554432
 859              	.LVL76:
 860              	.L73:
 940:../03_Drivers/STM32L4xx_HAL_Driver/Src/stm32l4xx_hal_flash_ex.c ****     {
 861              		.loc 1 940 5 is_stmt 1 view .LVU247
 940:../03_Drivers/STM32L4xx_HAL_Driver/Src/stm32l4xx_hal_flash_ex.c ****     {
 862              		.loc 1 940 7 is_stmt 0 view .LVU248
 863 0112 14F4005F 		tst	r4, #8192
 864 0116 04D0     		beq	.L74
 943:../03_Drivers/STM32L4xx_HAL_Driver/Src/stm32l4xx_hal_flash_ex.c **** 
 865              		.loc 1 943 7 is_stmt 1 view .LVU249
 946:../03_Drivers/STM32L4xx_HAL_Driver/Src/stm32l4xx_hal_flash_ex.c ****       optr_reg_mask |= FLASH_OPTR_nSWBOOT0;
 866              		.loc 1 946 7 view .LVU250
 946:../03_Drivers/STM32L4xx_HAL_Driver/Src/stm32l4xx_hal_flash_ex.c ****       optr_reg_mask |= FLASH_OPTR_nSWBOOT0;
 867              		.loc 1 946 35 is_stmt 0 view .LVU251
 868 0118 06F08062 		and	r2, r6, #67108864
 946:../03_Drivers/STM32L4xx_HAL_Driver/Src/stm32l4xx_hal_flash_ex.c ****       optr_reg_mask |= FLASH_OPTR_nSWBOOT0;
 869              		.loc 1 946 20 view .LVU252
 870 011c 1543     		orrs	r5, r5, r2
 871              	.LVL77:
 947:../03_Drivers/STM32L4xx_HAL_Driver/Src/stm32l4xx_hal_flash_ex.c ****     }
 872              		.loc 1 947 7 is_stmt 1 view .LVU253
 947:../03_Drivers/STM32L4xx_HAL_Driver/Src/stm32l4xx_hal_flash_ex.c ****     }
 873              		.loc 1 947 21 is_stmt 0 view .LVU254
 874 011e 43F08063 		orr	r3, r3, #67108864
 875              	.LVL78:
 876              	.L74:
 950:../03_Drivers/STM32L4xx_HAL_Driver/Src/stm32l4xx_hal_flash_ex.c ****     {
 877              		.loc 1 950 5 is_stmt 1 view .LVU255
 950:../03_Drivers/STM32L4xx_HAL_Driver/Src/stm32l4xx_hal_flash_ex.c ****     {
 878              		.loc 1 950 7 is_stmt 0 view .LVU256
 879 0122 14F4804F 		tst	r4, #16384
 880 0126 04D0     		beq	.L75
 953:../03_Drivers/STM32L4xx_HAL_Driver/Src/stm32l4xx_hal_flash_ex.c **** 
 881              		.loc 1 953 7 is_stmt 1 view .LVU257
 956:../03_Drivers/STM32L4xx_HAL_Driver/Src/stm32l4xx_hal_flash_ex.c ****       optr_reg_mask |= FLASH_OPTR_nBOOT0;
 882              		.loc 1 956 7 view .LVU258
 956:../03_Drivers/STM32L4xx_HAL_Driver/Src/stm32l4xx_hal_flash_ex.c ****       optr_reg_mask |= FLASH_OPTR_nBOOT0;
 883              		.loc 1 956 35 is_stmt 0 view .LVU259
 884 0128 06F00066 		and	r6, r6, #134217728
 885              	.LVL79:
 956:../03_Drivers/STM32L4xx_HAL_Driver/Src/stm32l4xx_hal_flash_ex.c ****       optr_reg_mask |= FLASH_OPTR_nBOOT0;
 886              		.loc 1 956 20 view .LVU260
 887 012c 3543     		orrs	r5, r5, r6
 888              	.LVL80:
 957:../03_Drivers/STM32L4xx_HAL_Driver/Src/stm32l4xx_hal_flash_ex.c ****     }
 889              		.loc 1 957 7 is_stmt 1 view .LVU261
 957:../03_Drivers/STM32L4xx_HAL_Driver/Src/stm32l4xx_hal_flash_ex.c ****     }
 890              		.loc 1 957 21 is_stmt 0 view .LVU262
 891 012e 43F00063 		orr	r3, r3, #134217728
 892              	.LVL81:
ARM GAS  C:\Users\minde\AppData\Local\Temp\ccYkQJ5V.s 			page 43


 893              	.L75:
 962:../03_Drivers/STM32L4xx_HAL_Driver/Src/stm32l4xx_hal_flash_ex.c **** 
 894              		.loc 1 962 5 is_stmt 1 view .LVU263
 895 0132 104C     		ldr	r4, .L84+4
 896              	.LVL82:
 962:../03_Drivers/STM32L4xx_HAL_Driver/Src/stm32l4xx_hal_flash_ex.c **** 
 897              		.loc 1 962 5 is_stmt 0 view .LVU264
 898 0134 226A     		ldr	r2, [r4, #32]
 899 0136 22EA0303 		bic	r3, r2, r3
 900              	.LVL83:
 962:../03_Drivers/STM32L4xx_HAL_Driver/Src/stm32l4xx_hal_flash_ex.c **** 
 901              		.loc 1 962 5 view .LVU265
 902 013a 1D43     		orrs	r5, r5, r3
 903              	.LVL84:
 962:../03_Drivers/STM32L4xx_HAL_Driver/Src/stm32l4xx_hal_flash_ex.c **** 
 904              		.loc 1 962 5 view .LVU266
 905 013c 2562     		str	r5, [r4, #32]
 965:../03_Drivers/STM32L4xx_HAL_Driver/Src/stm32l4xx_hal_flash_ex.c **** 
 906              		.loc 1 965 5 is_stmt 1 view .LVU267
 907 013e 6369     		ldr	r3, [r4, #20]
 908 0140 43F40033 		orr	r3, r3, #131072
 909 0144 6361     		str	r3, [r4, #20]
 968:../03_Drivers/STM32L4xx_HAL_Driver/Src/stm32l4xx_hal_flash_ex.c **** 
 910              		.loc 1 968 5 view .LVU268
 968:../03_Drivers/STM32L4xx_HAL_Driver/Src/stm32l4xx_hal_flash_ex.c **** 
 911              		.loc 1 968 14 is_stmt 0 view .LVU269
 912 0146 4CF25030 		movw	r0, #50000
 913 014a FFF7FEFF 		bl	FLASH_WaitForLastOperation
 914              	.LVL85:
 971:../03_Drivers/STM32L4xx_HAL_Driver/Src/stm32l4xx_hal_flash_ex.c ****   }
 915              		.loc 1 971 5 is_stmt 1 view .LVU270
 916 014e 6369     		ldr	r3, [r4, #20]
 917 0150 23F40033 		bic	r3, r3, #131072
 918 0154 6361     		str	r3, [r4, #20]
 919              	.L62:
 974:../03_Drivers/STM32L4xx_HAL_Driver/Src/stm32l4xx_hal_flash_ex.c **** }
 920              		.loc 1 974 3 view .LVU271
 975:../03_Drivers/STM32L4xx_HAL_Driver/Src/stm32l4xx_hal_flash_ex.c **** 
 921              		.loc 1 975 1 is_stmt 0 view .LVU272
 922 0156 70BD     		pop	{r4, r5, r6, pc}
 923              	.LVL86:
 924              	.L77:
 798:../03_Drivers/STM32L4xx_HAL_Driver/Src/stm32l4xx_hal_flash_ex.c ****     }
 925              		.loc 1 798 21 view .LVU273
 926 0158 4FF4E063 		mov	r3, #1792
 927 015c 89E7     		b	.L63
 928              	.L78:
 929 015e 4FF4E063 		mov	r3, #1792
 930 0162 86E7     		b	.L63
 931              	.L79:
 932 0164 4FF4E063 		mov	r3, #1792
 933 0168 83E7     		b	.L63
 934              	.L80:
 935 016a 4FF4E063 		mov	r3, #1792
 936 016e 80E7     		b	.L63
 937              	.L85:
 938              		.align	2
ARM GAS  C:\Users\minde\AppData\Local\Temp\ccYkQJ5V.s 			page 44


 939              	.L84:
 940 0170 00000000 		.word	.LC0
 941 0174 00200240 		.word	1073881088
 942              		.cfi_endproc
 943              	.LFE297:
 945              		.section	.text.FLASH_OB_PCROPConfig,"ax",%progbits
 946              		.align	1
 947              		.syntax unified
 948              		.thumb
 949              		.thumb_func
 950              		.fpu fpv4-sp-d16
 952              	FLASH_OB_PCROPConfig:
 953              	.LVL87:
 954              	.LFB298:
 998:../03_Drivers/STM32L4xx_HAL_Driver/Src/stm32l4xx_hal_flash_ex.c ****   HAL_StatusTypeDef status;
 955              		.loc 1 998 1 is_stmt 1 view -0
 956              		.cfi_startproc
 957              		@ args = 0, pretend = 0, frame = 0
 958              		@ frame_needed = 0, uses_anonymous_args = 0
 998:../03_Drivers/STM32L4xx_HAL_Driver/Src/stm32l4xx_hal_flash_ex.c ****   HAL_StatusTypeDef status;
 959              		.loc 1 998 1 is_stmt 0 view .LVU275
 960 0000 F8B5     		push	{r3, r4, r5, r6, r7, lr}
 961              	.LCFI6:
 962              		.cfi_def_cfa_offset 24
 963              		.cfi_offset 3, -24
 964              		.cfi_offset 4, -20
 965              		.cfi_offset 5, -16
 966              		.cfi_offset 6, -12
 967              		.cfi_offset 7, -8
 968              		.cfi_offset 14, -4
 969 0002 0446     		mov	r4, r0
 970 0004 0E46     		mov	r6, r1
 971 0006 1546     		mov	r5, r2
 999:../03_Drivers/STM32L4xx_HAL_Driver/Src/stm32l4xx_hal_flash_ex.c ****   uint32_t reg_value;
 972              		.loc 1 999 3 is_stmt 1 view .LVU276
1000:../03_Drivers/STM32L4xx_HAL_Driver/Src/stm32l4xx_hal_flash_ex.c ****   uint32_t bank1_addr;
 973              		.loc 1 1000 3 view .LVU277
1001:../03_Drivers/STM32L4xx_HAL_Driver/Src/stm32l4xx_hal_flash_ex.c **** #if defined (STM32L471xx) || defined (STM32L475xx) || defined (STM32L476xx) || defined (STM32L485xx
 974              		.loc 1 1001 3 view .LVU278
1010:../03_Drivers/STM32L4xx_HAL_Driver/Src/stm32l4xx_hal_flash_ex.c ****   assert_param(IS_OB_PCROP_RDP(PCROPConfig & FLASH_PCROP1ER_PCROP_RDP));
 975              		.loc 1 1010 3 view .LVU279
 976 0008 10F00107 		ands	r7, r0, #1
 977 000c 16D0     		beq	.L103
 978              	.LVL88:
 979              	.L87:
1011:../03_Drivers/STM32L4xx_HAL_Driver/Src/stm32l4xx_hal_flash_ex.c ****   assert_param(IS_FLASH_MAIN_MEM_ADDRESS(PCROPStartAddr));
 980              		.loc 1 1011 3 view .LVU280
1012:../03_Drivers/STM32L4xx_HAL_Driver/Src/stm32l4xx_hal_flash_ex.c ****   assert_param(IS_FLASH_MAIN_MEM_ADDRESS(PCROPEndAddr));
 981              		.loc 1 1012 3 view .LVU281
 982 000e B6F1006F 		cmp	r6, #134217728
 983 0012 1CD3     		bcc	.L88
1012:../03_Drivers/STM32L4xx_HAL_Driver/Src/stm32l4xx_hal_flash_ex.c ****   assert_param(IS_FLASH_MAIN_MEM_ADDRESS(PCROPEndAddr));
 984              		.loc 1 1012 3 is_stmt 0 discriminator 2 view .LVU282
 985 0014 444B     		ldr	r3, .L112
 986 0016 B3F8E030 		ldrh	r3, [r3, #224]
 987 001a C3F30B03 		ubfx	r3, r3, #0, #12
 988 001e B3F5806F 		cmp	r3, #1024
ARM GAS  C:\Users\minde\AppData\Local\Temp\ccYkQJ5V.s 			page 45


 989 0022 11D0     		beq	.L104
1012:../03_Drivers/STM32L4xx_HAL_Driver/Src/stm32l4xx_hal_flash_ex.c ****   assert_param(IS_FLASH_MAIN_MEM_ADDRESS(PCROPEndAddr));
 990              		.loc 1 1012 3 discriminator 4 view .LVU283
 991 0024 B3F5007F 		cmp	r3, #512
 992 0028 2DD0     		beq	.L105
1012:../03_Drivers/STM32L4xx_HAL_Driver/Src/stm32l4xx_hal_flash_ex.c ****   assert_param(IS_FLASH_MAIN_MEM_ADDRESS(PCROPEndAddr));
 993              		.loc 1 1012 3 discriminator 7 view .LVU284
 994 002a B3F5807F 		cmp	r3, #256
 995 002e 2ED0     		beq	.L106
1012:../03_Drivers/STM32L4xx_HAL_Driver/Src/stm32l4xx_hal_flash_ex.c ****   assert_param(IS_FLASH_MAIN_MEM_ADDRESS(PCROPEndAddr));
 996              		.loc 1 1012 3 discriminator 10 view .LVU285
 997 0030 802B     		cmp	r3, #128
 998 0032 30D0     		beq	.L107
1012:../03_Drivers/STM32L4xx_HAL_Driver/Src/stm32l4xx_hal_flash_ex.c ****   assert_param(IS_FLASH_MAIN_MEM_ADDRESS(PCROPEndAddr));
 999              		.loc 1 1012 3 discriminator 13 view .LVU286
 1000 0034 B6F1016F 		cmp	r6, #135266304
 1001 0038 0ED3     		bcc	.L90
 1002 003a 08E0     		b	.L88
 1003              	.LVL89:
 1004              	.L103:
1010:../03_Drivers/STM32L4xx_HAL_Driver/Src/stm32l4xx_hal_flash_ex.c ****   assert_param(IS_OB_PCROP_RDP(PCROPConfig & FLASH_PCROP1ER_PCROP_RDP));
 1005              		.loc 1 1010 3 discriminator 1 view .LVU287
 1006 003c 40F2F231 		movw	r1, #1010
 1007              	.LVL90:
1010:../03_Drivers/STM32L4xx_HAL_Driver/Src/stm32l4xx_hal_flash_ex.c ****   assert_param(IS_OB_PCROP_RDP(PCROPConfig & FLASH_PCROP1ER_PCROP_RDP));
 1008              		.loc 1 1010 3 discriminator 1 view .LVU288
 1009 0040 3A48     		ldr	r0, .L112+4
 1010              	.LVL91:
1010:../03_Drivers/STM32L4xx_HAL_Driver/Src/stm32l4xx_hal_flash_ex.c ****   assert_param(IS_OB_PCROP_RDP(PCROPConfig & FLASH_PCROP1ER_PCROP_RDP));
 1011              		.loc 1 1010 3 discriminator 1 view .LVU289
 1012 0042 FFF7FEFF 		bl	assert_failed
 1013              	.LVL92:
1010:../03_Drivers/STM32L4xx_HAL_Driver/Src/stm32l4xx_hal_flash_ex.c ****   assert_param(IS_OB_PCROP_RDP(PCROPConfig & FLASH_PCROP1ER_PCROP_RDP));
 1014              		.loc 1 1010 3 discriminator 1 view .LVU290
 1015 0046 E2E7     		b	.L87
 1016              	.L104:
1012:../03_Drivers/STM32L4xx_HAL_Driver/Src/stm32l4xx_hal_flash_ex.c ****   assert_param(IS_FLASH_MAIN_MEM_ADDRESS(PCROPEndAddr));
 1017              		.loc 1 1012 3 discriminator 3 view .LVU291
 1018 0048 B6F1016F 		cmp	r6, #135266304
 1019 004c 04D3     		bcc	.L90
 1020              	.L88:
1012:../03_Drivers/STM32L4xx_HAL_Driver/Src/stm32l4xx_hal_flash_ex.c ****   assert_param(IS_FLASH_MAIN_MEM_ADDRESS(PCROPEndAddr));
 1021              		.loc 1 1012 3 discriminator 15 view .LVU292
 1022 004e 4FF47D71 		mov	r1, #1012
 1023 0052 3648     		ldr	r0, .L112+4
 1024 0054 FFF7FEFF 		bl	assert_failed
 1025              	.LVL93:
 1026              	.L90:
1013:../03_Drivers/STM32L4xx_HAL_Driver/Src/stm32l4xx_hal_flash_ex.c **** 
 1027              		.loc 1 1013 3 is_stmt 1 view .LVU293
 1028 0058 B5F1006F 		cmp	r5, #134217728
 1029 005c 22D3     		bcc	.L94
1013:../03_Drivers/STM32L4xx_HAL_Driver/Src/stm32l4xx_hal_flash_ex.c **** 
 1030              		.loc 1 1013 3 is_stmt 0 discriminator 2 view .LVU294
 1031 005e 324B     		ldr	r3, .L112
 1032 0060 B3F8E030 		ldrh	r3, [r3, #224]
 1033 0064 C3F30B03 		ubfx	r3, r3, #0, #12
ARM GAS  C:\Users\minde\AppData\Local\Temp\ccYkQJ5V.s 			page 46


 1034 0068 B3F5806F 		cmp	r3, #1024
 1035 006c 17D0     		beq	.L108
1013:../03_Drivers/STM32L4xx_HAL_Driver/Src/stm32l4xx_hal_flash_ex.c **** 
 1036              		.loc 1 1013 3 discriminator 4 view .LVU295
 1037 006e B3F5007F 		cmp	r3, #512
 1038 0072 4CD0     		beq	.L109
1013:../03_Drivers/STM32L4xx_HAL_Driver/Src/stm32l4xx_hal_flash_ex.c **** 
 1039              		.loc 1 1013 3 discriminator 7 view .LVU296
 1040 0074 B3F5807F 		cmp	r3, #256
 1041 0078 4DD0     		beq	.L110
1013:../03_Drivers/STM32L4xx_HAL_Driver/Src/stm32l4xx_hal_flash_ex.c **** 
 1042              		.loc 1 1013 3 discriminator 10 view .LVU297
 1043 007a 802B     		cmp	r3, #128
 1044 007c 4FD0     		beq	.L111
1013:../03_Drivers/STM32L4xx_HAL_Driver/Src/stm32l4xx_hal_flash_ex.c **** 
 1045              		.loc 1 1013 3 discriminator 13 view .LVU298
 1046 007e B5F1016F 		cmp	r5, #135266304
 1047 0082 14D3     		bcc	.L96
 1048 0084 0EE0     		b	.L94
 1049              	.L105:
1012:../03_Drivers/STM32L4xx_HAL_Driver/Src/stm32l4xx_hal_flash_ex.c ****   assert_param(IS_FLASH_MAIN_MEM_ADDRESS(PCROPEndAddr));
 1050              		.loc 1 1012 3 discriminator 6 view .LVU299
 1051 0086 2A4B     		ldr	r3, .L112+8
 1052 0088 9E42     		cmp	r6, r3
 1053 008a E0D8     		bhi	.L88
 1054 008c E4E7     		b	.L90
 1055              	.L106:
1012:../03_Drivers/STM32L4xx_HAL_Driver/Src/stm32l4xx_hal_flash_ex.c ****   assert_param(IS_FLASH_MAIN_MEM_ADDRESS(PCROPEndAddr));
 1056              		.loc 1 1012 3 discriminator 9 view .LVU300
 1057 008e 294B     		ldr	r3, .L112+12
 1058 0090 9E42     		cmp	r6, r3
 1059 0092 DCD8     		bhi	.L88
 1060 0094 E0E7     		b	.L90
 1061              	.L107:
1012:../03_Drivers/STM32L4xx_HAL_Driver/Src/stm32l4xx_hal_flash_ex.c ****   assert_param(IS_FLASH_MAIN_MEM_ADDRESS(PCROPEndAddr));
 1062              		.loc 1 1012 3 discriminator 12 view .LVU301
 1063 0096 284B     		ldr	r3, .L112+16
 1064 0098 9E42     		cmp	r6, r3
 1065 009a D8D8     		bhi	.L88
 1066 009c DCE7     		b	.L90
 1067              	.L108:
1013:../03_Drivers/STM32L4xx_HAL_Driver/Src/stm32l4xx_hal_flash_ex.c **** 
 1068              		.loc 1 1013 3 discriminator 3 view .LVU302
 1069 009e B5F1016F 		cmp	r5, #135266304
 1070 00a2 04D3     		bcc	.L96
 1071              	.L94:
1013:../03_Drivers/STM32L4xx_HAL_Driver/Src/stm32l4xx_hal_flash_ex.c **** 
 1072              		.loc 1 1013 3 discriminator 15 view .LVU303
 1073 00a4 40F2F531 		movw	r1, #1013
 1074 00a8 2048     		ldr	r0, .L112+4
 1075 00aa FFF7FEFF 		bl	assert_failed
 1076              	.LVL94:
 1077              	.L96:
1016:../03_Drivers/STM32L4xx_HAL_Driver/Src/stm32l4xx_hal_flash_ex.c **** 
 1078              		.loc 1 1016 3 is_stmt 1 view .LVU304
1016:../03_Drivers/STM32L4xx_HAL_Driver/Src/stm32l4xx_hal_flash_ex.c **** 
 1079              		.loc 1 1016 12 is_stmt 0 view .LVU305
ARM GAS  C:\Users\minde\AppData\Local\Temp\ccYkQJ5V.s 			page 47


 1080 00ae 4CF25030 		movw	r0, #50000
 1081 00b2 FFF7FEFF 		bl	FLASH_WaitForLastOperation
 1082              	.LVL95:
1018:../03_Drivers/STM32L4xx_HAL_Driver/Src/stm32l4xx_hal_flash_ex.c ****   {
 1083              		.loc 1 1018 3 is_stmt 1 view .LVU306
1018:../03_Drivers/STM32L4xx_HAL_Driver/Src/stm32l4xx_hal_flash_ex.c ****   {
 1084              		.loc 1 1018 5 is_stmt 0 view .LVU307
 1085 00b6 48BB     		cbnz	r0, .L100
1036:../03_Drivers/STM32L4xx_HAL_Driver/Src/stm32l4xx_hal_flash_ex.c **** #endif
 1086              		.loc 1 1036 5 is_stmt 1 view .LVU308
 1087              	.LVL96:
1068:../03_Drivers/STM32L4xx_HAL_Driver/Src/stm32l4xx_hal_flash_ex.c ****       {
 1088              		.loc 1 1068 7 view .LVU309
1068:../03_Drivers/STM32L4xx_HAL_Driver/Src/stm32l4xx_hal_flash_ex.c ****       {
 1089              		.loc 1 1068 9 is_stmt 0 view .LVU310
 1090 00b8 A7B1     		cbz	r7, .L101
1070:../03_Drivers/STM32L4xx_HAL_Driver/Src/stm32l4xx_hal_flash_ex.c ****         MODIFY_REG(FLASH->PCROP1SR, FLASH_PCROP1SR_PCROP1_STRT, reg_value);
 1091              		.loc 1 1070 9 is_stmt 1 view .LVU311
1070:../03_Drivers/STM32L4xx_HAL_Driver/Src/stm32l4xx_hal_flash_ex.c ****         MODIFY_REG(FLASH->PCROP1SR, FLASH_PCROP1SR_PCROP1_STRT, reg_value);
 1092              		.loc 1 1070 38 is_stmt 0 view .LVU312
 1093 00ba 06F17846 		add	r6, r6, #-134217728
 1094              	.LVL97:
1071:../03_Drivers/STM32L4xx_HAL_Driver/Src/stm32l4xx_hal_flash_ex.c **** 
 1095              		.loc 1 1071 9 is_stmt 1 view .LVU313
 1096 00be 1F4A     		ldr	r2, .L112+20
 1097 00c0 536A     		ldr	r3, [r2, #36]
 1098 00c2 23F4FF43 		bic	r3, r3, #32640
 1099 00c6 23F07F03 		bic	r3, r3, #127
 1100 00ca 43EAD606 		orr	r6, r3, r6, lsr #3
 1101              	.LVL98:
1071:../03_Drivers/STM32L4xx_HAL_Driver/Src/stm32l4xx_hal_flash_ex.c **** 
 1102              		.loc 1 1071 9 is_stmt 0 view .LVU314
 1103 00ce 5662     		str	r6, [r2, #36]
1073:../03_Drivers/STM32L4xx_HAL_Driver/Src/stm32l4xx_hal_flash_ex.c ****         MODIFY_REG(FLASH->PCROP1ER, FLASH_PCROP1ER_PCROP1_END, reg_value);
 1104              		.loc 1 1073 9 is_stmt 1 view .LVU315
1073:../03_Drivers/STM32L4xx_HAL_Driver/Src/stm32l4xx_hal_flash_ex.c ****         MODIFY_REG(FLASH->PCROP1ER, FLASH_PCROP1ER_PCROP1_END, reg_value);
 1105              		.loc 1 1073 36 is_stmt 0 view .LVU316
 1106 00d0 05F17845 		add	r5, r5, #-134217728
 1107              	.LVL99:
1074:../03_Drivers/STM32L4xx_HAL_Driver/Src/stm32l4xx_hal_flash_ex.c ****       }
 1108              		.loc 1 1074 9 is_stmt 1 view .LVU317
 1109 00d4 936A     		ldr	r3, [r2, #40]
 1110 00d6 23F4FF43 		bic	r3, r3, #32640
 1111 00da 23F07F03 		bic	r3, r3, #127
 1112 00de 43EAD505 		orr	r5, r3, r5, lsr #3
 1113              	.LVL100:
1074:../03_Drivers/STM32L4xx_HAL_Driver/Src/stm32l4xx_hal_flash_ex.c ****       }
 1114              		.loc 1 1074 9 is_stmt 0 view .LVU318
 1115 00e2 9562     		str	r5, [r2, #40]
 1116              	.LVL101:
 1117              	.L101:
1092:../03_Drivers/STM32L4xx_HAL_Driver/Src/stm32l4xx_hal_flash_ex.c ****     }
 1118              		.loc 1 1092 7 is_stmt 1 view .LVU319
1095:../03_Drivers/STM32L4xx_HAL_Driver/Src/stm32l4xx_hal_flash_ex.c **** 
 1119              		.loc 1 1095 5 view .LVU320
 1120 00e4 154D     		ldr	r5, .L112+20
 1121 00e6 A86A     		ldr	r0, [r5, #40]
ARM GAS  C:\Users\minde\AppData\Local\Temp\ccYkQJ5V.s 			page 48


 1122              	.LVL102:
1095:../03_Drivers/STM32L4xx_HAL_Driver/Src/stm32l4xx_hal_flash_ex.c **** 
 1123              		.loc 1 1095 5 is_stmt 0 view .LVU321
 1124 00e8 20F00040 		bic	r0, r0, #-2147483648
 1125 00ec 04F00044 		and	r4, r4, #-2147483648
 1126              	.LVL103:
1095:../03_Drivers/STM32L4xx_HAL_Driver/Src/stm32l4xx_hal_flash_ex.c **** 
 1127              		.loc 1 1095 5 view .LVU322
 1128 00f0 0443     		orrs	r4, r4, r0
 1129 00f2 AC62     		str	r4, [r5, #40]
1098:../03_Drivers/STM32L4xx_HAL_Driver/Src/stm32l4xx_hal_flash_ex.c **** 
 1130              		.loc 1 1098 5 is_stmt 1 view .LVU323
 1131 00f4 6B69     		ldr	r3, [r5, #20]
 1132 00f6 43F40033 		orr	r3, r3, #131072
 1133 00fa 6B61     		str	r3, [r5, #20]
1101:../03_Drivers/STM32L4xx_HAL_Driver/Src/stm32l4xx_hal_flash_ex.c **** 
 1134              		.loc 1 1101 5 view .LVU324
1101:../03_Drivers/STM32L4xx_HAL_Driver/Src/stm32l4xx_hal_flash_ex.c **** 
 1135              		.loc 1 1101 14 is_stmt 0 view .LVU325
 1136 00fc 4CF25030 		movw	r0, #50000
 1137 0100 FFF7FEFF 		bl	FLASH_WaitForLastOperation
 1138              	.LVL104:
1104:../03_Drivers/STM32L4xx_HAL_Driver/Src/stm32l4xx_hal_flash_ex.c ****   }
 1139              		.loc 1 1104 5 is_stmt 1 view .LVU326
 1140 0104 6B69     		ldr	r3, [r5, #20]
 1141 0106 23F40033 		bic	r3, r3, #131072
 1142 010a 6B61     		str	r3, [r5, #20]
 1143              	.LVL105:
 1144              	.L100:
1107:../03_Drivers/STM32L4xx_HAL_Driver/Src/stm32l4xx_hal_flash_ex.c **** }
 1145              		.loc 1 1107 3 view .LVU327
1108:../03_Drivers/STM32L4xx_HAL_Driver/Src/stm32l4xx_hal_flash_ex.c **** 
 1146              		.loc 1 1108 1 is_stmt 0 view .LVU328
 1147 010c F8BD     		pop	{r3, r4, r5, r6, r7, pc}
 1148              	.LVL106:
 1149              	.L109:
1013:../03_Drivers/STM32L4xx_HAL_Driver/Src/stm32l4xx_hal_flash_ex.c **** 
 1150              		.loc 1 1013 3 discriminator 6 view .LVU329
 1151 010e 084B     		ldr	r3, .L112+8
 1152 0110 9D42     		cmp	r5, r3
 1153 0112 C7D8     		bhi	.L94
 1154 0114 CBE7     		b	.L96
 1155              	.L110:
1013:../03_Drivers/STM32L4xx_HAL_Driver/Src/stm32l4xx_hal_flash_ex.c **** 
 1156              		.loc 1 1013 3 discriminator 9 view .LVU330
 1157 0116 074B     		ldr	r3, .L112+12
 1158 0118 9D42     		cmp	r5, r3
 1159 011a C3D8     		bhi	.L94
 1160 011c C7E7     		b	.L96
 1161              	.L111:
1013:../03_Drivers/STM32L4xx_HAL_Driver/Src/stm32l4xx_hal_flash_ex.c **** 
 1162              		.loc 1 1013 3 discriminator 12 view .LVU331
 1163 011e 064B     		ldr	r3, .L112+16
 1164 0120 9D42     		cmp	r5, r3
 1165 0122 BFD8     		bhi	.L94
 1166 0124 C3E7     		b	.L96
 1167              	.L113:
ARM GAS  C:\Users\minde\AppData\Local\Temp\ccYkQJ5V.s 			page 49


 1168 0126 00BF     		.align	2
 1169              	.L112:
 1170 0128 0075FF1F 		.word	536835328
 1171 012c 00000000 		.word	.LC0
 1172 0130 FFFF0708 		.word	134742015
 1173 0134 FFFF0308 		.word	134479871
 1174 0138 FFFF0108 		.word	134348799
 1175 013c 00200240 		.word	1073881088
 1176              		.cfi_endproc
 1177              	.LFE298:
 1179              		.section	.text.HAL_FLASHEx_OBProgram,"ax",%progbits
 1180              		.align	1
 1181              		.global	HAL_FLASHEx_OBProgram
 1182              		.syntax unified
 1183              		.thumb
 1184              		.thumb_func
 1185              		.fpu fpv4-sp-d16
 1187              	HAL_FLASHEx_OBProgram:
 1188              	.LVL107:
 1189              	.LFB290:
 306:../03_Drivers/STM32L4xx_HAL_Driver/Src/stm32l4xx_hal_flash_ex.c ****   HAL_StatusTypeDef status = HAL_OK;
 1190              		.loc 1 306 1 is_stmt 1 view -0
 1191              		.cfi_startproc
 1192              		@ args = 0, pretend = 0, frame = 0
 1193              		@ frame_needed = 0, uses_anonymous_args = 0
 306:../03_Drivers/STM32L4xx_HAL_Driver/Src/stm32l4xx_hal_flash_ex.c ****   HAL_StatusTypeDef status = HAL_OK;
 1194              		.loc 1 306 1 is_stmt 0 view .LVU333
 1195 0000 38B5     		push	{r3, r4, r5, lr}
 1196              	.LCFI7:
 1197              		.cfi_def_cfa_offset 16
 1198              		.cfi_offset 3, -16
 1199              		.cfi_offset 4, -12
 1200              		.cfi_offset 5, -8
 1201              		.cfi_offset 14, -4
 307:../03_Drivers/STM32L4xx_HAL_Driver/Src/stm32l4xx_hal_flash_ex.c **** 
 1202              		.loc 1 307 3 is_stmt 1 view .LVU334
 1203              	.LVL108:
 310:../03_Drivers/STM32L4xx_HAL_Driver/Src/stm32l4xx_hal_flash_ex.c **** 
 1204              		.loc 1 310 3 view .LVU335
 310:../03_Drivers/STM32L4xx_HAL_Driver/Src/stm32l4xx_hal_flash_ex.c **** 
 1205              		.loc 1 310 3 view .LVU336
 1206 0002 284B     		ldr	r3, .L133
 1207 0004 1B78     		ldrb	r3, [r3]	@ zero_extendqisi2
 1208 0006 012B     		cmp	r3, #1
 1209 0008 49D0     		beq	.L121
 1210 000a 0446     		mov	r4, r0
 310:../03_Drivers/STM32L4xx_HAL_Driver/Src/stm32l4xx_hal_flash_ex.c **** 
 1211              		.loc 1 310 3 discriminator 2 view .LVU337
 1212 000c 254B     		ldr	r3, .L133
 1213 000e 0122     		movs	r2, #1
 1214 0010 1A70     		strb	r2, [r3]
 310:../03_Drivers/STM32L4xx_HAL_Driver/Src/stm32l4xx_hal_flash_ex.c **** 
 1215              		.loc 1 310 3 discriminator 2 view .LVU338
 313:../03_Drivers/STM32L4xx_HAL_Driver/Src/stm32l4xx_hal_flash_ex.c **** 
 1216              		.loc 1 313 3 discriminator 2 view .LVU339
 1217 0012 0368     		ldr	r3, [r0]
 1218 0014 0F2B     		cmp	r3, #15
ARM GAS  C:\Users\minde\AppData\Local\Temp\ccYkQJ5V.s 			page 50


 1219 0016 1CD8     		bhi	.L128
 1220              	.LVL109:
 1221              	.L116:
 315:../03_Drivers/STM32L4xx_HAL_Driver/Src/stm32l4xx_hal_flash_ex.c **** 
 1222              		.loc 1 315 3 view .LVU340
 315:../03_Drivers/STM32L4xx_HAL_Driver/Src/stm32l4xx_hal_flash_ex.c **** 
 1223              		.loc 1 315 20 is_stmt 0 view .LVU341
 1224 0018 224B     		ldr	r3, .L133
 1225 001a 0022     		movs	r2, #0
 1226 001c 5A60     		str	r2, [r3, #4]
 318:../03_Drivers/STM32L4xx_HAL_Driver/Src/stm32l4xx_hal_flash_ex.c ****   {
 1227              		.loc 1 318 3 is_stmt 1 view .LVU342
 318:../03_Drivers/STM32L4xx_HAL_Driver/Src/stm32l4xx_hal_flash_ex.c ****   {
 1228              		.loc 1 318 14 is_stmt 0 view .LVU343
 1229 001e 2368     		ldr	r3, [r4]
 318:../03_Drivers/STM32L4xx_HAL_Driver/Src/stm32l4xx_hal_flash_ex.c ****   {
 1230              		.loc 1 318 5 view .LVU344
 1231 0020 13F0010F 		tst	r3, #1
 1232 0024 1BD1     		bne	.L129
 307:../03_Drivers/STM32L4xx_HAL_Driver/Src/stm32l4xx_hal_flash_ex.c **** 
 1233              		.loc 1 307 21 view .LVU345
 1234 0026 0025     		movs	r5, #0
 1235              	.L117:
 1236              	.LVL110:
 329:../03_Drivers/STM32L4xx_HAL_Driver/Src/stm32l4xx_hal_flash_ex.c ****   {
 1237              		.loc 1 329 3 is_stmt 1 view .LVU346
 329:../03_Drivers/STM32L4xx_HAL_Driver/Src/stm32l4xx_hal_flash_ex.c ****   {
 1238              		.loc 1 329 14 is_stmt 0 view .LVU347
 1239 0028 2368     		ldr	r3, [r4]
 329:../03_Drivers/STM32L4xx_HAL_Driver/Src/stm32l4xx_hal_flash_ex.c ****   {
 1240              		.loc 1 329 5 view .LVU348
 1241 002a 13F0020F 		tst	r3, #2
 1242 002e 20D1     		bne	.L130
 1243              	.LVL111:
 1244              	.L118:
 339:../03_Drivers/STM32L4xx_HAL_Driver/Src/stm32l4xx_hal_flash_ex.c ****   {
 1245              		.loc 1 339 3 is_stmt 1 view .LVU349
 339:../03_Drivers/STM32L4xx_HAL_Driver/Src/stm32l4xx_hal_flash_ex.c ****   {
 1246              		.loc 1 339 14 is_stmt 0 view .LVU350
 1247 0030 2368     		ldr	r3, [r4]
 339:../03_Drivers/STM32L4xx_HAL_Driver/Src/stm32l4xx_hal_flash_ex.c ****   {
 1248              		.loc 1 339 5 view .LVU351
 1249 0032 13F0040F 		tst	r3, #4
 1250 0036 23D1     		bne	.L131
 1251              	.LVL112:
 1252              	.L119:
 349:../03_Drivers/STM32L4xx_HAL_Driver/Src/stm32l4xx_hal_flash_ex.c ****   {
 1253              		.loc 1 349 3 is_stmt 1 view .LVU352
 349:../03_Drivers/STM32L4xx_HAL_Driver/Src/stm32l4xx_hal_flash_ex.c ****   {
 1254              		.loc 1 349 14 is_stmt 0 view .LVU353
 1255 0038 2368     		ldr	r3, [r4]
 349:../03_Drivers/STM32L4xx_HAL_Driver/Src/stm32l4xx_hal_flash_ex.c ****   {
 1256              		.loc 1 349 5 view .LVU354
 1257 003a 13F0080F 		tst	r3, #8
 1258 003e 03D0     		beq	.L120
 351:../03_Drivers/STM32L4xx_HAL_Driver/Src/stm32l4xx_hal_flash_ex.c ****     {
 1259              		.loc 1 351 5 is_stmt 1 view .LVU355
ARM GAS  C:\Users\minde\AppData\Local\Temp\ccYkQJ5V.s 			page 51


 351:../03_Drivers/STM32L4xx_HAL_Driver/Src/stm32l4xx_hal_flash_ex.c ****     {
 1260              		.loc 1 351 16 is_stmt 0 view .LVU356
 1261 0040 216A     		ldr	r1, [r4, #32]
 351:../03_Drivers/STM32L4xx_HAL_Driver/Src/stm32l4xx_hal_flash_ex.c ****     {
 1262              		.loc 1 351 43 view .LVU357
 1263 0042 626A     		ldr	r2, [r4, #36]
 351:../03_Drivers/STM32L4xx_HAL_Driver/Src/stm32l4xx_hal_flash_ex.c ****     {
 1264              		.loc 1 351 8 view .LVU358
 1265 0044 9142     		cmp	r1, r2
 1266 0046 23D1     		bne	.L132
 1267              	.LVL113:
 1268              	.L120:
 362:../03_Drivers/STM32L4xx_HAL_Driver/Src/stm32l4xx_hal_flash_ex.c **** 
 1269              		.loc 1 362 3 is_stmt 1 view .LVU359
 362:../03_Drivers/STM32L4xx_HAL_Driver/Src/stm32l4xx_hal_flash_ex.c **** 
 1270              		.loc 1 362 3 view .LVU360
 1271 0048 164B     		ldr	r3, .L133
 1272 004a 0022     		movs	r2, #0
 1273 004c 1A70     		strb	r2, [r3]
 362:../03_Drivers/STM32L4xx_HAL_Driver/Src/stm32l4xx_hal_flash_ex.c **** 
 1274              		.loc 1 362 3 view .LVU361
 364:../03_Drivers/STM32L4xx_HAL_Driver/Src/stm32l4xx_hal_flash_ex.c **** }
 1275              		.loc 1 364 3 view .LVU362
 1276              	.LVL114:
 1277              	.L115:
 365:../03_Drivers/STM32L4xx_HAL_Driver/Src/stm32l4xx_hal_flash_ex.c **** 
 1278              		.loc 1 365 1 is_stmt 0 view .LVU363
 1279 004e 2846     		mov	r0, r5
 1280 0050 38BD     		pop	{r3, r4, r5, pc}
 1281              	.LVL115:
 1282              	.L128:
 313:../03_Drivers/STM32L4xx_HAL_Driver/Src/stm32l4xx_hal_flash_ex.c **** 
 1283              		.loc 1 313 3 discriminator 1 view .LVU364
 1284 0052 40F23911 		movw	r1, #313
 1285 0056 1448     		ldr	r0, .L133+4
 1286              	.LVL116:
 313:../03_Drivers/STM32L4xx_HAL_Driver/Src/stm32l4xx_hal_flash_ex.c **** 
 1287              		.loc 1 313 3 discriminator 1 view .LVU365
 1288 0058 FFF7FEFF 		bl	assert_failed
 1289              	.LVL117:
 1290 005c DCE7     		b	.L116
 1291              	.L129:
 321:../03_Drivers/STM32L4xx_HAL_Driver/Src/stm32l4xx_hal_flash_ex.c ****     {
 1292              		.loc 1 321 5 is_stmt 1 view .LVU366
 321:../03_Drivers/STM32L4xx_HAL_Driver/Src/stm32l4xx_hal_flash_ex.c ****     {
 1293              		.loc 1 321 8 is_stmt 0 view .LVU367
 1294 005e E268     		ldr	r2, [r4, #12]
 1295 0060 A168     		ldr	r1, [r4, #8]
 1296 0062 6068     		ldr	r0, [r4, #4]
 1297 0064 FFF7FEFF 		bl	FLASH_OB_WRPConfig
 1298              	.LVL118:
 321:../03_Drivers/STM32L4xx_HAL_Driver/Src/stm32l4xx_hal_flash_ex.c ****     {
 1299              		.loc 1 321 7 view .LVU368
 1300 0068 0546     		mov	r5, r0
 1301 006a 0028     		cmp	r0, #0
 1302 006c DCD0     		beq	.L117
 323:../03_Drivers/STM32L4xx_HAL_Driver/Src/stm32l4xx_hal_flash_ex.c ****     }
ARM GAS  C:\Users\minde\AppData\Local\Temp\ccYkQJ5V.s 			page 52


 1303              		.loc 1 323 14 view .LVU369
 1304 006e 0125     		movs	r5, #1
 1305 0070 DAE7     		b	.L117
 1306              	.LVL119:
 1307              	.L130:
 332:../03_Drivers/STM32L4xx_HAL_Driver/Src/stm32l4xx_hal_flash_ex.c ****     {
 1308              		.loc 1 332 5 is_stmt 1 view .LVU370
 332:../03_Drivers/STM32L4xx_HAL_Driver/Src/stm32l4xx_hal_flash_ex.c ****     {
 1309              		.loc 1 332 8 is_stmt 0 view .LVU371
 1310 0072 2069     		ldr	r0, [r4, #16]
 1311 0074 FFF7FEFF 		bl	FLASH_OB_RDPConfig
 1312              	.LVL120:
 332:../03_Drivers/STM32L4xx_HAL_Driver/Src/stm32l4xx_hal_flash_ex.c ****     {
 1313              		.loc 1 332 7 view .LVU372
 1314 0078 0028     		cmp	r0, #0
 1315 007a D9D0     		beq	.L118
 334:../03_Drivers/STM32L4xx_HAL_Driver/Src/stm32l4xx_hal_flash_ex.c ****     }
 1316              		.loc 1 334 14 view .LVU373
 1317 007c 0125     		movs	r5, #1
 1318              	.LVL121:
 334:../03_Drivers/STM32L4xx_HAL_Driver/Src/stm32l4xx_hal_flash_ex.c ****     }
 1319              		.loc 1 334 14 view .LVU374
 1320 007e D7E7     		b	.L118
 1321              	.LVL122:
 1322              	.L131:
 342:../03_Drivers/STM32L4xx_HAL_Driver/Src/stm32l4xx_hal_flash_ex.c ****     {
 1323              		.loc 1 342 5 is_stmt 1 view .LVU375
 342:../03_Drivers/STM32L4xx_HAL_Driver/Src/stm32l4xx_hal_flash_ex.c ****     {
 1324              		.loc 1 342 8 is_stmt 0 view .LVU376
 1325 0080 A169     		ldr	r1, [r4, #24]
 1326 0082 6069     		ldr	r0, [r4, #20]
 1327 0084 FFF7FEFF 		bl	FLASH_OB_UserConfig
 1328              	.LVL123:
 342:../03_Drivers/STM32L4xx_HAL_Driver/Src/stm32l4xx_hal_flash_ex.c ****     {
 1329              		.loc 1 342 7 view .LVU377
 1330 0088 0028     		cmp	r0, #0
 1331 008a D5D0     		beq	.L119
 344:../03_Drivers/STM32L4xx_HAL_Driver/Src/stm32l4xx_hal_flash_ex.c ****     }
 1332              		.loc 1 344 14 view .LVU378
 1333 008c 0125     		movs	r5, #1
 1334              	.LVL124:
 344:../03_Drivers/STM32L4xx_HAL_Driver/Src/stm32l4xx_hal_flash_ex.c ****     }
 1335              		.loc 1 344 14 view .LVU379
 1336 008e D3E7     		b	.L119
 1337              	.LVL125:
 1338              	.L132:
 354:../03_Drivers/STM32L4xx_HAL_Driver/Src/stm32l4xx_hal_flash_ex.c ****       {
 1339              		.loc 1 354 7 is_stmt 1 view .LVU380
 354:../03_Drivers/STM32L4xx_HAL_Driver/Src/stm32l4xx_hal_flash_ex.c ****       {
 1340              		.loc 1 354 10 is_stmt 0 view .LVU381
 1341 0090 E069     		ldr	r0, [r4, #28]
 1342 0092 FFF7FEFF 		bl	FLASH_OB_PCROPConfig
 1343              	.LVL126:
 354:../03_Drivers/STM32L4xx_HAL_Driver/Src/stm32l4xx_hal_flash_ex.c ****       {
 1344              		.loc 1 354 9 view .LVU382
 1345 0096 0028     		cmp	r0, #0
 1346 0098 D6D0     		beq	.L120
ARM GAS  C:\Users\minde\AppData\Local\Temp\ccYkQJ5V.s 			page 53


 356:../03_Drivers/STM32L4xx_HAL_Driver/Src/stm32l4xx_hal_flash_ex.c ****       }
 1347              		.loc 1 356 16 view .LVU383
 1348 009a 0125     		movs	r5, #1
 1349              	.LVL127:
 356:../03_Drivers/STM32L4xx_HAL_Driver/Src/stm32l4xx_hal_flash_ex.c ****       }
 1350              		.loc 1 356 16 view .LVU384
 1351 009c D4E7     		b	.L120
 1352              	.LVL128:
 1353              	.L121:
 310:../03_Drivers/STM32L4xx_HAL_Driver/Src/stm32l4xx_hal_flash_ex.c **** 
 1354              		.loc 1 310 3 view .LVU385
 1355 009e 0225     		movs	r5, #2
 1356 00a0 D5E7     		b	.L115
 1357              	.L134:
 1358 00a2 00BF     		.align	2
 1359              	.L133:
 1360 00a4 00000000 		.word	pFlash
 1361 00a8 00000000 		.word	.LC0
 1362              		.cfi_endproc
 1363              	.LFE290:
 1365              		.section	.text.HAL_FLASHEx_OBGetConfig,"ax",%progbits
 1366              		.align	1
 1367              		.global	HAL_FLASHEx_OBGetConfig
 1368              		.syntax unified
 1369              		.thumb
 1370              		.thumb_func
 1371              		.fpu fpv4-sp-d16
 1373              	HAL_FLASHEx_OBGetConfig:
 1374              	.LVL129:
 1375              	.LFB291:
 377:../03_Drivers/STM32L4xx_HAL_Driver/Src/stm32l4xx_hal_flash_ex.c ****   pOBInit->OptionType = (OPTIONBYTE_RDP | OPTIONBYTE_USER);
 1376              		.loc 1 377 1 is_stmt 1 view -0
 1377              		.cfi_startproc
 1378              		@ args = 0, pretend = 0, frame = 0
 1379              		@ frame_needed = 0, uses_anonymous_args = 0
 377:../03_Drivers/STM32L4xx_HAL_Driver/Src/stm32l4xx_hal_flash_ex.c ****   pOBInit->OptionType = (OPTIONBYTE_RDP | OPTIONBYTE_USER);
 1380              		.loc 1 377 1 is_stmt 0 view .LVU387
 1381 0000 10B5     		push	{r4, lr}
 1382              	.LCFI8:
 1383              		.cfi_def_cfa_offset 8
 1384              		.cfi_offset 4, -8
 1385              		.cfi_offset 14, -4
 1386 0002 0446     		mov	r4, r0
 378:../03_Drivers/STM32L4xx_HAL_Driver/Src/stm32l4xx_hal_flash_ex.c **** 
 1387              		.loc 1 378 3 is_stmt 1 view .LVU388
 378:../03_Drivers/STM32L4xx_HAL_Driver/Src/stm32l4xx_hal_flash_ex.c **** 
 1388              		.loc 1 378 23 is_stmt 0 view .LVU389
 1389 0004 0623     		movs	r3, #6
 1390 0006 0360     		str	r3, [r0]
 387:../03_Drivers/STM32L4xx_HAL_Driver/Src/stm32l4xx_hal_flash_ex.c **** #endif
 1391              		.loc 1 387 3 is_stmt 1 view .LVU390
 387:../03_Drivers/STM32L4xx_HAL_Driver/Src/stm32l4xx_hal_flash_ex.c **** #endif
 1392              		.loc 1 387 14 is_stmt 0 view .LVU391
 1393 0008 4068     		ldr	r0, [r0, #4]
 1394              	.LVL130:
 387:../03_Drivers/STM32L4xx_HAL_Driver/Src/stm32l4xx_hal_flash_ex.c **** #endif
 1395              		.loc 1 387 5 view .LVU392
ARM GAS  C:\Users\minde\AppData\Local\Temp\ccYkQJ5V.s 			page 54


 1396 000a 0128     		cmp	r0, #1
 1397 000c 09D9     		bls	.L139
 1398              	.L136:
 396:../03_Drivers/STM32L4xx_HAL_Driver/Src/stm32l4xx_hal_flash_ex.c **** 
 1399              		.loc 1 396 3 is_stmt 1 view .LVU393
 396:../03_Drivers/STM32L4xx_HAL_Driver/Src/stm32l4xx_hal_flash_ex.c **** 
 1400              		.loc 1 396 23 is_stmt 0 view .LVU394
 1401 000e FFF7FEFF 		bl	FLASH_OB_GetRDP
 1402              	.LVL131:
 396:../03_Drivers/STM32L4xx_HAL_Driver/Src/stm32l4xx_hal_flash_ex.c **** 
 1403              		.loc 1 396 21 view .LVU395
 1404 0012 2061     		str	r0, [r4, #16]
 399:../03_Drivers/STM32L4xx_HAL_Driver/Src/stm32l4xx_hal_flash_ex.c **** 
 1405              		.loc 1 399 3 is_stmt 1 view .LVU396
 399:../03_Drivers/STM32L4xx_HAL_Driver/Src/stm32l4xx_hal_flash_ex.c **** 
 1406              		.loc 1 399 25 is_stmt 0 view .LVU397
 1407 0014 FFF7FEFF 		bl	FLASH_OB_GetUser
 1408              	.LVL132:
 399:../03_Drivers/STM32L4xx_HAL_Driver/Src/stm32l4xx_hal_flash_ex.c **** 
 1409              		.loc 1 399 23 view .LVU398
 1410 0018 A061     		str	r0, [r4, #24]
 407:../03_Drivers/STM32L4xx_HAL_Driver/Src/stm32l4xx_hal_flash_ex.c **** #endif
 1411              		.loc 1 407 3 is_stmt 1 view .LVU399
 407:../03_Drivers/STM32L4xx_HAL_Driver/Src/stm32l4xx_hal_flash_ex.c **** #endif
 1412              		.loc 1 407 13 is_stmt 0 view .LVU400
 1413 001a E369     		ldr	r3, [r4, #28]
 407:../03_Drivers/STM32L4xx_HAL_Driver/Src/stm32l4xx_hal_flash_ex.c **** #endif
 1414              		.loc 1 407 5 view .LVU401
 1415 001c 012B     		cmp	r3, #1
 1416 001e 09D0     		beq	.L140
 1417              	.L135:
 414:../03_Drivers/STM32L4xx_HAL_Driver/Src/stm32l4xx_hal_flash_ex.c **** 
 1418              		.loc 1 414 1 view .LVU402
 1419 0020 10BD     		pop	{r4, pc}
 1420              	.LVL133:
 1421              	.L139:
 390:../03_Drivers/STM32L4xx_HAL_Driver/Src/stm32l4xx_hal_flash_ex.c ****     /* Get write protection on the selected area */
 1422              		.loc 1 390 5 is_stmt 1 view .LVU403
 390:../03_Drivers/STM32L4xx_HAL_Driver/Src/stm32l4xx_hal_flash_ex.c ****     /* Get write protection on the selected area */
 1423              		.loc 1 390 25 is_stmt 0 view .LVU404
 1424 0022 2246     		mov	r2, r4
 1425 0024 0723     		movs	r3, #7
 1426 0026 42F80C3B 		str	r3, [r2], #12
 392:../03_Drivers/STM32L4xx_HAL_Driver/Src/stm32l4xx_hal_flash_ex.c ****   }
 1427              		.loc 1 392 5 is_stmt 1 view .LVU405
 1428 002a 04F10801 		add	r1, r4, #8
 1429 002e FFF7FEFF 		bl	FLASH_OB_GetWRP
 1430              	.LVL134:
 1431 0032 ECE7     		b	.L136
 1432              	.L140:
 410:../03_Drivers/STM32L4xx_HAL_Driver/Src/stm32l4xx_hal_flash_ex.c ****     /* Get the Proprietary code readout protection */
 1433              		.loc 1 410 5 view .LVU406
 410:../03_Drivers/STM32L4xx_HAL_Driver/Src/stm32l4xx_hal_flash_ex.c ****     /* Get the Proprietary code readout protection */
 1434              		.loc 1 410 25 is_stmt 0 view .LVU407
 1435 0034 2368     		ldr	r3, [r4]
 1436 0036 43F00803 		orr	r3, r3, #8
 1437 003a 2246     		mov	r2, r4
ARM GAS  C:\Users\minde\AppData\Local\Temp\ccYkQJ5V.s 			page 55


 1438 003c 42F8243B 		str	r3, [r2], #36
 412:../03_Drivers/STM32L4xx_HAL_Driver/Src/stm32l4xx_hal_flash_ex.c ****   }
 1439              		.loc 1 412 5 is_stmt 1 view .LVU408
 1440 0040 04F12001 		add	r1, r4, #32
 1441 0044 04F11C00 		add	r0, r4, #28
 1442 0048 FFF7FEFF 		bl	FLASH_OB_GetPCROP
 1443              	.LVL135:
 414:../03_Drivers/STM32L4xx_HAL_Driver/Src/stm32l4xx_hal_flash_ex.c **** 
 1444              		.loc 1 414 1 is_stmt 0 view .LVU409
 1445 004c E8E7     		b	.L135
 1446              		.cfi_endproc
 1447              	.LFE291:
 1449              		.section	.text.FLASH_PageErase,"ax",%progbits
 1450              		.align	1
 1451              		.global	FLASH_PageErase
 1452              		.syntax unified
 1453              		.thumb
 1454              		.thumb_func
 1455              		.fpu fpv4-sp-d16
 1457              	FLASH_PageErase:
 1458              	.LVL136:
 1459              	.LFB293:
 560:../03_Drivers/STM32L4xx_HAL_Driver/Src/stm32l4xx_hal_flash_ex.c ****   /* Check the parameters */
 1460              		.loc 1 560 1 is_stmt 1 view -0
 1461              		.cfi_startproc
 1462              		@ args = 0, pretend = 0, frame = 0
 1463              		@ frame_needed = 0, uses_anonymous_args = 0
 560:../03_Drivers/STM32L4xx_HAL_Driver/Src/stm32l4xx_hal_flash_ex.c ****   /* Check the parameters */
 1464              		.loc 1 560 1 is_stmt 0 view .LVU411
 1465 0000 10B5     		push	{r4, lr}
 1466              	.LCFI9:
 1467              		.cfi_def_cfa_offset 8
 1468              		.cfi_offset 4, -8
 1469              		.cfi_offset 14, -4
 1470 0002 0446     		mov	r4, r0
 562:../03_Drivers/STM32L4xx_HAL_Driver/Src/stm32l4xx_hal_flash_ex.c **** 
 1471              		.loc 1 562 3 is_stmt 1 view .LVU412
 1472 0004 184B     		ldr	r3, .L150
 1473 0006 B3F8E030 		ldrh	r3, [r3, #224]
 1474 000a C3F30B03 		ubfx	r3, r3, #0, #12
 1475 000e B3F5807F 		cmp	r3, #256
 1476 0012 18D0     		beq	.L147
 562:../03_Drivers/STM32L4xx_HAL_Driver/Src/stm32l4xx_hal_flash_ex.c **** 
 1477              		.loc 1 562 3 is_stmt 0 discriminator 2 view .LVU413
 1478 0014 802B     		cmp	r3, #128
 1479 0016 1BD0     		beq	.L148
 562:../03_Drivers/STM32L4xx_HAL_Driver/Src/stm32l4xx_hal_flash_ex.c **** 
 1480              		.loc 1 562 3 discriminator 5 view .LVU414
 1481 0018 7F28     		cmp	r0, #127
 1482 001a 8CBF     		ite	hi
 1483 001c 0023     		movhi	r3, #0
 1484 001e 0123     		movls	r3, #1
 1485              	.L143:
 562:../03_Drivers/STM32L4xx_HAL_Driver/Src/stm32l4xx_hal_flash_ex.c **** 
 1486              		.loc 1 562 3 discriminator 8 view .LVU415
 1487 0020 DBB1     		cbz	r3, .L149
 1488              	.LVL137:
ARM GAS  C:\Users\minde\AppData\Local\Temp\ccYkQJ5V.s 			page 56


 1489              	.L145:
 589:../03_Drivers/STM32L4xx_HAL_Driver/Src/stm32l4xx_hal_flash_ex.c **** #endif
 1490              		.loc 1 589 3 is_stmt 1 view .LVU416
 593:../03_Drivers/STM32L4xx_HAL_Driver/Src/stm32l4xx_hal_flash_ex.c ****   SET_BIT(FLASH->CR, FLASH_CR_PER);
 1491              		.loc 1 593 3 view .LVU417
 1492 0022 124B     		ldr	r3, .L150+4
 1493 0024 5A69     		ldr	r2, [r3, #20]
 1494 0026 22F47E72 		bic	r2, r2, #1016
 1495 002a E400     		lsls	r4, r4, #3
 1496              	.LVL138:
 593:../03_Drivers/STM32L4xx_HAL_Driver/Src/stm32l4xx_hal_flash_ex.c ****   SET_BIT(FLASH->CR, FLASH_CR_PER);
 1497              		.loc 1 593 3 is_stmt 0 view .LVU418
 1498 002c 04F4FF64 		and	r4, r4, #2040
 1499 0030 1443     		orrs	r4, r4, r2
 1500 0032 5C61     		str	r4, [r3, #20]
 594:../03_Drivers/STM32L4xx_HAL_Driver/Src/stm32l4xx_hal_flash_ex.c ****   SET_BIT(FLASH->CR, FLASH_CR_STRT);
 1501              		.loc 1 594 3 is_stmt 1 view .LVU419
 1502 0034 5A69     		ldr	r2, [r3, #20]
 1503 0036 42F00202 		orr	r2, r2, #2
 1504 003a 5A61     		str	r2, [r3, #20]
 595:../03_Drivers/STM32L4xx_HAL_Driver/Src/stm32l4xx_hal_flash_ex.c **** }
 1505              		.loc 1 595 3 view .LVU420
 1506 003c 5A69     		ldr	r2, [r3, #20]
 1507 003e 42F48032 		orr	r2, r2, #65536
 1508 0042 5A61     		str	r2, [r3, #20]
 596:../03_Drivers/STM32L4xx_HAL_Driver/Src/stm32l4xx_hal_flash_ex.c **** 
 1509              		.loc 1 596 1 is_stmt 0 view .LVU421
 1510 0044 10BD     		pop	{r4, pc}
 1511              	.LVL139:
 1512              	.L147:
 562:../03_Drivers/STM32L4xx_HAL_Driver/Src/stm32l4xx_hal_flash_ex.c **** 
 1513              		.loc 1 562 3 discriminator 1 view .LVU422
 1514 0046 7F28     		cmp	r0, #127
 1515 0048 8CBF     		ite	hi
 1516 004a 0023     		movhi	r3, #0
 1517 004c 0123     		movls	r3, #1
 1518 004e E7E7     		b	.L143
 1519              	.L148:
 562:../03_Drivers/STM32L4xx_HAL_Driver/Src/stm32l4xx_hal_flash_ex.c **** 
 1520              		.loc 1 562 3 discriminator 4 view .LVU423
 1521 0050 3F28     		cmp	r0, #63
 1522 0052 8CBF     		ite	hi
 1523 0054 0023     		movhi	r3, #0
 1524 0056 0123     		movls	r3, #1
 1525 0058 E2E7     		b	.L143
 1526              	.L149:
 562:../03_Drivers/STM32L4xx_HAL_Driver/Src/stm32l4xx_hal_flash_ex.c **** 
 1527              		.loc 1 562 3 discriminator 9 view .LVU424
 1528 005a 40F23221 		movw	r1, #562
 1529              	.LVL140:
 562:../03_Drivers/STM32L4xx_HAL_Driver/Src/stm32l4xx_hal_flash_ex.c **** 
 1530              		.loc 1 562 3 discriminator 9 view .LVU425
 1531 005e 0448     		ldr	r0, .L150+8
 1532              	.LVL141:
 562:../03_Drivers/STM32L4xx_HAL_Driver/Src/stm32l4xx_hal_flash_ex.c **** 
 1533              		.loc 1 562 3 discriminator 9 view .LVU426
 1534 0060 FFF7FEFF 		bl	assert_failed
ARM GAS  C:\Users\minde\AppData\Local\Temp\ccYkQJ5V.s 			page 57


 1535              	.LVL142:
 1536 0064 DDE7     		b	.L145
 1537              	.L151:
 1538 0066 00BF     		.align	2
 1539              	.L150:
 1540 0068 0075FF1F 		.word	536835328
 1541 006c 00200240 		.word	1073881088
 1542 0070 00000000 		.word	.LC0
 1543              		.cfi_endproc
 1544              	.LFE293:
 1546              		.section	.text.HAL_FLASHEx_Erase_IT,"ax",%progbits
 1547              		.align	1
 1548              		.global	HAL_FLASHEx_Erase_IT
 1549              		.syntax unified
 1550              		.thumb
 1551              		.thumb_func
 1552              		.fpu fpv4-sp-d16
 1554              	HAL_FLASHEx_Erase_IT:
 1555              	.LVL143:
 1556              	.LFB289:
 234:../03_Drivers/STM32L4xx_HAL_Driver/Src/stm32l4xx_hal_flash_ex.c ****   HAL_StatusTypeDef status = HAL_OK;
 1557              		.loc 1 234 1 is_stmt 1 view -0
 1558              		.cfi_startproc
 1559              		@ args = 0, pretend = 0, frame = 0
 1560              		@ frame_needed = 0, uses_anonymous_args = 0
 235:../03_Drivers/STM32L4xx_HAL_Driver/Src/stm32l4xx_hal_flash_ex.c **** 
 1561              		.loc 1 235 3 view .LVU428
 238:../03_Drivers/STM32L4xx_HAL_Driver/Src/stm32l4xx_hal_flash_ex.c **** 
 1562              		.loc 1 238 3 view .LVU429
 238:../03_Drivers/STM32L4xx_HAL_Driver/Src/stm32l4xx_hal_flash_ex.c **** 
 1563              		.loc 1 238 3 view .LVU430
 1564 0000 304B     		ldr	r3, .L167
 1565 0002 1B78     		ldrb	r3, [r3]	@ zero_extendqisi2
 1566 0004 012B     		cmp	r3, #1
 1567 0006 5AD0     		beq	.L160
 234:../03_Drivers/STM32L4xx_HAL_Driver/Src/stm32l4xx_hal_flash_ex.c ****   HAL_StatusTypeDef status = HAL_OK;
 1568              		.loc 1 234 1 is_stmt 0 discriminator 2 view .LVU431
 1569 0008 10B5     		push	{r4, lr}
 1570              	.LCFI10:
 1571              		.cfi_def_cfa_offset 8
 1572              		.cfi_offset 4, -8
 1573              		.cfi_offset 14, -4
 1574 000a 0446     		mov	r4, r0
 238:../03_Drivers/STM32L4xx_HAL_Driver/Src/stm32l4xx_hal_flash_ex.c **** 
 1575              		.loc 1 238 3 is_stmt 1 discriminator 2 view .LVU432
 1576 000c 2D4B     		ldr	r3, .L167
 1577 000e 0122     		movs	r2, #1
 1578 0010 1A70     		strb	r2, [r3]
 238:../03_Drivers/STM32L4xx_HAL_Driver/Src/stm32l4xx_hal_flash_ex.c **** 
 1579              		.loc 1 238 3 discriminator 2 view .LVU433
 241:../03_Drivers/STM32L4xx_HAL_Driver/Src/stm32l4xx_hal_flash_ex.c **** 
 1580              		.loc 1 241 3 discriminator 2 view .LVU434
 1581 0012 0368     		ldr	r3, [r0]
 1582 0014 9342     		cmp	r3, r2
 1583 0016 2FD8     		bhi	.L165
 1584              	.LVL144:
 1585              	.L154:
ARM GAS  C:\Users\minde\AppData\Local\Temp\ccYkQJ5V.s 			page 58


 243:../03_Drivers/STM32L4xx_HAL_Driver/Src/stm32l4xx_hal_flash_ex.c **** 
 1586              		.loc 1 243 3 view .LVU435
 243:../03_Drivers/STM32L4xx_HAL_Driver/Src/stm32l4xx_hal_flash_ex.c **** 
 1587              		.loc 1 243 20 is_stmt 0 view .LVU436
 1588 0018 2A4B     		ldr	r3, .L167
 1589 001a 0022     		movs	r2, #0
 1590 001c 5A60     		str	r2, [r3, #4]
 246:../03_Drivers/STM32L4xx_HAL_Driver/Src/stm32l4xx_hal_flash_ex.c ****   {
 1591              		.loc 1 246 3 is_stmt 1 view .LVU437
 246:../03_Drivers/STM32L4xx_HAL_Driver/Src/stm32l4xx_hal_flash_ex.c ****   {
 1592              		.loc 1 246 6 is_stmt 0 view .LVU438
 1593 001e 2A4B     		ldr	r3, .L167+4
 1594 0020 1B68     		ldr	r3, [r3]
 246:../03_Drivers/STM32L4xx_HAL_Driver/Src/stm32l4xx_hal_flash_ex.c ****   {
 1595              		.loc 1 246 5 view .LVU439
 1596 0022 13F4007F 		tst	r3, #512
 1597 0026 30D0     		beq	.L155
 249:../03_Drivers/STM32L4xx_HAL_Driver/Src/stm32l4xx_hal_flash_ex.c **** 
 1598              		.loc 1 249 5 is_stmt 1 view .LVU440
 1599 0028 274B     		ldr	r3, .L167+4
 1600 002a 1A68     		ldr	r2, [r3]
 1601 002c 22F40072 		bic	r2, r2, #512
 1602 0030 1A60     		str	r2, [r3]
 251:../03_Drivers/STM32L4xx_HAL_Driver/Src/stm32l4xx_hal_flash_ex.c ****     {
 1603              		.loc 1 251 5 view .LVU441
 251:../03_Drivers/STM32L4xx_HAL_Driver/Src/stm32l4xx_hal_flash_ex.c ****     {
 1604              		.loc 1 251 8 is_stmt 0 view .LVU442
 1605 0032 1B68     		ldr	r3, [r3]
 251:../03_Drivers/STM32L4xx_HAL_Driver/Src/stm32l4xx_hal_flash_ex.c ****     {
 1606              		.loc 1 251 7 view .LVU443
 1607 0034 13F4806F 		tst	r3, #1024
 1608 0038 23D0     		beq	.L156
 254:../03_Drivers/STM32L4xx_HAL_Driver/Src/stm32l4xx_hal_flash_ex.c ****       pFlash.CacheToReactivate = FLASH_CACHE_ICACHE_DCACHE_ENABLED;
 1609              		.loc 1 254 7 is_stmt 1 view .LVU444
 1610 003a 234A     		ldr	r2, .L167+4
 1611 003c 1368     		ldr	r3, [r2]
 1612 003e 23F48063 		bic	r3, r3, #1024
 1613 0042 1360     		str	r3, [r2]
 255:../03_Drivers/STM32L4xx_HAL_Driver/Src/stm32l4xx_hal_flash_ex.c ****     }
 1614              		.loc 1 255 7 view .LVU445
 255:../03_Drivers/STM32L4xx_HAL_Driver/Src/stm32l4xx_hal_flash_ex.c ****     }
 1615              		.loc 1 255 32 is_stmt 0 view .LVU446
 1616 0044 1F4B     		ldr	r3, .L167
 1617 0046 0322     		movs	r2, #3
 1618 0048 1A77     		strb	r2, [r3, #28]
 1619              	.L157:
 274:../03_Drivers/STM32L4xx_HAL_Driver/Src/stm32l4xx_hal_flash_ex.c **** 
 1620              		.loc 1 274 3 is_stmt 1 discriminator 4 view .LVU447
 274:../03_Drivers/STM32L4xx_HAL_Driver/Src/stm32l4xx_hal_flash_ex.c **** 
 1621              		.loc 1 274 3 discriminator 4 view .LVU448
 274:../03_Drivers/STM32L4xx_HAL_Driver/Src/stm32l4xx_hal_flash_ex.c **** 
 1622              		.loc 1 274 3 discriminator 4 view .LVU449
 274:../03_Drivers/STM32L4xx_HAL_Driver/Src/stm32l4xx_hal_flash_ex.c **** 
 1623              		.loc 1 274 3 discriminator 4 view .LVU450
 1624 004a 1F4A     		ldr	r2, .L167+4
 1625 004c 5369     		ldr	r3, [r2, #20]
 1626 004e 43F04073 		orr	r3, r3, #50331648
ARM GAS  C:\Users\minde\AppData\Local\Temp\ccYkQJ5V.s 			page 59


 1627 0052 5361     		str	r3, [r2, #20]
 274:../03_Drivers/STM32L4xx_HAL_Driver/Src/stm32l4xx_hal_flash_ex.c **** 
 1628              		.loc 1 274 3 discriminator 4 view .LVU451
 276:../03_Drivers/STM32L4xx_HAL_Driver/Src/stm32l4xx_hal_flash_ex.c **** 
 1629              		.loc 1 276 3 discriminator 4 view .LVU452
 276:../03_Drivers/STM32L4xx_HAL_Driver/Src/stm32l4xx_hal_flash_ex.c **** 
 1630              		.loc 1 276 27 is_stmt 0 discriminator 4 view .LVU453
 1631 0054 6268     		ldr	r2, [r4, #4]
 276:../03_Drivers/STM32L4xx_HAL_Driver/Src/stm32l4xx_hal_flash_ex.c **** 
 1632              		.loc 1 276 15 discriminator 4 view .LVU454
 1633 0056 1B4B     		ldr	r3, .L167
 1634 0058 1A61     		str	r2, [r3, #16]
 278:../03_Drivers/STM32L4xx_HAL_Driver/Src/stm32l4xx_hal_flash_ex.c ****   {
 1635              		.loc 1 278 3 is_stmt 1 discriminator 4 view .LVU455
 278:../03_Drivers/STM32L4xx_HAL_Driver/Src/stm32l4xx_hal_flash_ex.c ****   {
 1636              		.loc 1 278 17 is_stmt 0 discriminator 4 view .LVU456
 1637 005a 2368     		ldr	r3, [r4]
 278:../03_Drivers/STM32L4xx_HAL_Driver/Src/stm32l4xx_hal_flash_ex.c ****   {
 1638              		.loc 1 278 6 discriminator 4 view .LVU457
 1639 005c 012B     		cmp	r3, #1
 1640 005e 26D0     		beq	.L166
 287:../03_Drivers/STM32L4xx_HAL_Driver/Src/stm32l4xx_hal_flash_ex.c ****     pFlash.NbPagesToErase = pEraseInit->NbPages;
 1641              		.loc 1 287 5 is_stmt 1 view .LVU458
 287:../03_Drivers/STM32L4xx_HAL_Driver/Src/stm32l4xx_hal_flash_ex.c ****     pFlash.NbPagesToErase = pEraseInit->NbPages;
 1642              		.loc 1 287 29 is_stmt 0 view .LVU459
 1643 0060 184B     		ldr	r3, .L167
 1644 0062 0122     		movs	r2, #1
 1645 0064 1A72     		strb	r2, [r3, #8]
 288:../03_Drivers/STM32L4xx_HAL_Driver/Src/stm32l4xx_hal_flash_ex.c ****     pFlash.Page = pEraseInit->Page;
 1646              		.loc 1 288 5 is_stmt 1 view .LVU460
 288:../03_Drivers/STM32L4xx_HAL_Driver/Src/stm32l4xx_hal_flash_ex.c ****     pFlash.Page = pEraseInit->Page;
 1647              		.loc 1 288 39 is_stmt 0 view .LVU461
 1648 0066 E268     		ldr	r2, [r4, #12]
 288:../03_Drivers/STM32L4xx_HAL_Driver/Src/stm32l4xx_hal_flash_ex.c ****     pFlash.Page = pEraseInit->Page;
 1649              		.loc 1 288 27 view .LVU462
 1650 0068 9A61     		str	r2, [r3, #24]
 289:../03_Drivers/STM32L4xx_HAL_Driver/Src/stm32l4xx_hal_flash_ex.c **** 
 1651              		.loc 1 289 5 is_stmt 1 view .LVU463
 289:../03_Drivers/STM32L4xx_HAL_Driver/Src/stm32l4xx_hal_flash_ex.c **** 
 1652              		.loc 1 289 29 is_stmt 0 view .LVU464
 1653 006a A068     		ldr	r0, [r4, #8]
 289:../03_Drivers/STM32L4xx_HAL_Driver/Src/stm32l4xx_hal_flash_ex.c **** 
 1654              		.loc 1 289 17 view .LVU465
 1655 006c 5861     		str	r0, [r3, #20]
 292:../03_Drivers/STM32L4xx_HAL_Driver/Src/stm32l4xx_hal_flash_ex.c ****   }
 1656              		.loc 1 292 5 is_stmt 1 view .LVU466
 1657 006e 6168     		ldr	r1, [r4, #4]
 1658 0070 FFF7FEFF 		bl	FLASH_PageErase
 1659              	.LVL145:
 295:../03_Drivers/STM32L4xx_HAL_Driver/Src/stm32l4xx_hal_flash_ex.c **** }
 1660              		.loc 1 295 10 is_stmt 0 view .LVU467
 1661 0074 0020     		movs	r0, #0
 1662              	.L153:
 296:../03_Drivers/STM32L4xx_HAL_Driver/Src/stm32l4xx_hal_flash_ex.c **** 
 1663              		.loc 1 296 1 view .LVU468
 1664 0076 10BD     		pop	{r4, pc}
 1665              	.LVL146:
ARM GAS  C:\Users\minde\AppData\Local\Temp\ccYkQJ5V.s 			page 60


 1666              	.L165:
 241:../03_Drivers/STM32L4xx_HAL_Driver/Src/stm32l4xx_hal_flash_ex.c **** 
 1667              		.loc 1 241 3 discriminator 1 view .LVU469
 1668 0078 F121     		movs	r1, #241
 1669 007a 1448     		ldr	r0, .L167+8
 1670              	.LVL147:
 241:../03_Drivers/STM32L4xx_HAL_Driver/Src/stm32l4xx_hal_flash_ex.c **** 
 1671              		.loc 1 241 3 discriminator 1 view .LVU470
 1672 007c FFF7FEFF 		bl	assert_failed
 1673              	.LVL148:
 1674 0080 CAE7     		b	.L154
 1675              	.L156:
 259:../03_Drivers/STM32L4xx_HAL_Driver/Src/stm32l4xx_hal_flash_ex.c ****     }
 1676              		.loc 1 259 7 is_stmt 1 view .LVU471
 259:../03_Drivers/STM32L4xx_HAL_Driver/Src/stm32l4xx_hal_flash_ex.c ****     }
 1677              		.loc 1 259 32 is_stmt 0 view .LVU472
 1678 0082 104B     		ldr	r3, .L167
 1679 0084 0122     		movs	r2, #1
 1680 0086 1A77     		strb	r2, [r3, #28]
 1681 0088 DFE7     		b	.L157
 1682              	.L155:
 262:../03_Drivers/STM32L4xx_HAL_Driver/Src/stm32l4xx_hal_flash_ex.c ****   {
 1683              		.loc 1 262 8 is_stmt 1 view .LVU473
 262:../03_Drivers/STM32L4xx_HAL_Driver/Src/stm32l4xx_hal_flash_ex.c ****   {
 1684              		.loc 1 262 11 is_stmt 0 view .LVU474
 1685 008a 0F4B     		ldr	r3, .L167+4
 1686 008c 1B68     		ldr	r3, [r3]
 262:../03_Drivers/STM32L4xx_HAL_Driver/Src/stm32l4xx_hal_flash_ex.c ****   {
 1687              		.loc 1 262 10 view .LVU475
 1688 008e 13F4806F 		tst	r3, #1024
 1689 0092 08D0     		beq	.L158
 265:../03_Drivers/STM32L4xx_HAL_Driver/Src/stm32l4xx_hal_flash_ex.c ****     pFlash.CacheToReactivate = FLASH_CACHE_DCACHE_ENABLED;
 1690              		.loc 1 265 5 is_stmt 1 view .LVU476
 1691 0094 0C4A     		ldr	r2, .L167+4
 1692 0096 1368     		ldr	r3, [r2]
 1693 0098 23F48063 		bic	r3, r3, #1024
 1694 009c 1360     		str	r3, [r2]
 266:../03_Drivers/STM32L4xx_HAL_Driver/Src/stm32l4xx_hal_flash_ex.c ****   }
 1695              		.loc 1 266 5 view .LVU477
 266:../03_Drivers/STM32L4xx_HAL_Driver/Src/stm32l4xx_hal_flash_ex.c ****   }
 1696              		.loc 1 266 30 is_stmt 0 view .LVU478
 1697 009e 094B     		ldr	r3, .L167
 1698 00a0 0222     		movs	r2, #2
 1699 00a2 1A77     		strb	r2, [r3, #28]
 1700 00a4 D1E7     		b	.L157
 1701              	.L158:
 270:../03_Drivers/STM32L4xx_HAL_Driver/Src/stm32l4xx_hal_flash_ex.c ****   }
 1702              		.loc 1 270 5 is_stmt 1 view .LVU479
 270:../03_Drivers/STM32L4xx_HAL_Driver/Src/stm32l4xx_hal_flash_ex.c ****   }
 1703              		.loc 1 270 30 is_stmt 0 view .LVU480
 1704 00a6 074B     		ldr	r3, .L167
 1705 00a8 0022     		movs	r2, #0
 1706 00aa 1A77     		strb	r2, [r3, #28]
 1707 00ac CDE7     		b	.L157
 1708              	.L166:
 281:../03_Drivers/STM32L4xx_HAL_Driver/Src/stm32l4xx_hal_flash_ex.c ****     FLASH_MassErase(pEraseInit->Banks);
 1709              		.loc 1 281 5 is_stmt 1 view .LVU481
ARM GAS  C:\Users\minde\AppData\Local\Temp\ccYkQJ5V.s 			page 61


 281:../03_Drivers/STM32L4xx_HAL_Driver/Src/stm32l4xx_hal_flash_ex.c ****     FLASH_MassErase(pEraseInit->Banks);
 1710              		.loc 1 281 29 is_stmt 0 view .LVU482
 1711 00ae 054B     		ldr	r3, .L167
 1712 00b0 0222     		movs	r2, #2
 1713 00b2 1A72     		strb	r2, [r3, #8]
 282:../03_Drivers/STM32L4xx_HAL_Driver/Src/stm32l4xx_hal_flash_ex.c ****   }
 1714              		.loc 1 282 5 is_stmt 1 view .LVU483
 1715 00b4 6068     		ldr	r0, [r4, #4]
 1716 00b6 FFF7FEFF 		bl	FLASH_MassErase
 1717              	.LVL149:
 295:../03_Drivers/STM32L4xx_HAL_Driver/Src/stm32l4xx_hal_flash_ex.c **** }
 1718              		.loc 1 295 10 is_stmt 0 view .LVU484
 1719 00ba 0020     		movs	r0, #0
 1720 00bc DBE7     		b	.L153
 1721              	.LVL150:
 1722              	.L160:
 1723              	.LCFI11:
 1724              		.cfi_def_cfa_offset 0
 1725              		.cfi_restore 4
 1726              		.cfi_restore 14
 238:../03_Drivers/STM32L4xx_HAL_Driver/Src/stm32l4xx_hal_flash_ex.c **** 
 1727              		.loc 1 238 3 view .LVU485
 1728 00be 0220     		movs	r0, #2
 1729              	.LVL151:
 296:../03_Drivers/STM32L4xx_HAL_Driver/Src/stm32l4xx_hal_flash_ex.c **** 
 1730              		.loc 1 296 1 view .LVU486
 1731 00c0 7047     		bx	lr
 1732              	.L168:
 1733 00c2 00BF     		.align	2
 1734              	.L167:
 1735 00c4 00000000 		.word	pFlash
 1736 00c8 00200240 		.word	1073881088
 1737 00cc 00000000 		.word	.LC0
 1738              		.cfi_endproc
 1739              	.LFE289:
 1741              		.section	.text.FLASH_FlushCaches,"ax",%progbits
 1742              		.align	1
 1743              		.global	FLASH_FlushCaches
 1744              		.syntax unified
 1745              		.thumb
 1746              		.thumb_func
 1747              		.fpu fpv4-sp-d16
 1749              	FLASH_FlushCaches:
 1750              	.LFB294:
 603:../03_Drivers/STM32L4xx_HAL_Driver/Src/stm32l4xx_hal_flash_ex.c ****   FLASH_CacheTypeDef cache = pFlash.CacheToReactivate;
 1751              		.loc 1 603 1 is_stmt 1 view -0
 1752              		.cfi_startproc
 1753              		@ args = 0, pretend = 0, frame = 0
 1754              		@ frame_needed = 0, uses_anonymous_args = 0
 1755              		@ link register save eliminated.
 604:../03_Drivers/STM32L4xx_HAL_Driver/Src/stm32l4xx_hal_flash_ex.c **** 
 1756              		.loc 1 604 3 view .LVU488
 604:../03_Drivers/STM32L4xx_HAL_Driver/Src/stm32l4xx_hal_flash_ex.c **** 
 1757              		.loc 1 604 22 is_stmt 0 view .LVU489
 1758 0000 144B     		ldr	r3, .L174
 1759 0002 1B7F     		ldrb	r3, [r3, #28]	@ zero_extendqisi2
 1760 0004 DBB2     		uxtb	r3, r3
ARM GAS  C:\Users\minde\AppData\Local\Temp\ccYkQJ5V.s 			page 62


 1761              	.LVL152:
 607:../03_Drivers/STM32L4xx_HAL_Driver/Src/stm32l4xx_hal_flash_ex.c ****      (cache == FLASH_CACHE_ICACHE_DCACHE_ENABLED))
 1762              		.loc 1 607 3 is_stmt 1 view .LVU490
 607:../03_Drivers/STM32L4xx_HAL_Driver/Src/stm32l4xx_hal_flash_ex.c ****      (cache == FLASH_CACHE_ICACHE_DCACHE_ENABLED))
 1763              		.loc 1 607 5 is_stmt 0 view .LVU491
 1764 0006 012B     		cmp	r3, #1
 1765 0008 01D0     		beq	.L170
 607:../03_Drivers/STM32L4xx_HAL_Driver/Src/stm32l4xx_hal_flash_ex.c ****      (cache == FLASH_CACHE_ICACHE_DCACHE_ENABLED))
 1766              		.loc 1 607 44 discriminator 1 view .LVU492
 1767 000a 032B     		cmp	r3, #3
 1768 000c 0CD1     		bne	.L171
 1769              	.L170:
 611:../03_Drivers/STM32L4xx_HAL_Driver/Src/stm32l4xx_hal_flash_ex.c ****     /* Enable instruction cache */
 1770              		.loc 1 611 5 is_stmt 1 view .LVU493
 611:../03_Drivers/STM32L4xx_HAL_Driver/Src/stm32l4xx_hal_flash_ex.c ****     /* Enable instruction cache */
 1771              		.loc 1 611 5 view .LVU494
 1772 000e 124A     		ldr	r2, .L174+4
 1773 0010 1168     		ldr	r1, [r2]
 1774 0012 41F40061 		orr	r1, r1, #2048
 1775 0016 1160     		str	r1, [r2]
 611:../03_Drivers/STM32L4xx_HAL_Driver/Src/stm32l4xx_hal_flash_ex.c ****     /* Enable instruction cache */
 1776              		.loc 1 611 5 view .LVU495
 1777 0018 1168     		ldr	r1, [r2]
 1778 001a 21F40061 		bic	r1, r1, #2048
 1779 001e 1160     		str	r1, [r2]
 611:../03_Drivers/STM32L4xx_HAL_Driver/Src/stm32l4xx_hal_flash_ex.c ****     /* Enable instruction cache */
 1780              		.loc 1 611 5 view .LVU496
 613:../03_Drivers/STM32L4xx_HAL_Driver/Src/stm32l4xx_hal_flash_ex.c ****   }
 1781              		.loc 1 613 5 view .LVU497
 1782 0020 1168     		ldr	r1, [r2]
 1783 0022 41F40071 		orr	r1, r1, #512
 1784 0026 1160     		str	r1, [r2]
 1785              	.L171:
 617:../03_Drivers/STM32L4xx_HAL_Driver/Src/stm32l4xx_hal_flash_ex.c ****      (cache == FLASH_CACHE_ICACHE_DCACHE_ENABLED))
 1786              		.loc 1 617 3 view .LVU498
 617:../03_Drivers/STM32L4xx_HAL_Driver/Src/stm32l4xx_hal_flash_ex.c ****      (cache == FLASH_CACHE_ICACHE_DCACHE_ENABLED))
 1787              		.loc 1 617 44 is_stmt 0 view .LVU499
 1788 0028 023B     		subs	r3, r3, #2
 1789              	.LVL153:
 617:../03_Drivers/STM32L4xx_HAL_Driver/Src/stm32l4xx_hal_flash_ex.c ****      (cache == FLASH_CACHE_ICACHE_DCACHE_ENABLED))
 1790              		.loc 1 617 44 view .LVU500
 1791 002a DBB2     		uxtb	r3, r3
 1792              	.LVL154:
 617:../03_Drivers/STM32L4xx_HAL_Driver/Src/stm32l4xx_hal_flash_ex.c ****      (cache == FLASH_CACHE_ICACHE_DCACHE_ENABLED))
 1793              		.loc 1 617 5 view .LVU501
 1794 002c 012B     		cmp	r3, #1
 1795 002e 03D9     		bls	.L173
 1796              	.L172:
 627:../03_Drivers/STM32L4xx_HAL_Driver/Src/stm32l4xx_hal_flash_ex.c **** }
 1797              		.loc 1 627 3 is_stmt 1 view .LVU502
 627:../03_Drivers/STM32L4xx_HAL_Driver/Src/stm32l4xx_hal_flash_ex.c **** }
 1798              		.loc 1 627 28 is_stmt 0 view .LVU503
 1799 0030 084B     		ldr	r3, .L174
 1800 0032 0022     		movs	r2, #0
 1801 0034 1A77     		strb	r2, [r3, #28]
 628:../03_Drivers/STM32L4xx_HAL_Driver/Src/stm32l4xx_hal_flash_ex.c **** 
 1802              		.loc 1 628 1 view .LVU504
ARM GAS  C:\Users\minde\AppData\Local\Temp\ccYkQJ5V.s 			page 63


 1803 0036 7047     		bx	lr
 1804              	.L173:
 621:../03_Drivers/STM32L4xx_HAL_Driver/Src/stm32l4xx_hal_flash_ex.c ****     /* Enable data cache */
 1805              		.loc 1 621 5 is_stmt 1 view .LVU505
 621:../03_Drivers/STM32L4xx_HAL_Driver/Src/stm32l4xx_hal_flash_ex.c ****     /* Enable data cache */
 1806              		.loc 1 621 5 view .LVU506
 1807 0038 074B     		ldr	r3, .L174+4
 1808 003a 1A68     		ldr	r2, [r3]
 1809 003c 42F48052 		orr	r2, r2, #4096
 1810 0040 1A60     		str	r2, [r3]
 621:../03_Drivers/STM32L4xx_HAL_Driver/Src/stm32l4xx_hal_flash_ex.c ****     /* Enable data cache */
 1811              		.loc 1 621 5 view .LVU507
 1812 0042 1A68     		ldr	r2, [r3]
 1813 0044 22F48052 		bic	r2, r2, #4096
 1814 0048 1A60     		str	r2, [r3]
 621:../03_Drivers/STM32L4xx_HAL_Driver/Src/stm32l4xx_hal_flash_ex.c ****     /* Enable data cache */
 1815              		.loc 1 621 5 view .LVU508
 623:../03_Drivers/STM32L4xx_HAL_Driver/Src/stm32l4xx_hal_flash_ex.c ****   }
 1816              		.loc 1 623 5 view .LVU509
 1817 004a 1A68     		ldr	r2, [r3]
 1818 004c 42F48062 		orr	r2, r2, #1024
 1819 0050 1A60     		str	r2, [r3]
 1820 0052 EDE7     		b	.L172
 1821              	.L175:
 1822              		.align	2
 1823              	.L174:
 1824 0054 00000000 		.word	pFlash
 1825 0058 00200240 		.word	1073881088
 1826              		.cfi_endproc
 1827              	.LFE294:
 1829              		.section	.text.HAL_FLASHEx_Erase,"ax",%progbits
 1830              		.align	1
 1831              		.global	HAL_FLASHEx_Erase
 1832              		.syntax unified
 1833              		.thumb
 1834              		.thumb_func
 1835              		.fpu fpv4-sp-d16
 1837              	HAL_FLASHEx_Erase:
 1838              	.LVL155:
 1839              	.LFB288:
 128:../03_Drivers/STM32L4xx_HAL_Driver/Src/stm32l4xx_hal_flash_ex.c ****   HAL_StatusTypeDef status;
 1840              		.loc 1 128 1 view -0
 1841              		.cfi_startproc
 1842              		@ args = 0, pretend = 0, frame = 0
 1843              		@ frame_needed = 0, uses_anonymous_args = 0
 128:../03_Drivers/STM32L4xx_HAL_Driver/Src/stm32l4xx_hal_flash_ex.c ****   HAL_StatusTypeDef status;
 1844              		.loc 1 128 1 is_stmt 0 view .LVU511
 1845 0000 F8B5     		push	{r3, r4, r5, r6, r7, lr}
 1846              	.LCFI12:
 1847              		.cfi_def_cfa_offset 24
 1848              		.cfi_offset 3, -24
 1849              		.cfi_offset 4, -20
 1850              		.cfi_offset 5, -16
 1851              		.cfi_offset 6, -12
 1852              		.cfi_offset 7, -8
 1853              		.cfi_offset 14, -4
 129:../03_Drivers/STM32L4xx_HAL_Driver/Src/stm32l4xx_hal_flash_ex.c ****   uint32_t page_index;
ARM GAS  C:\Users\minde\AppData\Local\Temp\ccYkQJ5V.s 			page 64


 1854              		.loc 1 129 3 is_stmt 1 view .LVU512
 130:../03_Drivers/STM32L4xx_HAL_Driver/Src/stm32l4xx_hal_flash_ex.c **** 
 1855              		.loc 1 130 3 view .LVU513
 133:../03_Drivers/STM32L4xx_HAL_Driver/Src/stm32l4xx_hal_flash_ex.c **** 
 1856              		.loc 1 133 3 view .LVU514
 133:../03_Drivers/STM32L4xx_HAL_Driver/Src/stm32l4xx_hal_flash_ex.c **** 
 1857              		.loc 1 133 3 view .LVU515
 1858 0002 3F4B     		ldr	r3, .L194
 1859 0004 1B78     		ldrb	r3, [r3]	@ zero_extendqisi2
 1860 0006 012B     		cmp	r3, #1
 1861 0008 77D0     		beq	.L189
 1862 000a 0446     		mov	r4, r0
 1863 000c 0E46     		mov	r6, r1
 133:../03_Drivers/STM32L4xx_HAL_Driver/Src/stm32l4xx_hal_flash_ex.c **** 
 1864              		.loc 1 133 3 discriminator 2 view .LVU516
 1865 000e 3C4B     		ldr	r3, .L194
 1866 0010 0122     		movs	r2, #1
 1867 0012 1A70     		strb	r2, [r3]
 133:../03_Drivers/STM32L4xx_HAL_Driver/Src/stm32l4xx_hal_flash_ex.c **** 
 1868              		.loc 1 133 3 discriminator 2 view .LVU517
 136:../03_Drivers/STM32L4xx_HAL_Driver/Src/stm32l4xx_hal_flash_ex.c **** 
 1869              		.loc 1 136 3 discriminator 2 view .LVU518
 1870 0014 0368     		ldr	r3, [r0]
 1871 0016 9342     		cmp	r3, r2
 1872 0018 3ED8     		bhi	.L191
 1873              	.LVL156:
 1874              	.L178:
 139:../03_Drivers/STM32L4xx_HAL_Driver/Src/stm32l4xx_hal_flash_ex.c **** 
 1875              		.loc 1 139 3 view .LVU519
 139:../03_Drivers/STM32L4xx_HAL_Driver/Src/stm32l4xx_hal_flash_ex.c **** 
 1876              		.loc 1 139 12 is_stmt 0 view .LVU520
 1877 001a 4CF25030 		movw	r0, #50000
 1878 001e FFF7FEFF 		bl	FLASH_WaitForLastOperation
 1879              	.LVL157:
 141:../03_Drivers/STM32L4xx_HAL_Driver/Src/stm32l4xx_hal_flash_ex.c ****   {
 1880              		.loc 1 141 3 is_stmt 1 view .LVU521
 141:../03_Drivers/STM32L4xx_HAL_Driver/Src/stm32l4xx_hal_flash_ex.c ****   {
 1881              		.loc 1 141 6 is_stmt 0 view .LVU522
 1882 0022 0746     		mov	r7, r0
 1883 0024 0028     		cmp	r0, #0
 1884 0026 63D1     		bne	.L179
 143:../03_Drivers/STM32L4xx_HAL_Driver/Src/stm32l4xx_hal_flash_ex.c **** 
 1885              		.loc 1 143 5 is_stmt 1 view .LVU523
 143:../03_Drivers/STM32L4xx_HAL_Driver/Src/stm32l4xx_hal_flash_ex.c **** 
 1886              		.loc 1 143 22 is_stmt 0 view .LVU524
 1887 0028 354B     		ldr	r3, .L194
 1888 002a 0022     		movs	r2, #0
 1889 002c 5A60     		str	r2, [r3, #4]
 146:../03_Drivers/STM32L4xx_HAL_Driver/Src/stm32l4xx_hal_flash_ex.c ****     {
 1890              		.loc 1 146 5 is_stmt 1 view .LVU525
 146:../03_Drivers/STM32L4xx_HAL_Driver/Src/stm32l4xx_hal_flash_ex.c ****     {
 1891              		.loc 1 146 8 is_stmt 0 view .LVU526
 1892 002e 354B     		ldr	r3, .L194+4
 1893 0030 1B68     		ldr	r3, [r3]
 146:../03_Drivers/STM32L4xx_HAL_Driver/Src/stm32l4xx_hal_flash_ex.c ****     {
 1894              		.loc 1 146 7 view .LVU527
 1895 0032 13F4007F 		tst	r3, #512
ARM GAS  C:\Users\minde\AppData\Local\Temp\ccYkQJ5V.s 			page 65


 1896 0036 38D0     		beq	.L180
 149:../03_Drivers/STM32L4xx_HAL_Driver/Src/stm32l4xx_hal_flash_ex.c **** 
 1897              		.loc 1 149 7 is_stmt 1 view .LVU528
 1898 0038 324B     		ldr	r3, .L194+4
 1899 003a 1A68     		ldr	r2, [r3]
 1900 003c 22F40072 		bic	r2, r2, #512
 1901 0040 1A60     		str	r2, [r3]
 151:../03_Drivers/STM32L4xx_HAL_Driver/Src/stm32l4xx_hal_flash_ex.c ****       {
 1902              		.loc 1 151 7 view .LVU529
 151:../03_Drivers/STM32L4xx_HAL_Driver/Src/stm32l4xx_hal_flash_ex.c ****       {
 1903              		.loc 1 151 10 is_stmt 0 view .LVU530
 1904 0042 1B68     		ldr	r3, [r3]
 151:../03_Drivers/STM32L4xx_HAL_Driver/Src/stm32l4xx_hal_flash_ex.c ****       {
 1905              		.loc 1 151 9 view .LVU531
 1906 0044 13F4806F 		tst	r3, #1024
 1907 0048 2BD0     		beq	.L181
 154:../03_Drivers/STM32L4xx_HAL_Driver/Src/stm32l4xx_hal_flash_ex.c ****         pFlash.CacheToReactivate = FLASH_CACHE_ICACHE_DCACHE_ENABLED;
 1908              		.loc 1 154 9 is_stmt 1 view .LVU532
 1909 004a 2E4A     		ldr	r2, .L194+4
 1910 004c 1368     		ldr	r3, [r2]
 1911 004e 23F48063 		bic	r3, r3, #1024
 1912 0052 1360     		str	r3, [r2]
 155:../03_Drivers/STM32L4xx_HAL_Driver/Src/stm32l4xx_hal_flash_ex.c ****       }
 1913              		.loc 1 155 9 view .LVU533
 155:../03_Drivers/STM32L4xx_HAL_Driver/Src/stm32l4xx_hal_flash_ex.c ****       }
 1914              		.loc 1 155 34 is_stmt 0 view .LVU534
 1915 0054 2A4B     		ldr	r3, .L194
 1916 0056 0322     		movs	r2, #3
 1917 0058 1A77     		strb	r2, [r3, #28]
 1918              	.L182:
 173:../03_Drivers/STM32L4xx_HAL_Driver/Src/stm32l4xx_hal_flash_ex.c ****     {
 1919              		.loc 1 173 5 is_stmt 1 view .LVU535
 173:../03_Drivers/STM32L4xx_HAL_Driver/Src/stm32l4xx_hal_flash_ex.c ****     {
 1920              		.loc 1 173 19 is_stmt 0 view .LVU536
 1921 005a 2368     		ldr	r3, [r4]
 173:../03_Drivers/STM32L4xx_HAL_Driver/Src/stm32l4xx_hal_flash_ex.c ****     {
 1922              		.loc 1 173 8 view .LVU537
 1923 005c 012B     		cmp	r3, #1
 1924 005e 36D0     		beq	.L192
 195:../03_Drivers/STM32L4xx_HAL_Driver/Src/stm32l4xx_hal_flash_ex.c **** 
 1925              		.loc 1 195 7 is_stmt 1 view .LVU538
 195:../03_Drivers/STM32L4xx_HAL_Driver/Src/stm32l4xx_hal_flash_ex.c **** 
 1926              		.loc 1 195 18 is_stmt 0 view .LVU539
 1927 0060 4FF0FF33 		mov	r3, #-1
 1928 0064 3360     		str	r3, [r6]
 197:../03_Drivers/STM32L4xx_HAL_Driver/Src/stm32l4xx_hal_flash_ex.c ****       {
 1929              		.loc 1 197 7 is_stmt 1 view .LVU540
 197:../03_Drivers/STM32L4xx_HAL_Driver/Src/stm32l4xx_hal_flash_ex.c ****       {
 1930              		.loc 1 197 22 is_stmt 0 view .LVU541
 1931 0066 A568     		ldr	r5, [r4, #8]
 1932              	.LVL158:
 1933              	.L186:
 197:../03_Drivers/STM32L4xx_HAL_Driver/Src/stm32l4xx_hal_flash_ex.c ****       {
 1934              		.loc 1 197 42 is_stmt 1 discriminator 1 view .LVU542
 197:../03_Drivers/STM32L4xx_HAL_Driver/Src/stm32l4xx_hal_flash_ex.c ****       {
 1935              		.loc 1 197 66 is_stmt 0 discriminator 1 view .LVU543
 1936 0068 A368     		ldr	r3, [r4, #8]
ARM GAS  C:\Users\minde\AppData\Local\Temp\ccYkQJ5V.s 			page 66


 197:../03_Drivers/STM32L4xx_HAL_Driver/Src/stm32l4xx_hal_flash_ex.c ****       {
 1937              		.loc 1 197 85 discriminator 1 view .LVU544
 1938 006a E268     		ldr	r2, [r4, #12]
 197:../03_Drivers/STM32L4xx_HAL_Driver/Src/stm32l4xx_hal_flash_ex.c ****       {
 1939              		.loc 1 197 73 discriminator 1 view .LVU545
 1940 006c 1344     		add	r3, r3, r2
 197:../03_Drivers/STM32L4xx_HAL_Driver/Src/stm32l4xx_hal_flash_ex.c ****       {
 1941              		.loc 1 197 7 discriminator 1 view .LVU546
 1942 006e AB42     		cmp	r3, r5
 1943 0070 3CD9     		bls	.L185
 199:../03_Drivers/STM32L4xx_HAL_Driver/Src/stm32l4xx_hal_flash_ex.c **** 
 1944              		.loc 1 199 9 is_stmt 1 view .LVU547
 1945 0072 6168     		ldr	r1, [r4, #4]
 1946 0074 2846     		mov	r0, r5
 1947 0076 FFF7FEFF 		bl	FLASH_PageErase
 1948              	.LVL159:
 202:../03_Drivers/STM32L4xx_HAL_Driver/Src/stm32l4xx_hal_flash_ex.c **** 
 1949              		.loc 1 202 9 view .LVU548
 202:../03_Drivers/STM32L4xx_HAL_Driver/Src/stm32l4xx_hal_flash_ex.c **** 
 1950              		.loc 1 202 18 is_stmt 0 view .LVU549
 1951 007a 4CF25030 		movw	r0, #50000
 1952 007e FFF7FEFF 		bl	FLASH_WaitForLastOperation
 1953              	.LVL160:
 205:../03_Drivers/STM32L4xx_HAL_Driver/Src/stm32l4xx_hal_flash_ex.c **** 
 1954              		.loc 1 205 9 is_stmt 1 view .LVU550
 1955 0082 204A     		ldr	r2, .L194+4
 1956 0084 5369     		ldr	r3, [r2, #20]
 1957 0086 23F47E73 		bic	r3, r3, #1016
 1958 008a 23F00203 		bic	r3, r3, #2
 1959 008e 5361     		str	r3, [r2, #20]
 207:../03_Drivers/STM32L4xx_HAL_Driver/Src/stm32l4xx_hal_flash_ex.c ****         {
 1960              		.loc 1 207 9 view .LVU551
 207:../03_Drivers/STM32L4xx_HAL_Driver/Src/stm32l4xx_hal_flash_ex.c ****         {
 1961              		.loc 1 207 12 is_stmt 0 view .LVU552
 1962 0090 0746     		mov	r7, r0
 1963 0092 50BB     		cbnz	r0, .L193
 197:../03_Drivers/STM32L4xx_HAL_Driver/Src/stm32l4xx_hal_flash_ex.c ****       {
 1964              		.loc 1 197 97 is_stmt 1 discriminator 2 view .LVU553
 197:../03_Drivers/STM32L4xx_HAL_Driver/Src/stm32l4xx_hal_flash_ex.c ****       {
 1965              		.loc 1 197 107 is_stmt 0 discriminator 2 view .LVU554
 1966 0094 0135     		adds	r5, r5, #1
 1967              	.LVL161:
 197:../03_Drivers/STM32L4xx_HAL_Driver/Src/stm32l4xx_hal_flash_ex.c ****       {
 1968              		.loc 1 197 107 discriminator 2 view .LVU555
 1969 0096 E7E7     		b	.L186
 1970              	.LVL162:
 1971              	.L191:
 136:../03_Drivers/STM32L4xx_HAL_Driver/Src/stm32l4xx_hal_flash_ex.c **** 
 1972              		.loc 1 136 3 discriminator 1 view .LVU556
 1973 0098 8821     		movs	r1, #136
 1974              	.LVL163:
 136:../03_Drivers/STM32L4xx_HAL_Driver/Src/stm32l4xx_hal_flash_ex.c **** 
 1975              		.loc 1 136 3 discriminator 1 view .LVU557
 1976 009a 1B48     		ldr	r0, .L194+8
 1977              	.LVL164:
 136:../03_Drivers/STM32L4xx_HAL_Driver/Src/stm32l4xx_hal_flash_ex.c **** 
 1978              		.loc 1 136 3 discriminator 1 view .LVU558
ARM GAS  C:\Users\minde\AppData\Local\Temp\ccYkQJ5V.s 			page 67


 1979 009c FFF7FEFF 		bl	assert_failed
 1980              	.LVL165:
 1981 00a0 BBE7     		b	.L178
 1982              	.LVL166:
 1983              	.L181:
 159:../03_Drivers/STM32L4xx_HAL_Driver/Src/stm32l4xx_hal_flash_ex.c ****       }
 1984              		.loc 1 159 9 is_stmt 1 view .LVU559
 159:../03_Drivers/STM32L4xx_HAL_Driver/Src/stm32l4xx_hal_flash_ex.c ****       }
 1985              		.loc 1 159 34 is_stmt 0 view .LVU560
 1986 00a2 174B     		ldr	r3, .L194
 1987 00a4 0122     		movs	r2, #1
 1988 00a6 1A77     		strb	r2, [r3, #28]
 1989 00a8 D7E7     		b	.L182
 1990              	.L180:
 162:../03_Drivers/STM32L4xx_HAL_Driver/Src/stm32l4xx_hal_flash_ex.c ****     {
 1991              		.loc 1 162 10 is_stmt 1 view .LVU561
 162:../03_Drivers/STM32L4xx_HAL_Driver/Src/stm32l4xx_hal_flash_ex.c ****     {
 1992              		.loc 1 162 13 is_stmt 0 view .LVU562
 1993 00aa 164B     		ldr	r3, .L194+4
 1994 00ac 1B68     		ldr	r3, [r3]
 162:../03_Drivers/STM32L4xx_HAL_Driver/Src/stm32l4xx_hal_flash_ex.c ****     {
 1995              		.loc 1 162 12 view .LVU563
 1996 00ae 13F4806F 		tst	r3, #1024
 1997 00b2 08D0     		beq	.L183
 165:../03_Drivers/STM32L4xx_HAL_Driver/Src/stm32l4xx_hal_flash_ex.c ****       pFlash.CacheToReactivate = FLASH_CACHE_DCACHE_ENABLED;
 1998              		.loc 1 165 7 is_stmt 1 view .LVU564
 1999 00b4 134A     		ldr	r2, .L194+4
 2000 00b6 1368     		ldr	r3, [r2]
 2001 00b8 23F48063 		bic	r3, r3, #1024
 2002 00bc 1360     		str	r3, [r2]
 166:../03_Drivers/STM32L4xx_HAL_Driver/Src/stm32l4xx_hal_flash_ex.c ****     }
 2003              		.loc 1 166 7 view .LVU565
 166:../03_Drivers/STM32L4xx_HAL_Driver/Src/stm32l4xx_hal_flash_ex.c ****     }
 2004              		.loc 1 166 32 is_stmt 0 view .LVU566
 2005 00be 104B     		ldr	r3, .L194
 2006 00c0 0222     		movs	r2, #2
 2007 00c2 1A77     		strb	r2, [r3, #28]
 2008 00c4 C9E7     		b	.L182
 2009              	.L183:
 170:../03_Drivers/STM32L4xx_HAL_Driver/Src/stm32l4xx_hal_flash_ex.c ****     }
 2010              		.loc 1 170 7 is_stmt 1 view .LVU567
 170:../03_Drivers/STM32L4xx_HAL_Driver/Src/stm32l4xx_hal_flash_ex.c ****     }
 2011              		.loc 1 170 32 is_stmt 0 view .LVU568
 2012 00c6 0E4B     		ldr	r3, .L194
 2013 00c8 0022     		movs	r2, #0
 2014 00ca 1A77     		strb	r2, [r3, #28]
 2015 00cc C5E7     		b	.L182
 2016              	.L192:
 176:../03_Drivers/STM32L4xx_HAL_Driver/Src/stm32l4xx_hal_flash_ex.c **** 
 2017              		.loc 1 176 7 is_stmt 1 view .LVU569
 2018 00ce 6068     		ldr	r0, [r4, #4]
 2019              	.LVL167:
 176:../03_Drivers/STM32L4xx_HAL_Driver/Src/stm32l4xx_hal_flash_ex.c **** 
 2020              		.loc 1 176 7 is_stmt 0 view .LVU570
 2021 00d0 FFF7FEFF 		bl	FLASH_MassErase
 2022              	.LVL168:
 179:../03_Drivers/STM32L4xx_HAL_Driver/Src/stm32l4xx_hal_flash_ex.c **** 
ARM GAS  C:\Users\minde\AppData\Local\Temp\ccYkQJ5V.s 			page 68


 2023              		.loc 1 179 7 is_stmt 1 view .LVU571
 179:../03_Drivers/STM32L4xx_HAL_Driver/Src/stm32l4xx_hal_flash_ex.c **** 
 2024              		.loc 1 179 16 is_stmt 0 view .LVU572
 2025 00d4 4CF25030 		movw	r0, #50000
 2026 00d8 FFF7FEFF 		bl	FLASH_WaitForLastOperation
 2027              	.LVL169:
 2028 00dc 0746     		mov	r7, r0
 2029              	.LVL170:
 189:../03_Drivers/STM32L4xx_HAL_Driver/Src/stm32l4xx_hal_flash_ex.c **** #endif
 2030              		.loc 1 189 7 is_stmt 1 view .LVU573
 2031 00de 094A     		ldr	r2, .L194+4
 2032 00e0 5369     		ldr	r3, [r2, #20]
 2033 00e2 23F00403 		bic	r3, r3, #4
 2034 00e6 5361     		str	r3, [r2, #20]
 2035 00e8 00E0     		b	.L185
 2036              	.LVL171:
 2037              	.L193:
 210:../03_Drivers/STM32L4xx_HAL_Driver/Src/stm32l4xx_hal_flash_ex.c ****           break;
 2038              		.loc 1 210 11 view .LVU574
 210:../03_Drivers/STM32L4xx_HAL_Driver/Src/stm32l4xx_hal_flash_ex.c ****           break;
 2039              		.loc 1 210 22 is_stmt 0 view .LVU575
 2040 00ea 3560     		str	r5, [r6]
 211:../03_Drivers/STM32L4xx_HAL_Driver/Src/stm32l4xx_hal_flash_ex.c ****         }
 2041              		.loc 1 211 11 is_stmt 1 view .LVU576
 2042              	.LVL172:
 2043              	.L185:
 217:../03_Drivers/STM32L4xx_HAL_Driver/Src/stm32l4xx_hal_flash_ex.c ****   }
 2044              		.loc 1 217 5 view .LVU577
 2045 00ec FFF7FEFF 		bl	FLASH_FlushCaches
 2046              	.LVL173:
 2047              	.L179:
 221:../03_Drivers/STM32L4xx_HAL_Driver/Src/stm32l4xx_hal_flash_ex.c **** 
 2048              		.loc 1 221 3 view .LVU578
 221:../03_Drivers/STM32L4xx_HAL_Driver/Src/stm32l4xx_hal_flash_ex.c **** 
 2049              		.loc 1 221 3 view .LVU579
 2050 00f0 034B     		ldr	r3, .L194
 2051 00f2 0022     		movs	r2, #0
 2052 00f4 1A70     		strb	r2, [r3]
 221:../03_Drivers/STM32L4xx_HAL_Driver/Src/stm32l4xx_hal_flash_ex.c **** 
 2053              		.loc 1 221 3 view .LVU580
 223:../03_Drivers/STM32L4xx_HAL_Driver/Src/stm32l4xx_hal_flash_ex.c **** }
 2054              		.loc 1 223 3 view .LVU581
 2055              	.LVL174:
 2056              	.L177:
 224:../03_Drivers/STM32L4xx_HAL_Driver/Src/stm32l4xx_hal_flash_ex.c **** 
 2057              		.loc 1 224 1 is_stmt 0 view .LVU582
 2058 00f6 3846     		mov	r0, r7
 2059 00f8 F8BD     		pop	{r3, r4, r5, r6, r7, pc}
 2060              	.LVL175:
 2061              	.L189:
 133:../03_Drivers/STM32L4xx_HAL_Driver/Src/stm32l4xx_hal_flash_ex.c **** 
 2062              		.loc 1 133 3 view .LVU583
 2063 00fa 0227     		movs	r7, #2
 2064 00fc FBE7     		b	.L177
 2065              	.L195:
 2066 00fe 00BF     		.align	2
 2067              	.L194:
ARM GAS  C:\Users\minde\AppData\Local\Temp\ccYkQJ5V.s 			page 69


 2068 0100 00000000 		.word	pFlash
 2069 0104 00200240 		.word	1073881088
 2070 0108 00000000 		.word	.LC0
 2071              		.cfi_endproc
 2072              	.LFE288:
 2074              		.text
 2075              	.Letext0:
 2076              		.file 2 "c:\\gnu arm embedded toolchain\\10 2020-q4-major\\arm-none-eabi\\include\\machine\\_defau
 2077              		.file 3 "c:\\gnu arm embedded toolchain\\10 2020-q4-major\\arm-none-eabi\\include\\sys\\_stdint.h"
 2078              		.file 4 "../03_Drivers/CMSIS/Device/ST/STM32L4xx/Include/stm32l432xx.h"
 2079              		.file 5 "../03_Drivers/STM32L4xx_HAL_Driver/Inc/stm32l4xx_hal_def.h"
 2080              		.file 6 "../03_Drivers/STM32L4xx_HAL_Driver/Inc/stm32l4xx_hal_flash.h"
 2081              		.file 7 "../02_OS/Core_Reg/stm32l4xx_hal_conf.h"
ARM GAS  C:\Users\minde\AppData\Local\Temp\ccYkQJ5V.s 			page 70


DEFINED SYMBOLS
                            *ABS*:00000000 stm32l4xx_hal_flash_ex.c
C:\Users\minde\AppData\Local\Temp\ccYkQJ5V.s:18     .text.FLASH_OB_GetWRP:00000000 $t
C:\Users\minde\AppData\Local\Temp\ccYkQJ5V.s:25     .text.FLASH_OB_GetWRP:00000000 FLASH_OB_GetWRP
C:\Users\minde\AppData\Local\Temp\ccYkQJ5V.s:88     .text.FLASH_OB_GetWRP:00000030 $d
C:\Users\minde\AppData\Local\Temp\ccYkQJ5V.s:93     .text.FLASH_OB_GetRDP:00000000 $t
C:\Users\minde\AppData\Local\Temp\ccYkQJ5V.s:99     .text.FLASH_OB_GetRDP:00000000 FLASH_OB_GetRDP
C:\Users\minde\AppData\Local\Temp\ccYkQJ5V.s:136    .text.FLASH_OB_GetRDP:0000001c $d
C:\Users\minde\AppData\Local\Temp\ccYkQJ5V.s:141    .text.FLASH_OB_GetUser:00000000 $t
C:\Users\minde\AppData\Local\Temp\ccYkQJ5V.s:147    .text.FLASH_OB_GetUser:00000000 FLASH_OB_GetUser
C:\Users\minde\AppData\Local\Temp\ccYkQJ5V.s:169    .text.FLASH_OB_GetUser:0000000c $d
C:\Users\minde\AppData\Local\Temp\ccYkQJ5V.s:174    .text.FLASH_OB_GetPCROP:00000000 $t
C:\Users\minde\AppData\Local\Temp\ccYkQJ5V.s:180    .text.FLASH_OB_GetPCROP:00000000 FLASH_OB_GetPCROP
C:\Users\minde\AppData\Local\Temp\ccYkQJ5V.s:254    .text.FLASH_OB_GetPCROP:0000003c $d
C:\Users\minde\AppData\Local\Temp\ccYkQJ5V.s:260    .rodata.FLASH_MassErase.str1.4:00000000 $d
C:\Users\minde\AppData\Local\Temp\ccYkQJ5V.s:265    .text.FLASH_MassErase:00000000 $t
C:\Users\minde\AppData\Local\Temp\ccYkQJ5V.s:271    .text.FLASH_MassErase:00000000 FLASH_MassErase
C:\Users\minde\AppData\Local\Temp\ccYkQJ5V.s:320    .text.FLASH_MassErase:00000030 $d
C:\Users\minde\AppData\Local\Temp\ccYkQJ5V.s:326    .text.FLASH_OB_WRPConfig:00000000 $t
C:\Users\minde\AppData\Local\Temp\ccYkQJ5V.s:332    .text.FLASH_OB_WRPConfig:00000000 FLASH_OB_WRPConfig
C:\Users\minde\AppData\Local\Temp\ccYkQJ5V.s:511    .text.FLASH_OB_WRPConfig:000000e8 $d
C:\Users\minde\AppData\Local\Temp\ccYkQJ5V.s:518    .text.FLASH_OB_RDPConfig:00000000 $t
C:\Users\minde\AppData\Local\Temp\ccYkQJ5V.s:524    .text.FLASH_OB_RDPConfig:00000000 FLASH_OB_RDPConfig
C:\Users\minde\AppData\Local\Temp\ccYkQJ5V.s:601    .text.FLASH_OB_RDPConfig:0000004c $d
C:\Users\minde\AppData\Local\Temp\ccYkQJ5V.s:607    .text.FLASH_OB_UserConfig:00000000 $t
C:\Users\minde\AppData\Local\Temp\ccYkQJ5V.s:613    .text.FLASH_OB_UserConfig:00000000 FLASH_OB_UserConfig
C:\Users\minde\AppData\Local\Temp\ccYkQJ5V.s:940    .text.FLASH_OB_UserConfig:00000170 $d
C:\Users\minde\AppData\Local\Temp\ccYkQJ5V.s:946    .text.FLASH_OB_PCROPConfig:00000000 $t
C:\Users\minde\AppData\Local\Temp\ccYkQJ5V.s:952    .text.FLASH_OB_PCROPConfig:00000000 FLASH_OB_PCROPConfig
C:\Users\minde\AppData\Local\Temp\ccYkQJ5V.s:1170   .text.FLASH_OB_PCROPConfig:00000128 $d
C:\Users\minde\AppData\Local\Temp\ccYkQJ5V.s:1180   .text.HAL_FLASHEx_OBProgram:00000000 $t
C:\Users\minde\AppData\Local\Temp\ccYkQJ5V.s:1187   .text.HAL_FLASHEx_OBProgram:00000000 HAL_FLASHEx_OBProgram
C:\Users\minde\AppData\Local\Temp\ccYkQJ5V.s:1360   .text.HAL_FLASHEx_OBProgram:000000a4 $d
C:\Users\minde\AppData\Local\Temp\ccYkQJ5V.s:1366   .text.HAL_FLASHEx_OBGetConfig:00000000 $t
C:\Users\minde\AppData\Local\Temp\ccYkQJ5V.s:1373   .text.HAL_FLASHEx_OBGetConfig:00000000 HAL_FLASHEx_OBGetConfig
C:\Users\minde\AppData\Local\Temp\ccYkQJ5V.s:1450   .text.FLASH_PageErase:00000000 $t
C:\Users\minde\AppData\Local\Temp\ccYkQJ5V.s:1457   .text.FLASH_PageErase:00000000 FLASH_PageErase
C:\Users\minde\AppData\Local\Temp\ccYkQJ5V.s:1540   .text.FLASH_PageErase:00000068 $d
C:\Users\minde\AppData\Local\Temp\ccYkQJ5V.s:1547   .text.HAL_FLASHEx_Erase_IT:00000000 $t
C:\Users\minde\AppData\Local\Temp\ccYkQJ5V.s:1554   .text.HAL_FLASHEx_Erase_IT:00000000 HAL_FLASHEx_Erase_IT
C:\Users\minde\AppData\Local\Temp\ccYkQJ5V.s:1735   .text.HAL_FLASHEx_Erase_IT:000000c4 $d
C:\Users\minde\AppData\Local\Temp\ccYkQJ5V.s:1742   .text.FLASH_FlushCaches:00000000 $t
C:\Users\minde\AppData\Local\Temp\ccYkQJ5V.s:1749   .text.FLASH_FlushCaches:00000000 FLASH_FlushCaches
C:\Users\minde\AppData\Local\Temp\ccYkQJ5V.s:1824   .text.FLASH_FlushCaches:00000054 $d
C:\Users\minde\AppData\Local\Temp\ccYkQJ5V.s:1830   .text.HAL_FLASHEx_Erase:00000000 $t
C:\Users\minde\AppData\Local\Temp\ccYkQJ5V.s:1837   .text.HAL_FLASHEx_Erase:00000000 HAL_FLASHEx_Erase
C:\Users\minde\AppData\Local\Temp\ccYkQJ5V.s:2068   .text.HAL_FLASHEx_Erase:00000100 $d

UNDEFINED SYMBOLS
assert_failed
FLASH_WaitForLastOperation
pFlash
